   1              	 .cpu cortex-m4
   2              	 .eabi_attribute 27,1
   3              	 .eabi_attribute 20,1
   4              	 .eabi_attribute 21,1
   5              	 .eabi_attribute 23,3
   6              	 .eabi_attribute 24,1
   7              	 .eabi_attribute 25,1
   8              	 .eabi_attribute 26,1
   9              	 .eabi_attribute 30,6
  10              	 .eabi_attribute 34,1
  11              	 .eabi_attribute 18,4
  12              	 .file "LedRubber.c"
  13              	 .text
  14              	.Ltext0:
  15              	 .cfi_sections .debug_frame
  16              	 .section .text.XMC_GPIO_SetOutputHigh,"ax",%progbits
  17              	 .align 1
  18              	 .arch armv7e-m
  19              	 .syntax unified
  20              	 .thumb
  21              	 .thumb_func
  22              	 .fpu fpv4-sp-d16
  24              	XMC_GPIO_SetOutputHigh:
  25              	.LFB135:
  26              	 .file 1 "C:/Workspaces/DAVE-4.4.2-64Bit/_PKDS_TSTS06_811_X47_V1_0/Libraries/XMCLib/inc/xmc_gpio.h"
   1:C:/Workspaces/DAVE-4.4.2-64Bit/_PKDS_TSTS06_811_X47_V1_0/Libraries/XMCLib/inc\xmc_gpio.h **** /**
   2:C:/Workspaces/DAVE-4.4.2-64Bit/_PKDS_TSTS06_811_X47_V1_0/Libraries/XMCLib/inc\xmc_gpio.h ****  * @file xmc_gpio.h
   3:C:/Workspaces/DAVE-4.4.2-64Bit/_PKDS_TSTS06_811_X47_V1_0/Libraries/XMCLib/inc\xmc_gpio.h ****  * @date 2015-06-20
   4:C:/Workspaces/DAVE-4.4.2-64Bit/_PKDS_TSTS06_811_X47_V1_0/Libraries/XMCLib/inc\xmc_gpio.h ****  *
   5:C:/Workspaces/DAVE-4.4.2-64Bit/_PKDS_TSTS06_811_X47_V1_0/Libraries/XMCLib/inc\xmc_gpio.h ****  * @cond
   6:C:/Workspaces/DAVE-4.4.2-64Bit/_PKDS_TSTS06_811_X47_V1_0/Libraries/XMCLib/inc\xmc_gpio.h ****  *****************************************************************************
   7:C:/Workspaces/DAVE-4.4.2-64Bit/_PKDS_TSTS06_811_X47_V1_0/Libraries/XMCLib/inc\xmc_gpio.h ****  * XMClib v2.2.0 - XMC Peripheral Driver Library
   8:C:/Workspaces/DAVE-4.4.2-64Bit/_PKDS_TSTS06_811_X47_V1_0/Libraries/XMCLib/inc\xmc_gpio.h ****  *
   9:C:/Workspaces/DAVE-4.4.2-64Bit/_PKDS_TSTS06_811_X47_V1_0/Libraries/XMCLib/inc\xmc_gpio.h ****  * Copyright (c) 2015-2020, Infineon Technologies AG
  10:C:/Workspaces/DAVE-4.4.2-64Bit/_PKDS_TSTS06_811_X47_V1_0/Libraries/XMCLib/inc\xmc_gpio.h ****  * All rights reserved.
  11:C:/Workspaces/DAVE-4.4.2-64Bit/_PKDS_TSTS06_811_X47_V1_0/Libraries/XMCLib/inc\xmc_gpio.h ****  *
  12:C:/Workspaces/DAVE-4.4.2-64Bit/_PKDS_TSTS06_811_X47_V1_0/Libraries/XMCLib/inc\xmc_gpio.h ****  * Boost Software License - Version 1.0 - August 17th, 2003
  13:C:/Workspaces/DAVE-4.4.2-64Bit/_PKDS_TSTS06_811_X47_V1_0/Libraries/XMCLib/inc\xmc_gpio.h ****  *
  14:C:/Workspaces/DAVE-4.4.2-64Bit/_PKDS_TSTS06_811_X47_V1_0/Libraries/XMCLib/inc\xmc_gpio.h ****  * Permission is hereby granted, free of charge, to any person or organization
  15:C:/Workspaces/DAVE-4.4.2-64Bit/_PKDS_TSTS06_811_X47_V1_0/Libraries/XMCLib/inc\xmc_gpio.h ****  * obtaining a copy of the software and accompanying documentation covered by
  16:C:/Workspaces/DAVE-4.4.2-64Bit/_PKDS_TSTS06_811_X47_V1_0/Libraries/XMCLib/inc\xmc_gpio.h ****  * this license (the "Software") to use, reproduce, display, distribute,
  17:C:/Workspaces/DAVE-4.4.2-64Bit/_PKDS_TSTS06_811_X47_V1_0/Libraries/XMCLib/inc\xmc_gpio.h ****  * execute, and transmit the Software, and to prepare derivative works of the
  18:C:/Workspaces/DAVE-4.4.2-64Bit/_PKDS_TSTS06_811_X47_V1_0/Libraries/XMCLib/inc\xmc_gpio.h ****  * Software, and to permit third-parties to whom the Software is furnished to
  19:C:/Workspaces/DAVE-4.4.2-64Bit/_PKDS_TSTS06_811_X47_V1_0/Libraries/XMCLib/inc\xmc_gpio.h ****  * do so, all subject to the following:
  20:C:/Workspaces/DAVE-4.4.2-64Bit/_PKDS_TSTS06_811_X47_V1_0/Libraries/XMCLib/inc\xmc_gpio.h ****  *
  21:C:/Workspaces/DAVE-4.4.2-64Bit/_PKDS_TSTS06_811_X47_V1_0/Libraries/XMCLib/inc\xmc_gpio.h ****  * The copyright notices in the Software and this entire statement, including
  22:C:/Workspaces/DAVE-4.4.2-64Bit/_PKDS_TSTS06_811_X47_V1_0/Libraries/XMCLib/inc\xmc_gpio.h ****  * the above license grant, this restriction and the following disclaimer,
  23:C:/Workspaces/DAVE-4.4.2-64Bit/_PKDS_TSTS06_811_X47_V1_0/Libraries/XMCLib/inc\xmc_gpio.h ****  * must be included in all copies of the Software, in whole or in part, and
  24:C:/Workspaces/DAVE-4.4.2-64Bit/_PKDS_TSTS06_811_X47_V1_0/Libraries/XMCLib/inc\xmc_gpio.h ****  * all derivative works of the Software, unless such copies or derivative
  25:C:/Workspaces/DAVE-4.4.2-64Bit/_PKDS_TSTS06_811_X47_V1_0/Libraries/XMCLib/inc\xmc_gpio.h ****  * works are solely in the form of machine-executable object code generated by
  26:C:/Workspaces/DAVE-4.4.2-64Bit/_PKDS_TSTS06_811_X47_V1_0/Libraries/XMCLib/inc\xmc_gpio.h ****  * a source language processor.
  27:C:/Workspaces/DAVE-4.4.2-64Bit/_PKDS_TSTS06_811_X47_V1_0/Libraries/XMCLib/inc\xmc_gpio.h ****  *
  28:C:/Workspaces/DAVE-4.4.2-64Bit/_PKDS_TSTS06_811_X47_V1_0/Libraries/XMCLib/inc\xmc_gpio.h ****  * THE SOFTWARE IS PROVIDED "AS IS", WITHOUT WARRANTY OF ANY KIND, EXPRESS OR
  29:C:/Workspaces/DAVE-4.4.2-64Bit/_PKDS_TSTS06_811_X47_V1_0/Libraries/XMCLib/inc\xmc_gpio.h ****  * IMPLIED, INCLUDING BUT NOT LIMITED TO THE WARRANTIES OF MERCHANTABILITY,
  30:C:/Workspaces/DAVE-4.4.2-64Bit/_PKDS_TSTS06_811_X47_V1_0/Libraries/XMCLib/inc\xmc_gpio.h ****  * FITNESS FOR A PARTICULAR PURPOSE, TITLE AND NON-INFRINGEMENT. IN NO EVENT
  31:C:/Workspaces/DAVE-4.4.2-64Bit/_PKDS_TSTS06_811_X47_V1_0/Libraries/XMCLib/inc\xmc_gpio.h ****  * SHALL THE COPYRIGHT HOLDERS OR ANYONE DISTRIBUTING THE SOFTWARE BE LIABLE
  32:C:/Workspaces/DAVE-4.4.2-64Bit/_PKDS_TSTS06_811_X47_V1_0/Libraries/XMCLib/inc\xmc_gpio.h ****  * FOR ANY DAMAGES OR OTHER LIABILITY, WHETHER IN CONTRACT, TORT OR OTHERWISE,
  33:C:/Workspaces/DAVE-4.4.2-64Bit/_PKDS_TSTS06_811_X47_V1_0/Libraries/XMCLib/inc\xmc_gpio.h ****  * ARISING FROM, OUT OF OR IN CONNECTION WITH THE SOFTWARE OR THE USE OR OTHER
  34:C:/Workspaces/DAVE-4.4.2-64Bit/_PKDS_TSTS06_811_X47_V1_0/Libraries/XMCLib/inc\xmc_gpio.h ****  * DEALINGS IN THE SOFTWARE.
  35:C:/Workspaces/DAVE-4.4.2-64Bit/_PKDS_TSTS06_811_X47_V1_0/Libraries/XMCLib/inc\xmc_gpio.h ****  *
  36:C:/Workspaces/DAVE-4.4.2-64Bit/_PKDS_TSTS06_811_X47_V1_0/Libraries/XMCLib/inc\xmc_gpio.h ****  * To improve the quality of the software, users are encouraged to share
  37:C:/Workspaces/DAVE-4.4.2-64Bit/_PKDS_TSTS06_811_X47_V1_0/Libraries/XMCLib/inc\xmc_gpio.h ****  * modifications, enhancements or bug fixes with Infineon Technologies AG
  38:C:/Workspaces/DAVE-4.4.2-64Bit/_PKDS_TSTS06_811_X47_V1_0/Libraries/XMCLib/inc\xmc_gpio.h ****  * at XMCSupport@infineon.com.
  39:C:/Workspaces/DAVE-4.4.2-64Bit/_PKDS_TSTS06_811_X47_V1_0/Libraries/XMCLib/inc\xmc_gpio.h ****  *****************************************************************************
  40:C:/Workspaces/DAVE-4.4.2-64Bit/_PKDS_TSTS06_811_X47_V1_0/Libraries/XMCLib/inc\xmc_gpio.h ****  *
  41:C:/Workspaces/DAVE-4.4.2-64Bit/_PKDS_TSTS06_811_X47_V1_0/Libraries/XMCLib/inc\xmc_gpio.h ****  * Change History
  42:C:/Workspaces/DAVE-4.4.2-64Bit/_PKDS_TSTS06_811_X47_V1_0/Libraries/XMCLib/inc\xmc_gpio.h ****  * --------------
  43:C:/Workspaces/DAVE-4.4.2-64Bit/_PKDS_TSTS06_811_X47_V1_0/Libraries/XMCLib/inc\xmc_gpio.h ****  *
  44:C:/Workspaces/DAVE-4.4.2-64Bit/_PKDS_TSTS06_811_X47_V1_0/Libraries/XMCLib/inc\xmc_gpio.h ****  * 2015-02-20:
  45:C:/Workspaces/DAVE-4.4.2-64Bit/_PKDS_TSTS06_811_X47_V1_0/Libraries/XMCLib/inc\xmc_gpio.h ****  *     - Initial draft<br>
  46:C:/Workspaces/DAVE-4.4.2-64Bit/_PKDS_TSTS06_811_X47_V1_0/Libraries/XMCLib/inc\xmc_gpio.h ****  *     - Documentation improved <br>
  47:C:/Workspaces/DAVE-4.4.2-64Bit/_PKDS_TSTS06_811_X47_V1_0/Libraries/XMCLib/inc\xmc_gpio.h ****  *
  48:C:/Workspaces/DAVE-4.4.2-64Bit/_PKDS_TSTS06_811_X47_V1_0/Libraries/XMCLib/inc\xmc_gpio.h ****  * 2015-06-20:
  49:C:/Workspaces/DAVE-4.4.2-64Bit/_PKDS_TSTS06_811_X47_V1_0/Libraries/XMCLib/inc\xmc_gpio.h ****  *     - Removed version macros and declaration of GetDriverVersion API
  50:C:/Workspaces/DAVE-4.4.2-64Bit/_PKDS_TSTS06_811_X47_V1_0/Libraries/XMCLib/inc\xmc_gpio.h ****  *
  51:C:/Workspaces/DAVE-4.4.2-64Bit/_PKDS_TSTS06_811_X47_V1_0/Libraries/XMCLib/inc\xmc_gpio.h ****  * @endcond
  52:C:/Workspaces/DAVE-4.4.2-64Bit/_PKDS_TSTS06_811_X47_V1_0/Libraries/XMCLib/inc\xmc_gpio.h ****  *
  53:C:/Workspaces/DAVE-4.4.2-64Bit/_PKDS_TSTS06_811_X47_V1_0/Libraries/XMCLib/inc\xmc_gpio.h ****  */
  54:C:/Workspaces/DAVE-4.4.2-64Bit/_PKDS_TSTS06_811_X47_V1_0/Libraries/XMCLib/inc\xmc_gpio.h **** 
  55:C:/Workspaces/DAVE-4.4.2-64Bit/_PKDS_TSTS06_811_X47_V1_0/Libraries/XMCLib/inc\xmc_gpio.h **** #ifndef XMC_GPIO_H
  56:C:/Workspaces/DAVE-4.4.2-64Bit/_PKDS_TSTS06_811_X47_V1_0/Libraries/XMCLib/inc\xmc_gpio.h **** #define XMC_GPIO_H
  57:C:/Workspaces/DAVE-4.4.2-64Bit/_PKDS_TSTS06_811_X47_V1_0/Libraries/XMCLib/inc\xmc_gpio.h **** 
  58:C:/Workspaces/DAVE-4.4.2-64Bit/_PKDS_TSTS06_811_X47_V1_0/Libraries/XMCLib/inc\xmc_gpio.h **** /**************************************************************************************************
  59:C:/Workspaces/DAVE-4.4.2-64Bit/_PKDS_TSTS06_811_X47_V1_0/Libraries/XMCLib/inc\xmc_gpio.h ****  * HEADER FILES
  60:C:/Workspaces/DAVE-4.4.2-64Bit/_PKDS_TSTS06_811_X47_V1_0/Libraries/XMCLib/inc\xmc_gpio.h ****  **************************************************************************************************
  61:C:/Workspaces/DAVE-4.4.2-64Bit/_PKDS_TSTS06_811_X47_V1_0/Libraries/XMCLib/inc\xmc_gpio.h **** 
  62:C:/Workspaces/DAVE-4.4.2-64Bit/_PKDS_TSTS06_811_X47_V1_0/Libraries/XMCLib/inc\xmc_gpio.h **** #include "xmc_common.h"
  63:C:/Workspaces/DAVE-4.4.2-64Bit/_PKDS_TSTS06_811_X47_V1_0/Libraries/XMCLib/inc\xmc_gpio.h **** 
  64:C:/Workspaces/DAVE-4.4.2-64Bit/_PKDS_TSTS06_811_X47_V1_0/Libraries/XMCLib/inc\xmc_gpio.h **** /**
  65:C:/Workspaces/DAVE-4.4.2-64Bit/_PKDS_TSTS06_811_X47_V1_0/Libraries/XMCLib/inc\xmc_gpio.h ****  * @addtogroup XMClib XMC Peripheral Library
  66:C:/Workspaces/DAVE-4.4.2-64Bit/_PKDS_TSTS06_811_X47_V1_0/Libraries/XMCLib/inc\xmc_gpio.h ****  * @{
  67:C:/Workspaces/DAVE-4.4.2-64Bit/_PKDS_TSTS06_811_X47_V1_0/Libraries/XMCLib/inc\xmc_gpio.h ****  */
  68:C:/Workspaces/DAVE-4.4.2-64Bit/_PKDS_TSTS06_811_X47_V1_0/Libraries/XMCLib/inc\xmc_gpio.h **** 
  69:C:/Workspaces/DAVE-4.4.2-64Bit/_PKDS_TSTS06_811_X47_V1_0/Libraries/XMCLib/inc\xmc_gpio.h **** /**
  70:C:/Workspaces/DAVE-4.4.2-64Bit/_PKDS_TSTS06_811_X47_V1_0/Libraries/XMCLib/inc\xmc_gpio.h ****  * @addtogroup GPIO
  71:C:/Workspaces/DAVE-4.4.2-64Bit/_PKDS_TSTS06_811_X47_V1_0/Libraries/XMCLib/inc\xmc_gpio.h ****  * @brief General Purpose Input Output (GPIO) driver for the XMC microcontroller family.
  72:C:/Workspaces/DAVE-4.4.2-64Bit/_PKDS_TSTS06_811_X47_V1_0/Libraries/XMCLib/inc\xmc_gpio.h ****  *
  73:C:/Workspaces/DAVE-4.4.2-64Bit/_PKDS_TSTS06_811_X47_V1_0/Libraries/XMCLib/inc\xmc_gpio.h ****  * GPIO driver provide a generic and very flexible software interface for all standard digital I/O 
  74:C:/Workspaces/DAVE-4.4.2-64Bit/_PKDS_TSTS06_811_X47_V1_0/Libraries/XMCLib/inc\xmc_gpio.h ****  * Each port slice has individual interfaces for the operation as General Purpose I/O and it furthe
  75:C:/Workspaces/DAVE-4.4.2-64Bit/_PKDS_TSTS06_811_X47_V1_0/Libraries/XMCLib/inc\xmc_gpio.h ****  * connectivity to the on-chip periphery and the control for the pad characteristics.
  76:C:/Workspaces/DAVE-4.4.2-64Bit/_PKDS_TSTS06_811_X47_V1_0/Libraries/XMCLib/inc\xmc_gpio.h ****  *
  77:C:/Workspaces/DAVE-4.4.2-64Bit/_PKDS_TSTS06_811_X47_V1_0/Libraries/XMCLib/inc\xmc_gpio.h ****  * The driver is divided into Input and Output mode.
  78:C:/Workspaces/DAVE-4.4.2-64Bit/_PKDS_TSTS06_811_X47_V1_0/Libraries/XMCLib/inc\xmc_gpio.h ****  *
  79:C:/Workspaces/DAVE-4.4.2-64Bit/_PKDS_TSTS06_811_X47_V1_0/Libraries/XMCLib/inc\xmc_gpio.h ****  * Input mode features:
  80:C:/Workspaces/DAVE-4.4.2-64Bit/_PKDS_TSTS06_811_X47_V1_0/Libraries/XMCLib/inc\xmc_gpio.h ****  * -# Configuration structure XMC_GPIO_CONFIG_t and initialization function XMC_GPIO_Init()
  81:C:/Workspaces/DAVE-4.4.2-64Bit/_PKDS_TSTS06_811_X47_V1_0/Libraries/XMCLib/inc\xmc_gpio.h ****  * -# Allows the selection of weak pull-up or pull-down device. Configuration structure XMC_GPIO_MO
  82:C:/Workspaces/DAVE-4.4.2-64Bit/_PKDS_TSTS06_811_X47_V1_0/Libraries/XMCLib/inc\xmc_gpio.h ****  * \if XMC1
  83:C:/Workspaces/DAVE-4.4.2-64Bit/_PKDS_TSTS06_811_X47_V1_0/Libraries/XMCLib/inc\xmc_gpio.h ****  * -# Allows the selection of input hysteresis. XMC_GPIO_SetInputHysteresis()
  84:C:/Workspaces/DAVE-4.4.2-64Bit/_PKDS_TSTS06_811_X47_V1_0/Libraries/XMCLib/inc\xmc_gpio.h ****  * \endif
  85:C:/Workspaces/DAVE-4.4.2-64Bit/_PKDS_TSTS06_811_X47_V1_0/Libraries/XMCLib/inc\xmc_gpio.h ****  *
  86:C:/Workspaces/DAVE-4.4.2-64Bit/_PKDS_TSTS06_811_X47_V1_0/Libraries/XMCLib/inc\xmc_gpio.h ****  *
  87:C:/Workspaces/DAVE-4.4.2-64Bit/_PKDS_TSTS06_811_X47_V1_0/Libraries/XMCLib/inc\xmc_gpio.h ****  * Output mode features:
  88:C:/Workspaces/DAVE-4.4.2-64Bit/_PKDS_TSTS06_811_X47_V1_0/Libraries/XMCLib/inc\xmc_gpio.h ****  * -# Allows the selection of push pull/open drain and Alternate output. Configuration structure XM
  89:C:/Workspaces/DAVE-4.4.2-64Bit/_PKDS_TSTS06_811_X47_V1_0/Libraries/XMCLib/inc\xmc_gpio.h ****  * \if XMC4
  90:C:/Workspaces/DAVE-4.4.2-64Bit/_PKDS_TSTS06_811_X47_V1_0/Libraries/XMCLib/inc\xmc_gpio.h ****  * -# Allows the selection of pad driver strength. Configuration structure XMC_GPIO_OUTPUT_STRENGTH
  91:C:/Workspaces/DAVE-4.4.2-64Bit/_PKDS_TSTS06_811_X47_V1_0/Libraries/XMCLib/inc\xmc_gpio.h ****  * \endif
  92:C:/Workspaces/DAVE-4.4.2-64Bit/_PKDS_TSTS06_811_X47_V1_0/Libraries/XMCLib/inc\xmc_gpio.h ****  *
  93:C:/Workspaces/DAVE-4.4.2-64Bit/_PKDS_TSTS06_811_X47_V1_0/Libraries/XMCLib/inc\xmc_gpio.h ****  * -# Allows the selection of initial output level. Configuration structure XMC_GPIO_OUTPUT_LEVEL_t
  94:C:/Workspaces/DAVE-4.4.2-64Bit/_PKDS_TSTS06_811_X47_V1_0/Libraries/XMCLib/inc\xmc_gpio.h ****  *
  95:C:/Workspaces/DAVE-4.4.2-64Bit/_PKDS_TSTS06_811_X47_V1_0/Libraries/XMCLib/inc\xmc_gpio.h ****  *@{
  96:C:/Workspaces/DAVE-4.4.2-64Bit/_PKDS_TSTS06_811_X47_V1_0/Libraries/XMCLib/inc\xmc_gpio.h ****  */
  97:C:/Workspaces/DAVE-4.4.2-64Bit/_PKDS_TSTS06_811_X47_V1_0/Libraries/XMCLib/inc\xmc_gpio.h **** 
  98:C:/Workspaces/DAVE-4.4.2-64Bit/_PKDS_TSTS06_811_X47_V1_0/Libraries/XMCLib/inc\xmc_gpio.h **** /**************************************************************************************************
  99:C:/Workspaces/DAVE-4.4.2-64Bit/_PKDS_TSTS06_811_X47_V1_0/Libraries/XMCLib/inc\xmc_gpio.h ****  * MACROS
 100:C:/Workspaces/DAVE-4.4.2-64Bit/_PKDS_TSTS06_811_X47_V1_0/Libraries/XMCLib/inc\xmc_gpio.h ****  **************************************************************************************************
 101:C:/Workspaces/DAVE-4.4.2-64Bit/_PKDS_TSTS06_811_X47_V1_0/Libraries/XMCLib/inc\xmc_gpio.h **** 
 102:C:/Workspaces/DAVE-4.4.2-64Bit/_PKDS_TSTS06_811_X47_V1_0/Libraries/XMCLib/inc\xmc_gpio.h **** #define PORT_IOCR_PC_Pos PORT0_IOCR0_PC0_Pos
 103:C:/Workspaces/DAVE-4.4.2-64Bit/_PKDS_TSTS06_811_X47_V1_0/Libraries/XMCLib/inc\xmc_gpio.h **** #define PORT_IOCR_PC_Msk PORT0_IOCR0_PC0_Msk
 104:C:/Workspaces/DAVE-4.4.2-64Bit/_PKDS_TSTS06_811_X47_V1_0/Libraries/XMCLib/inc\xmc_gpio.h **** 
 105:C:/Workspaces/DAVE-4.4.2-64Bit/_PKDS_TSTS06_811_X47_V1_0/Libraries/XMCLib/inc\xmc_gpio.h **** #define PORT_IOCR_PC_Size 				(8U)
 106:C:/Workspaces/DAVE-4.4.2-64Bit/_PKDS_TSTS06_811_X47_V1_0/Libraries/XMCLib/inc\xmc_gpio.h **** 
 107:C:/Workspaces/DAVE-4.4.2-64Bit/_PKDS_TSTS06_811_X47_V1_0/Libraries/XMCLib/inc\xmc_gpio.h **** 
 108:C:/Workspaces/DAVE-4.4.2-64Bit/_PKDS_TSTS06_811_X47_V1_0/Libraries/XMCLib/inc\xmc_gpio.h **** #define XMC_GPIO_CHECK_OUTPUT_LEVEL(level) ((level == XMC_GPIO_OUTPUT_LEVEL_LOW) || \
 109:C:/Workspaces/DAVE-4.4.2-64Bit/_PKDS_TSTS06_811_X47_V1_0/Libraries/XMCLib/inc\xmc_gpio.h ****                                             (level == XMC_GPIO_OUTPUT_LEVEL_HIGH))
 110:C:/Workspaces/DAVE-4.4.2-64Bit/_PKDS_TSTS06_811_X47_V1_0/Libraries/XMCLib/inc\xmc_gpio.h **** 
 111:C:/Workspaces/DAVE-4.4.2-64Bit/_PKDS_TSTS06_811_X47_V1_0/Libraries/XMCLib/inc\xmc_gpio.h **** #define XMC_GPIO_CHECK_HWCTRL(hwctrl) ((hwctrl == XMC_GPIO_HWCTRL_DISABLED) || \
 112:C:/Workspaces/DAVE-4.4.2-64Bit/_PKDS_TSTS06_811_X47_V1_0/Libraries/XMCLib/inc\xmc_gpio.h ****                                        (hwctrl == XMC_GPIO_HWCTRL_PERIPHERAL1) || \
 113:C:/Workspaces/DAVE-4.4.2-64Bit/_PKDS_TSTS06_811_X47_V1_0/Libraries/XMCLib/inc\xmc_gpio.h ****                                        (hwctrl == XMC_GPIO_HWCTRL_PERIPHERAL2))
 114:C:/Workspaces/DAVE-4.4.2-64Bit/_PKDS_TSTS06_811_X47_V1_0/Libraries/XMCLib/inc\xmc_gpio.h **** 
 115:C:/Workspaces/DAVE-4.4.2-64Bit/_PKDS_TSTS06_811_X47_V1_0/Libraries/XMCLib/inc\xmc_gpio.h **** /**************************************************************************************************
 116:C:/Workspaces/DAVE-4.4.2-64Bit/_PKDS_TSTS06_811_X47_V1_0/Libraries/XMCLib/inc\xmc_gpio.h ****  * ENUMS
 117:C:/Workspaces/DAVE-4.4.2-64Bit/_PKDS_TSTS06_811_X47_V1_0/Libraries/XMCLib/inc\xmc_gpio.h ****  **************************************************************************************************
 118:C:/Workspaces/DAVE-4.4.2-64Bit/_PKDS_TSTS06_811_X47_V1_0/Libraries/XMCLib/inc\xmc_gpio.h **** 
 119:C:/Workspaces/DAVE-4.4.2-64Bit/_PKDS_TSTS06_811_X47_V1_0/Libraries/XMCLib/inc\xmc_gpio.h **** 
 120:C:/Workspaces/DAVE-4.4.2-64Bit/_PKDS_TSTS06_811_X47_V1_0/Libraries/XMCLib/inc\xmc_gpio.h **** /**
 121:C:/Workspaces/DAVE-4.4.2-64Bit/_PKDS_TSTS06_811_X47_V1_0/Libraries/XMCLib/inc\xmc_gpio.h ****  * Defines output level of a pin. Use type \a XMC_GPIO_OUTPUT_LEVEL_t for this enum.
 122:C:/Workspaces/DAVE-4.4.2-64Bit/_PKDS_TSTS06_811_X47_V1_0/Libraries/XMCLib/inc\xmc_gpio.h ****  */
 123:C:/Workspaces/DAVE-4.4.2-64Bit/_PKDS_TSTS06_811_X47_V1_0/Libraries/XMCLib/inc\xmc_gpio.h **** typedef enum XMC_GPIO_OUTPUT_LEVEL
 124:C:/Workspaces/DAVE-4.4.2-64Bit/_PKDS_TSTS06_811_X47_V1_0/Libraries/XMCLib/inc\xmc_gpio.h **** {
 125:C:/Workspaces/DAVE-4.4.2-64Bit/_PKDS_TSTS06_811_X47_V1_0/Libraries/XMCLib/inc\xmc_gpio.h ****   XMC_GPIO_OUTPUT_LEVEL_LOW  = 0x10000U, /**<  Reset bit */
 126:C:/Workspaces/DAVE-4.4.2-64Bit/_PKDS_TSTS06_811_X47_V1_0/Libraries/XMCLib/inc\xmc_gpio.h ****   XMC_GPIO_OUTPUT_LEVEL_HIGH = 0x1U, 	/**< Set bit  */
 127:C:/Workspaces/DAVE-4.4.2-64Bit/_PKDS_TSTS06_811_X47_V1_0/Libraries/XMCLib/inc\xmc_gpio.h **** } XMC_GPIO_OUTPUT_LEVEL_t;
 128:C:/Workspaces/DAVE-4.4.2-64Bit/_PKDS_TSTS06_811_X47_V1_0/Libraries/XMCLib/inc\xmc_gpio.h **** 
 129:C:/Workspaces/DAVE-4.4.2-64Bit/_PKDS_TSTS06_811_X47_V1_0/Libraries/XMCLib/inc\xmc_gpio.h **** /**
 130:C:/Workspaces/DAVE-4.4.2-64Bit/_PKDS_TSTS06_811_X47_V1_0/Libraries/XMCLib/inc\xmc_gpio.h ****  * Defines direct hardware control characteristics of the pin . Use type \a XMC_GPIO_HWCTRL_t for t
 131:C:/Workspaces/DAVE-4.4.2-64Bit/_PKDS_TSTS06_811_X47_V1_0/Libraries/XMCLib/inc\xmc_gpio.h ****  */
 132:C:/Workspaces/DAVE-4.4.2-64Bit/_PKDS_TSTS06_811_X47_V1_0/Libraries/XMCLib/inc\xmc_gpio.h **** typedef enum XMC_GPIO_HWCTRL
 133:C:/Workspaces/DAVE-4.4.2-64Bit/_PKDS_TSTS06_811_X47_V1_0/Libraries/XMCLib/inc\xmc_gpio.h **** {
 134:C:/Workspaces/DAVE-4.4.2-64Bit/_PKDS_TSTS06_811_X47_V1_0/Libraries/XMCLib/inc\xmc_gpio.h ****   XMC_GPIO_HWCTRL_DISABLED     = 0x0U, /**<  Software control only */
 135:C:/Workspaces/DAVE-4.4.2-64Bit/_PKDS_TSTS06_811_X47_V1_0/Libraries/XMCLib/inc\xmc_gpio.h ****   XMC_GPIO_HWCTRL_PERIPHERAL1  = 0x1U, /**<  HWI0/HWO0 control path can override the software confi
 136:C:/Workspaces/DAVE-4.4.2-64Bit/_PKDS_TSTS06_811_X47_V1_0/Libraries/XMCLib/inc\xmc_gpio.h ****   XMC_GPIO_HWCTRL_PERIPHERAL2  = 0x2U  /**<  HWI1/HWO1 control path can override the software confi
 137:C:/Workspaces/DAVE-4.4.2-64Bit/_PKDS_TSTS06_811_X47_V1_0/Libraries/XMCLib/inc\xmc_gpio.h **** } XMC_GPIO_HWCTRL_t;
 138:C:/Workspaces/DAVE-4.4.2-64Bit/_PKDS_TSTS06_811_X47_V1_0/Libraries/XMCLib/inc\xmc_gpio.h **** 
 139:C:/Workspaces/DAVE-4.4.2-64Bit/_PKDS_TSTS06_811_X47_V1_0/Libraries/XMCLib/inc\xmc_gpio.h **** /**************************************************************************************************
 140:C:/Workspaces/DAVE-4.4.2-64Bit/_PKDS_TSTS06_811_X47_V1_0/Libraries/XMCLib/inc\xmc_gpio.h ****  * DEVICE FAMILY EXTENSIONS
 141:C:/Workspaces/DAVE-4.4.2-64Bit/_PKDS_TSTS06_811_X47_V1_0/Libraries/XMCLib/inc\xmc_gpio.h ****  **************************************************************************************************
 142:C:/Workspaces/DAVE-4.4.2-64Bit/_PKDS_TSTS06_811_X47_V1_0/Libraries/XMCLib/inc\xmc_gpio.h **** 
 143:C:/Workspaces/DAVE-4.4.2-64Bit/_PKDS_TSTS06_811_X47_V1_0/Libraries/XMCLib/inc\xmc_gpio.h **** #if UC_FAMILY == XMC1
 144:C:/Workspaces/DAVE-4.4.2-64Bit/_PKDS_TSTS06_811_X47_V1_0/Libraries/XMCLib/inc\xmc_gpio.h **** #include "xmc1_gpio.h"
 145:C:/Workspaces/DAVE-4.4.2-64Bit/_PKDS_TSTS06_811_X47_V1_0/Libraries/XMCLib/inc\xmc_gpio.h **** #elif UC_FAMILY == XMC4
 146:C:/Workspaces/DAVE-4.4.2-64Bit/_PKDS_TSTS06_811_X47_V1_0/Libraries/XMCLib/inc\xmc_gpio.h **** #include "xmc4_gpio.h"
 147:C:/Workspaces/DAVE-4.4.2-64Bit/_PKDS_TSTS06_811_X47_V1_0/Libraries/XMCLib/inc\xmc_gpio.h **** #else
 148:C:/Workspaces/DAVE-4.4.2-64Bit/_PKDS_TSTS06_811_X47_V1_0/Libraries/XMCLib/inc\xmc_gpio.h **** #error "xmc_gpio.h: family device not supported"
 149:C:/Workspaces/DAVE-4.4.2-64Bit/_PKDS_TSTS06_811_X47_V1_0/Libraries/XMCLib/inc\xmc_gpio.h **** #endif
 150:C:/Workspaces/DAVE-4.4.2-64Bit/_PKDS_TSTS06_811_X47_V1_0/Libraries/XMCLib/inc\xmc_gpio.h **** 
 151:C:/Workspaces/DAVE-4.4.2-64Bit/_PKDS_TSTS06_811_X47_V1_0/Libraries/XMCLib/inc\xmc_gpio.h **** /**************************************************************************************************
 152:C:/Workspaces/DAVE-4.4.2-64Bit/_PKDS_TSTS06_811_X47_V1_0/Libraries/XMCLib/inc\xmc_gpio.h ****  * API PROTOTYPES
 153:C:/Workspaces/DAVE-4.4.2-64Bit/_PKDS_TSTS06_811_X47_V1_0/Libraries/XMCLib/inc\xmc_gpio.h ****  **************************************************************************************************
 154:C:/Workspaces/DAVE-4.4.2-64Bit/_PKDS_TSTS06_811_X47_V1_0/Libraries/XMCLib/inc\xmc_gpio.h **** 
 155:C:/Workspaces/DAVE-4.4.2-64Bit/_PKDS_TSTS06_811_X47_V1_0/Libraries/XMCLib/inc\xmc_gpio.h **** #ifdef __cplusplus
 156:C:/Workspaces/DAVE-4.4.2-64Bit/_PKDS_TSTS06_811_X47_V1_0/Libraries/XMCLib/inc\xmc_gpio.h **** extern "C" {
 157:C:/Workspaces/DAVE-4.4.2-64Bit/_PKDS_TSTS06_811_X47_V1_0/Libraries/XMCLib/inc\xmc_gpio.h **** #endif
 158:C:/Workspaces/DAVE-4.4.2-64Bit/_PKDS_TSTS06_811_X47_V1_0/Libraries/XMCLib/inc\xmc_gpio.h **** 
 159:C:/Workspaces/DAVE-4.4.2-64Bit/_PKDS_TSTS06_811_X47_V1_0/Libraries/XMCLib/inc\xmc_gpio.h **** 
 160:C:/Workspaces/DAVE-4.4.2-64Bit/_PKDS_TSTS06_811_X47_V1_0/Libraries/XMCLib/inc\xmc_gpio.h **** /**
 161:C:/Workspaces/DAVE-4.4.2-64Bit/_PKDS_TSTS06_811_X47_V1_0/Libraries/XMCLib/inc\xmc_gpio.h ****  * @param  port	  Constant pointer pointing to GPIO port, to access port registers like Pn_OUT,Pn_O
 162:C:/Workspaces/DAVE-4.4.2-64Bit/_PKDS_TSTS06_811_X47_V1_0/Libraries/XMCLib/inc\xmc_gpio.h ****  * @param  pin	  Port pin number.
 163:C:/Workspaces/DAVE-4.4.2-64Bit/_PKDS_TSTS06_811_X47_V1_0/Libraries/XMCLib/inc\xmc_gpio.h ****  * @param  config GPIO configuration data structure. Refer data structure @ref XMC_GPIO_CONFIG_t fo
 164:C:/Workspaces/DAVE-4.4.2-64Bit/_PKDS_TSTS06_811_X47_V1_0/Libraries/XMCLib/inc\xmc_gpio.h ****  *
 165:C:/Workspaces/DAVE-4.4.2-64Bit/_PKDS_TSTS06_811_X47_V1_0/Libraries/XMCLib/inc\xmc_gpio.h ****  * @return None
 166:C:/Workspaces/DAVE-4.4.2-64Bit/_PKDS_TSTS06_811_X47_V1_0/Libraries/XMCLib/inc\xmc_gpio.h ****  *
 167:C:/Workspaces/DAVE-4.4.2-64Bit/_PKDS_TSTS06_811_X47_V1_0/Libraries/XMCLib/inc\xmc_gpio.h ****  * \par<b>Description:</b><br>
 168:C:/Workspaces/DAVE-4.4.2-64Bit/_PKDS_TSTS06_811_X47_V1_0/Libraries/XMCLib/inc\xmc_gpio.h ****  * \if XMC1
 169:C:/Workspaces/DAVE-4.4.2-64Bit/_PKDS_TSTS06_811_X47_V1_0/Libraries/XMCLib/inc\xmc_gpio.h ****  * Initializes input / output mode settings like, pull up / pull down devices,hysteresis, push pull
 170:C:/Workspaces/DAVE-4.4.2-64Bit/_PKDS_TSTS06_811_X47_V1_0/Libraries/XMCLib/inc\xmc_gpio.h ****  * Also configures alternate function outputs and clears hardware port control for a selected \a po
 171:C:/Workspaces/DAVE-4.4.2-64Bit/_PKDS_TSTS06_811_X47_V1_0/Libraries/XMCLib/inc\xmc_gpio.h ****  * \a config provides selected I/O settings. It configures hardware registers Pn_IOCR,Pn_OUT, Pn_OM
 172:C:/Workspaces/DAVE-4.4.2-64Bit/_PKDS_TSTS06_811_X47_V1_0/Libraries/XMCLib/inc\xmc_gpio.h ****  * \endif
 173:C:/Workspaces/DAVE-4.4.2-64Bit/_PKDS_TSTS06_811_X47_V1_0/Libraries/XMCLib/inc\xmc_gpio.h ****  * \if XMC4
 174:C:/Workspaces/DAVE-4.4.2-64Bit/_PKDS_TSTS06_811_X47_V1_0/Libraries/XMCLib/inc\xmc_gpio.h ****  * Initializes input / output mode settings like, pull up / pull down devices,push pull /open drain
 175:C:/Workspaces/DAVE-4.4.2-64Bit/_PKDS_TSTS06_811_X47_V1_0/Libraries/XMCLib/inc\xmc_gpio.h ****  * Also configures alternate function outputs and clears hardware port control for selected \a port
 176:C:/Workspaces/DAVE-4.4.2-64Bit/_PKDS_TSTS06_811_X47_V1_0/Libraries/XMCLib/inc\xmc_gpio.h ****  * It configures hardware registers Pn_IOCR,Pn_OUT,Pn_OMR,Pn_PDISC and Pn_PDR.\n
 177:C:/Workspaces/DAVE-4.4.2-64Bit/_PKDS_TSTS06_811_X47_V1_0/Libraries/XMCLib/inc\xmc_gpio.h ****  * \endif
 178:C:/Workspaces/DAVE-4.4.2-64Bit/_PKDS_TSTS06_811_X47_V1_0/Libraries/XMCLib/inc\xmc_gpio.h ****  *
 179:C:/Workspaces/DAVE-4.4.2-64Bit/_PKDS_TSTS06_811_X47_V1_0/Libraries/XMCLib/inc\xmc_gpio.h ****  * \par<b>Related APIs:</b><BR>
 180:C:/Workspaces/DAVE-4.4.2-64Bit/_PKDS_TSTS06_811_X47_V1_0/Libraries/XMCLib/inc\xmc_gpio.h ****  *  None
 181:C:/Workspaces/DAVE-4.4.2-64Bit/_PKDS_TSTS06_811_X47_V1_0/Libraries/XMCLib/inc\xmc_gpio.h ****  *
 182:C:/Workspaces/DAVE-4.4.2-64Bit/_PKDS_TSTS06_811_X47_V1_0/Libraries/XMCLib/inc\xmc_gpio.h ****  * \par<b>Note:</b><br>
 183:C:/Workspaces/DAVE-4.4.2-64Bit/_PKDS_TSTS06_811_X47_V1_0/Libraries/XMCLib/inc\xmc_gpio.h ****  * This API is called in definition of DAVE_init by code generation and therefore should not be exp
 184:C:/Workspaces/DAVE-4.4.2-64Bit/_PKDS_TSTS06_811_X47_V1_0/Libraries/XMCLib/inc\xmc_gpio.h ****  * for the normal operation. Use other APIs only after DAVE_init is called successfully (returns DA
 185:C:/Workspaces/DAVE-4.4.2-64Bit/_PKDS_TSTS06_811_X47_V1_0/Libraries/XMCLib/inc\xmc_gpio.h ****  *
 186:C:/Workspaces/DAVE-4.4.2-64Bit/_PKDS_TSTS06_811_X47_V1_0/Libraries/XMCLib/inc\xmc_gpio.h ****  *
 187:C:/Workspaces/DAVE-4.4.2-64Bit/_PKDS_TSTS06_811_X47_V1_0/Libraries/XMCLib/inc\xmc_gpio.h ****  */
 188:C:/Workspaces/DAVE-4.4.2-64Bit/_PKDS_TSTS06_811_X47_V1_0/Libraries/XMCLib/inc\xmc_gpio.h **** 
 189:C:/Workspaces/DAVE-4.4.2-64Bit/_PKDS_TSTS06_811_X47_V1_0/Libraries/XMCLib/inc\xmc_gpio.h **** 
 190:C:/Workspaces/DAVE-4.4.2-64Bit/_PKDS_TSTS06_811_X47_V1_0/Libraries/XMCLib/inc\xmc_gpio.h **** void XMC_GPIO_Init(XMC_GPIO_PORT_t *const port, const uint8_t pin, const XMC_GPIO_CONFIG_t *const c
 191:C:/Workspaces/DAVE-4.4.2-64Bit/_PKDS_TSTS06_811_X47_V1_0/Libraries/XMCLib/inc\xmc_gpio.h **** 
 192:C:/Workspaces/DAVE-4.4.2-64Bit/_PKDS_TSTS06_811_X47_V1_0/Libraries/XMCLib/inc\xmc_gpio.h **** /**
 193:C:/Workspaces/DAVE-4.4.2-64Bit/_PKDS_TSTS06_811_X47_V1_0/Libraries/XMCLib/inc\xmc_gpio.h ****  *
 194:C:/Workspaces/DAVE-4.4.2-64Bit/_PKDS_TSTS06_811_X47_V1_0/Libraries/XMCLib/inc\xmc_gpio.h ****  * @param  port	Constant pointer pointing to GPIO port, to access hardware register Pn_IOCR.
 195:C:/Workspaces/DAVE-4.4.2-64Bit/_PKDS_TSTS06_811_X47_V1_0/Libraries/XMCLib/inc\xmc_gpio.h ****  * @param  pin	Port pin number.
 196:C:/Workspaces/DAVE-4.4.2-64Bit/_PKDS_TSTS06_811_X47_V1_0/Libraries/XMCLib/inc\xmc_gpio.h ****  * @param  mode input / output functionality selection. Refer @ref XMC_GPIO_MODE_t for valid values
 197:C:/Workspaces/DAVE-4.4.2-64Bit/_PKDS_TSTS06_811_X47_V1_0/Libraries/XMCLib/inc\xmc_gpio.h ****  *
 198:C:/Workspaces/DAVE-4.4.2-64Bit/_PKDS_TSTS06_811_X47_V1_0/Libraries/XMCLib/inc\xmc_gpio.h ****  * @return None
 199:C:/Workspaces/DAVE-4.4.2-64Bit/_PKDS_TSTS06_811_X47_V1_0/Libraries/XMCLib/inc\xmc_gpio.h ****  *
 200:C:/Workspaces/DAVE-4.4.2-64Bit/_PKDS_TSTS06_811_X47_V1_0/Libraries/XMCLib/inc\xmc_gpio.h ****  * \par<b>Description:</b><br>
 201:C:/Workspaces/DAVE-4.4.2-64Bit/_PKDS_TSTS06_811_X47_V1_0/Libraries/XMCLib/inc\xmc_gpio.h ****  * Sets digital input and output driver functionality and characteristics of a GPIO port pin. It co
 202:C:/Workspaces/DAVE-4.4.2-64Bit/_PKDS_TSTS06_811_X47_V1_0/Libraries/XMCLib/inc\xmc_gpio.h ****  * registers Pn_IOCR. \a mode is initially configured during initialization in XMC_GPIO_Init(). Cal
 203:C:/Workspaces/DAVE-4.4.2-64Bit/_PKDS_TSTS06_811_X47_V1_0/Libraries/XMCLib/inc\xmc_gpio.h ****  * the port direction functionality as needed later in the program.
 204:C:/Workspaces/DAVE-4.4.2-64Bit/_PKDS_TSTS06_811_X47_V1_0/Libraries/XMCLib/inc\xmc_gpio.h ****  *
 205:C:/Workspaces/DAVE-4.4.2-64Bit/_PKDS_TSTS06_811_X47_V1_0/Libraries/XMCLib/inc\xmc_gpio.h ****  * \par<b>Related APIs:</b><BR>
 206:C:/Workspaces/DAVE-4.4.2-64Bit/_PKDS_TSTS06_811_X47_V1_0/Libraries/XMCLib/inc\xmc_gpio.h ****  *  None
 207:C:/Workspaces/DAVE-4.4.2-64Bit/_PKDS_TSTS06_811_X47_V1_0/Libraries/XMCLib/inc\xmc_gpio.h ****  *
 208:C:/Workspaces/DAVE-4.4.2-64Bit/_PKDS_TSTS06_811_X47_V1_0/Libraries/XMCLib/inc\xmc_gpio.h ****  */
 209:C:/Workspaces/DAVE-4.4.2-64Bit/_PKDS_TSTS06_811_X47_V1_0/Libraries/XMCLib/inc\xmc_gpio.h **** 
 210:C:/Workspaces/DAVE-4.4.2-64Bit/_PKDS_TSTS06_811_X47_V1_0/Libraries/XMCLib/inc\xmc_gpio.h **** void XMC_GPIO_SetMode(XMC_GPIO_PORT_t *const port, const uint8_t pin, const XMC_GPIO_MODE_t mode);
 211:C:/Workspaces/DAVE-4.4.2-64Bit/_PKDS_TSTS06_811_X47_V1_0/Libraries/XMCLib/inc\xmc_gpio.h **** 
 212:C:/Workspaces/DAVE-4.4.2-64Bit/_PKDS_TSTS06_811_X47_V1_0/Libraries/XMCLib/inc\xmc_gpio.h **** 
 213:C:/Workspaces/DAVE-4.4.2-64Bit/_PKDS_TSTS06_811_X47_V1_0/Libraries/XMCLib/inc\xmc_gpio.h **** /**
 214:C:/Workspaces/DAVE-4.4.2-64Bit/_PKDS_TSTS06_811_X47_V1_0/Libraries/XMCLib/inc\xmc_gpio.h ****  *
 215:C:/Workspaces/DAVE-4.4.2-64Bit/_PKDS_TSTS06_811_X47_V1_0/Libraries/XMCLib/inc\xmc_gpio.h ****  * @param  port	 Constant pointer pointing to GPIO port, to access hardware register Pn_OMR.
 216:C:/Workspaces/DAVE-4.4.2-64Bit/_PKDS_TSTS06_811_X47_V1_0/Libraries/XMCLib/inc\xmc_gpio.h ****  * @param  pin	 Port pin number.
 217:C:/Workspaces/DAVE-4.4.2-64Bit/_PKDS_TSTS06_811_X47_V1_0/Libraries/XMCLib/inc\xmc_gpio.h ****  * @param  level output level selection. Refer @ref XMC_GPIO_OUTPUT_LEVEL_t for valid values.
 218:C:/Workspaces/DAVE-4.4.2-64Bit/_PKDS_TSTS06_811_X47_V1_0/Libraries/XMCLib/inc\xmc_gpio.h ****  *
 219:C:/Workspaces/DAVE-4.4.2-64Bit/_PKDS_TSTS06_811_X47_V1_0/Libraries/XMCLib/inc\xmc_gpio.h ****  * @return None
 220:C:/Workspaces/DAVE-4.4.2-64Bit/_PKDS_TSTS06_811_X47_V1_0/Libraries/XMCLib/inc\xmc_gpio.h ****  *
 221:C:/Workspaces/DAVE-4.4.2-64Bit/_PKDS_TSTS06_811_X47_V1_0/Libraries/XMCLib/inc\xmc_gpio.h ****  * \par<b>Description:</b><br>
 222:C:/Workspaces/DAVE-4.4.2-64Bit/_PKDS_TSTS06_811_X47_V1_0/Libraries/XMCLib/inc\xmc_gpio.h ****  * Set port pin output level to high or low.It configures hardware registers Pn_OMR.\a level is ini
 223:C:/Workspaces/DAVE-4.4.2-64Bit/_PKDS_TSTS06_811_X47_V1_0/Libraries/XMCLib/inc\xmc_gpio.h ****  * configured during initialization in XMC_GPIO_Init(). Call this API to alter output level as need
 224:C:/Workspaces/DAVE-4.4.2-64Bit/_PKDS_TSTS06_811_X47_V1_0/Libraries/XMCLib/inc\xmc_gpio.h ****  *
 225:C:/Workspaces/DAVE-4.4.2-64Bit/_PKDS_TSTS06_811_X47_V1_0/Libraries/XMCLib/inc\xmc_gpio.h ****  * \par<b>Related APIs:</b><BR>
 226:C:/Workspaces/DAVE-4.4.2-64Bit/_PKDS_TSTS06_811_X47_V1_0/Libraries/XMCLib/inc\xmc_gpio.h ****  *  XMC_GPIO_SetOutputHigh(), XMC_GPIO_SetOutputLow().
 227:C:/Workspaces/DAVE-4.4.2-64Bit/_PKDS_TSTS06_811_X47_V1_0/Libraries/XMCLib/inc\xmc_gpio.h ****  *
 228:C:/Workspaces/DAVE-4.4.2-64Bit/_PKDS_TSTS06_811_X47_V1_0/Libraries/XMCLib/inc\xmc_gpio.h ****  * \par<b>Note:</b><br>
 229:C:/Workspaces/DAVE-4.4.2-64Bit/_PKDS_TSTS06_811_X47_V1_0/Libraries/XMCLib/inc\xmc_gpio.h ****  * Prior to this api, user has to configure port pin to output mode using XMC_GPIO_SetMode().
 230:C:/Workspaces/DAVE-4.4.2-64Bit/_PKDS_TSTS06_811_X47_V1_0/Libraries/XMCLib/inc\xmc_gpio.h ****  *
 231:C:/Workspaces/DAVE-4.4.2-64Bit/_PKDS_TSTS06_811_X47_V1_0/Libraries/XMCLib/inc\xmc_gpio.h ****  */
 232:C:/Workspaces/DAVE-4.4.2-64Bit/_PKDS_TSTS06_811_X47_V1_0/Libraries/XMCLib/inc\xmc_gpio.h **** 
 233:C:/Workspaces/DAVE-4.4.2-64Bit/_PKDS_TSTS06_811_X47_V1_0/Libraries/XMCLib/inc\xmc_gpio.h **** 
 234:C:/Workspaces/DAVE-4.4.2-64Bit/_PKDS_TSTS06_811_X47_V1_0/Libraries/XMCLib/inc\xmc_gpio.h **** __STATIC_INLINE void XMC_GPIO_SetOutputLevel(XMC_GPIO_PORT_t *const port, const uint8_t pin, const 
 235:C:/Workspaces/DAVE-4.4.2-64Bit/_PKDS_TSTS06_811_X47_V1_0/Libraries/XMCLib/inc\xmc_gpio.h **** {
 236:C:/Workspaces/DAVE-4.4.2-64Bit/_PKDS_TSTS06_811_X47_V1_0/Libraries/XMCLib/inc\xmc_gpio.h ****   XMC_ASSERT("XMC_GPIO_SetOutputLevel: Invalid port", XMC_GPIO_CHECK_OUTPUT_PORT(port));
 237:C:/Workspaces/DAVE-4.4.2-64Bit/_PKDS_TSTS06_811_X47_V1_0/Libraries/XMCLib/inc\xmc_gpio.h ****   XMC_ASSERT("XMC_GPIO_SetOutputLevel: Invalid output level", XMC_GPIO_CHECK_OUTPUT_LEVEL(level));
 238:C:/Workspaces/DAVE-4.4.2-64Bit/_PKDS_TSTS06_811_X47_V1_0/Libraries/XMCLib/inc\xmc_gpio.h **** 
 239:C:/Workspaces/DAVE-4.4.2-64Bit/_PKDS_TSTS06_811_X47_V1_0/Libraries/XMCLib/inc\xmc_gpio.h ****   port->OMR = (uint32_t)level << pin;
 240:C:/Workspaces/DAVE-4.4.2-64Bit/_PKDS_TSTS06_811_X47_V1_0/Libraries/XMCLib/inc\xmc_gpio.h **** }
 241:C:/Workspaces/DAVE-4.4.2-64Bit/_PKDS_TSTS06_811_X47_V1_0/Libraries/XMCLib/inc\xmc_gpio.h **** 
 242:C:/Workspaces/DAVE-4.4.2-64Bit/_PKDS_TSTS06_811_X47_V1_0/Libraries/XMCLib/inc\xmc_gpio.h **** 
 243:C:/Workspaces/DAVE-4.4.2-64Bit/_PKDS_TSTS06_811_X47_V1_0/Libraries/XMCLib/inc\xmc_gpio.h **** /**
 244:C:/Workspaces/DAVE-4.4.2-64Bit/_PKDS_TSTS06_811_X47_V1_0/Libraries/XMCLib/inc\xmc_gpio.h ****  * @param  port constant pointer pointing to GPIO port, to access hardware register Pn_OMR.
 245:C:/Workspaces/DAVE-4.4.2-64Bit/_PKDS_TSTS06_811_X47_V1_0/Libraries/XMCLib/inc\xmc_gpio.h ****  * @param  pin	Port pin number.
 246:C:/Workspaces/DAVE-4.4.2-64Bit/_PKDS_TSTS06_811_X47_V1_0/Libraries/XMCLib/inc\xmc_gpio.h ****  *
 247:C:/Workspaces/DAVE-4.4.2-64Bit/_PKDS_TSTS06_811_X47_V1_0/Libraries/XMCLib/inc\xmc_gpio.h ****  * @return None
 248:C:/Workspaces/DAVE-4.4.2-64Bit/_PKDS_TSTS06_811_X47_V1_0/Libraries/XMCLib/inc\xmc_gpio.h ****  *
 249:C:/Workspaces/DAVE-4.4.2-64Bit/_PKDS_TSTS06_811_X47_V1_0/Libraries/XMCLib/inc\xmc_gpio.h ****  * \par<b>Description:</b><br>
 250:C:/Workspaces/DAVE-4.4.2-64Bit/_PKDS_TSTS06_811_X47_V1_0/Libraries/XMCLib/inc\xmc_gpio.h ****  *  Sets port pin output to high. It configures hardware registers Pn_OMR.
 251:C:/Workspaces/DAVE-4.4.2-64Bit/_PKDS_TSTS06_811_X47_V1_0/Libraries/XMCLib/inc\xmc_gpio.h ****  *
 252:C:/Workspaces/DAVE-4.4.2-64Bit/_PKDS_TSTS06_811_X47_V1_0/Libraries/XMCLib/inc\xmc_gpio.h ****  *  \par<b>Related APIs:</b><BR>
 253:C:/Workspaces/DAVE-4.4.2-64Bit/_PKDS_TSTS06_811_X47_V1_0/Libraries/XMCLib/inc\xmc_gpio.h ****  *  XMC_GPIO_SetOutputLow()
 254:C:/Workspaces/DAVE-4.4.2-64Bit/_PKDS_TSTS06_811_X47_V1_0/Libraries/XMCLib/inc\xmc_gpio.h ****  *
 255:C:/Workspaces/DAVE-4.4.2-64Bit/_PKDS_TSTS06_811_X47_V1_0/Libraries/XMCLib/inc\xmc_gpio.h ****  * \par<b>Note:</b><br>
 256:C:/Workspaces/DAVE-4.4.2-64Bit/_PKDS_TSTS06_811_X47_V1_0/Libraries/XMCLib/inc\xmc_gpio.h ****  * Prior to this api, user has to configure port pin to output mode using XMC_GPIO_SetMode().\n
 257:C:/Workspaces/DAVE-4.4.2-64Bit/_PKDS_TSTS06_811_X47_V1_0/Libraries/XMCLib/inc\xmc_gpio.h ****  * Register Pn_OMR is virtual and does not contain any flip-flop. A read action delivers the value 
 258:C:/Workspaces/DAVE-4.4.2-64Bit/_PKDS_TSTS06_811_X47_V1_0/Libraries/XMCLib/inc\xmc_gpio.h ****  *
 259:C:/Workspaces/DAVE-4.4.2-64Bit/_PKDS_TSTS06_811_X47_V1_0/Libraries/XMCLib/inc\xmc_gpio.h ****  */
 260:C:/Workspaces/DAVE-4.4.2-64Bit/_PKDS_TSTS06_811_X47_V1_0/Libraries/XMCLib/inc\xmc_gpio.h **** 
 261:C:/Workspaces/DAVE-4.4.2-64Bit/_PKDS_TSTS06_811_X47_V1_0/Libraries/XMCLib/inc\xmc_gpio.h **** __STATIC_INLINE void XMC_GPIO_SetOutputHigh(XMC_GPIO_PORT_t *const port, const uint8_t pin)
 262:C:/Workspaces/DAVE-4.4.2-64Bit/_PKDS_TSTS06_811_X47_V1_0/Libraries/XMCLib/inc\xmc_gpio.h **** {
  27              	 .loc 1 262 1
  28              	 .cfi_startproc
  29              	 
  30              	 
  31              	 
  32 0000 80B4     	 push {r7}
  33              	.LCFI0:
  34              	 .cfi_def_cfa_offset 4
  35              	 .cfi_offset 7,-4
  36 0002 83B0     	 sub sp,sp,#12
  37              	.LCFI1:
  38              	 .cfi_def_cfa_offset 16
  39 0004 00AF     	 add r7,sp,#0
  40              	.LCFI2:
  41              	 .cfi_def_cfa_register 7
  42 0006 7860     	 str r0,[r7,#4]
  43 0008 0B46     	 mov r3,r1
  44 000a FB70     	 strb r3,[r7,#3]
 263:C:/Workspaces/DAVE-4.4.2-64Bit/_PKDS_TSTS06_811_X47_V1_0/Libraries/XMCLib/inc\xmc_gpio.h ****   XMC_ASSERT("XMC_GPIO_SetOutputHigh: Invalid port", XMC_GPIO_CHECK_OUTPUT_PORT(port));
 264:C:/Workspaces/DAVE-4.4.2-64Bit/_PKDS_TSTS06_811_X47_V1_0/Libraries/XMCLib/inc\xmc_gpio.h **** 
 265:C:/Workspaces/DAVE-4.4.2-64Bit/_PKDS_TSTS06_811_X47_V1_0/Libraries/XMCLib/inc\xmc_gpio.h ****   port->OMR = (uint32_t)0x1U << pin;
  45              	 .loc 1 265 30
  46 000c FB78     	 ldrb r3,[r7,#3]
  47 000e 0122     	 movs r2,#1
  48 0010 9A40     	 lsls r2,r2,r3
  49              	 .loc 1 265 13
  50 0012 7B68     	 ldr r3,[r7,#4]
  51 0014 5A60     	 str r2,[r3,#4]
 266:C:/Workspaces/DAVE-4.4.2-64Bit/_PKDS_TSTS06_811_X47_V1_0/Libraries/XMCLib/inc\xmc_gpio.h **** }
  52              	 .loc 1 266 1
  53 0016 00BF     	 nop
  54 0018 0C37     	 adds r7,r7,#12
  55              	.LCFI3:
  56              	 .cfi_def_cfa_offset 4
  57 001a BD46     	 mov sp,r7
  58              	.LCFI4:
  59              	 .cfi_def_cfa_register 13
  60              	 
  61 001c 5DF8047B 	 ldr r7,[sp],#4
  62              	.LCFI5:
  63              	 .cfi_restore 7
  64              	 .cfi_def_cfa_offset 0
  65 0020 7047     	 bx lr
  66              	 .cfi_endproc
  67              	.LFE135:
  69              	 .section .text.XMC_GPIO_SetOutputLow,"ax",%progbits
  70              	 .align 1
  71              	 .syntax unified
  72              	 .thumb
  73              	 .thumb_func
  74              	 .fpu fpv4-sp-d16
  76              	XMC_GPIO_SetOutputLow:
  77              	.LFB136:
 267:C:/Workspaces/DAVE-4.4.2-64Bit/_PKDS_TSTS06_811_X47_V1_0/Libraries/XMCLib/inc\xmc_gpio.h **** 
 268:C:/Workspaces/DAVE-4.4.2-64Bit/_PKDS_TSTS06_811_X47_V1_0/Libraries/XMCLib/inc\xmc_gpio.h **** /**
 269:C:/Workspaces/DAVE-4.4.2-64Bit/_PKDS_TSTS06_811_X47_V1_0/Libraries/XMCLib/inc\xmc_gpio.h ****  *
 270:C:/Workspaces/DAVE-4.4.2-64Bit/_PKDS_TSTS06_811_X47_V1_0/Libraries/XMCLib/inc\xmc_gpio.h ****  * @param  port	constant pointer pointing to GPIO port, to access hardware register Pn_OMR.
 271:C:/Workspaces/DAVE-4.4.2-64Bit/_PKDS_TSTS06_811_X47_V1_0/Libraries/XMCLib/inc\xmc_gpio.h ****  * @param  pin	port pin number.
 272:C:/Workspaces/DAVE-4.4.2-64Bit/_PKDS_TSTS06_811_X47_V1_0/Libraries/XMCLib/inc\xmc_gpio.h ****  *
 273:C:/Workspaces/DAVE-4.4.2-64Bit/_PKDS_TSTS06_811_X47_V1_0/Libraries/XMCLib/inc\xmc_gpio.h ****  * @return  None
 274:C:/Workspaces/DAVE-4.4.2-64Bit/_PKDS_TSTS06_811_X47_V1_0/Libraries/XMCLib/inc\xmc_gpio.h ****  *
 275:C:/Workspaces/DAVE-4.4.2-64Bit/_PKDS_TSTS06_811_X47_V1_0/Libraries/XMCLib/inc\xmc_gpio.h ****  *\par<b>Description:</b><br>
 276:C:/Workspaces/DAVE-4.4.2-64Bit/_PKDS_TSTS06_811_X47_V1_0/Libraries/XMCLib/inc\xmc_gpio.h ****  * Sets port pin output to low. It configures hardware registers Pn_OMR.\n
 277:C:/Workspaces/DAVE-4.4.2-64Bit/_PKDS_TSTS06_811_X47_V1_0/Libraries/XMCLib/inc\xmc_gpio.h ****  *
 278:C:/Workspaces/DAVE-4.4.2-64Bit/_PKDS_TSTS06_811_X47_V1_0/Libraries/XMCLib/inc\xmc_gpio.h ****  * \par<b>Related APIs:</b><BR>>
 279:C:/Workspaces/DAVE-4.4.2-64Bit/_PKDS_TSTS06_811_X47_V1_0/Libraries/XMCLib/inc\xmc_gpio.h ****  * XMC_GPIO_SetOutputHigh()
 280:C:/Workspaces/DAVE-4.4.2-64Bit/_PKDS_TSTS06_811_X47_V1_0/Libraries/XMCLib/inc\xmc_gpio.h ****  *
 281:C:/Workspaces/DAVE-4.4.2-64Bit/_PKDS_TSTS06_811_X47_V1_0/Libraries/XMCLib/inc\xmc_gpio.h ****  *\par<b>Note:</b><br>
 282:C:/Workspaces/DAVE-4.4.2-64Bit/_PKDS_TSTS06_811_X47_V1_0/Libraries/XMCLib/inc\xmc_gpio.h ****  * Prior to this api, user has to configure port pin to output mode using XMC_GPIO_SetMode().
 283:C:/Workspaces/DAVE-4.4.2-64Bit/_PKDS_TSTS06_811_X47_V1_0/Libraries/XMCLib/inc\xmc_gpio.h ****  * Register Pn_OMR is virtual and does not contain any flip-flop. A read action delivers the value 
 284:C:/Workspaces/DAVE-4.4.2-64Bit/_PKDS_TSTS06_811_X47_V1_0/Libraries/XMCLib/inc\xmc_gpio.h ****  *
 285:C:/Workspaces/DAVE-4.4.2-64Bit/_PKDS_TSTS06_811_X47_V1_0/Libraries/XMCLib/inc\xmc_gpio.h ****  */
 286:C:/Workspaces/DAVE-4.4.2-64Bit/_PKDS_TSTS06_811_X47_V1_0/Libraries/XMCLib/inc\xmc_gpio.h **** 
 287:C:/Workspaces/DAVE-4.4.2-64Bit/_PKDS_TSTS06_811_X47_V1_0/Libraries/XMCLib/inc\xmc_gpio.h **** __STATIC_INLINE void XMC_GPIO_SetOutputLow(XMC_GPIO_PORT_t *const port, const uint8_t pin)
 288:C:/Workspaces/DAVE-4.4.2-64Bit/_PKDS_TSTS06_811_X47_V1_0/Libraries/XMCLib/inc\xmc_gpio.h **** {
  78              	 .loc 1 288 1
  79              	 .cfi_startproc
  80              	 
  81              	 
  82              	 
  83 0000 80B4     	 push {r7}
  84              	.LCFI6:
  85              	 .cfi_def_cfa_offset 4
  86              	 .cfi_offset 7,-4
  87 0002 83B0     	 sub sp,sp,#12
  88              	.LCFI7:
  89              	 .cfi_def_cfa_offset 16
  90 0004 00AF     	 add r7,sp,#0
  91              	.LCFI8:
  92              	 .cfi_def_cfa_register 7
  93 0006 7860     	 str r0,[r7,#4]
  94 0008 0B46     	 mov r3,r1
  95 000a FB70     	 strb r3,[r7,#3]
 289:C:/Workspaces/DAVE-4.4.2-64Bit/_PKDS_TSTS06_811_X47_V1_0/Libraries/XMCLib/inc\xmc_gpio.h ****   XMC_ASSERT("XMC_GPIO_SetOutputLow: Invalid port", XMC_GPIO_CHECK_OUTPUT_PORT(port));
 290:C:/Workspaces/DAVE-4.4.2-64Bit/_PKDS_TSTS06_811_X47_V1_0/Libraries/XMCLib/inc\xmc_gpio.h **** 
 291:C:/Workspaces/DAVE-4.4.2-64Bit/_PKDS_TSTS06_811_X47_V1_0/Libraries/XMCLib/inc\xmc_gpio.h ****   port->OMR = 0x10000U << pin;
  96              	 .loc 1 291 24
  97 000c FB78     	 ldrb r3,[r7,#3]
  98 000e 4FF48032 	 mov r2,#65536
  99 0012 9A40     	 lsls r2,r2,r3
 100              	 .loc 1 291 13
 101 0014 7B68     	 ldr r3,[r7,#4]
 102 0016 5A60     	 str r2,[r3,#4]
 292:C:/Workspaces/DAVE-4.4.2-64Bit/_PKDS_TSTS06_811_X47_V1_0/Libraries/XMCLib/inc\xmc_gpio.h **** }
 103              	 .loc 1 292 1
 104 0018 00BF     	 nop
 105 001a 0C37     	 adds r7,r7,#12
 106              	.LCFI9:
 107              	 .cfi_def_cfa_offset 4
 108 001c BD46     	 mov sp,r7
 109              	.LCFI10:
 110              	 .cfi_def_cfa_register 13
 111              	 
 112 001e 5DF8047B 	 ldr r7,[sp],#4
 113              	.LCFI11:
 114              	 .cfi_restore 7
 115              	 .cfi_def_cfa_offset 0
 116 0022 7047     	 bx lr
 117              	 .cfi_endproc
 118              	.LFE136:
 120              	 .section .text.DIGITAL_IO_SetOutputHigh,"ax",%progbits
 121              	 .align 1
 122              	 .syntax unified
 123              	 .thumb
 124              	 .thumb_func
 125              	 .fpu fpv4-sp-d16
 127              	DIGITAL_IO_SetOutputHigh:
 128              	.LFB143:
 129              	 .file 2 "C:/Workspaces/DAVE-4.4.2-64Bit/_PKDS_TSTS06_811_X47_V1_0/Dave/Generated/DIGITAL_IO/digital_io.h"
   1:C:/Workspaces/DAVE-4.4.2-64Bit/_PKDS_TSTS06_811_X47_V1_0/Dave/Generated/DIGITAL_IO\digital_io.h **** /*
   2:C:/Workspaces/DAVE-4.4.2-64Bit/_PKDS_TSTS06_811_X47_V1_0/Dave/Generated/DIGITAL_IO\digital_io.h ****  *
   3:C:/Workspaces/DAVE-4.4.2-64Bit/_PKDS_TSTS06_811_X47_V1_0/Dave/Generated/DIGITAL_IO\digital_io.h ****  * @file digital_io.h
   4:C:/Workspaces/DAVE-4.4.2-64Bit/_PKDS_TSTS06_811_X47_V1_0/Dave/Generated/DIGITAL_IO\digital_io.h ****  * @date 2021-01-08
   5:C:/Workspaces/DAVE-4.4.2-64Bit/_PKDS_TSTS06_811_X47_V1_0/Dave/Generated/DIGITAL_IO\digital_io.h ****  *
   6:C:/Workspaces/DAVE-4.4.2-64Bit/_PKDS_TSTS06_811_X47_V1_0/Dave/Generated/DIGITAL_IO\digital_io.h ****  * NOTE:
   7:C:/Workspaces/DAVE-4.4.2-64Bit/_PKDS_TSTS06_811_X47_V1_0/Dave/Generated/DIGITAL_IO\digital_io.h ****  * This file is generated by DAVE. Any manual modification done to this file will be lost when the 
   8:C:/Workspaces/DAVE-4.4.2-64Bit/_PKDS_TSTS06_811_X47_V1_0/Dave/Generated/DIGITAL_IO\digital_io.h ****  *
   9:C:/Workspaces/DAVE-4.4.2-64Bit/_PKDS_TSTS06_811_X47_V1_0/Dave/Generated/DIGITAL_IO\digital_io.h ****  * @cond
  10:C:/Workspaces/DAVE-4.4.2-64Bit/_PKDS_TSTS06_811_X47_V1_0/Dave/Generated/DIGITAL_IO\digital_io.h ****  **************************************************************************************************
  11:C:/Workspaces/DAVE-4.4.2-64Bit/_PKDS_TSTS06_811_X47_V1_0/Dave/Generated/DIGITAL_IO\digital_io.h ****  * DIGITAL_IO v4.0.18 - The DIGITAL_IO APP is used to configure a port pin as digital Input/Output.
  12:C:/Workspaces/DAVE-4.4.2-64Bit/_PKDS_TSTS06_811_X47_V1_0/Dave/Generated/DIGITAL_IO\digital_io.h ****  *
  13:C:/Workspaces/DAVE-4.4.2-64Bit/_PKDS_TSTS06_811_X47_V1_0/Dave/Generated/DIGITAL_IO\digital_io.h ****  * Copyright (c) 2015-2020, Infineon Technologies AG
  14:C:/Workspaces/DAVE-4.4.2-64Bit/_PKDS_TSTS06_811_X47_V1_0/Dave/Generated/DIGITAL_IO\digital_io.h ****  * All rights reserved.
  15:C:/Workspaces/DAVE-4.4.2-64Bit/_PKDS_TSTS06_811_X47_V1_0/Dave/Generated/DIGITAL_IO\digital_io.h ****  *
  16:C:/Workspaces/DAVE-4.4.2-64Bit/_PKDS_TSTS06_811_X47_V1_0/Dave/Generated/DIGITAL_IO\digital_io.h ****  * Redistribution and use in source and binary forms, with or without modification,are permitted pr
  17:C:/Workspaces/DAVE-4.4.2-64Bit/_PKDS_TSTS06_811_X47_V1_0/Dave/Generated/DIGITAL_IO\digital_io.h ****  * following conditions are met:
  18:C:/Workspaces/DAVE-4.4.2-64Bit/_PKDS_TSTS06_811_X47_V1_0/Dave/Generated/DIGITAL_IO\digital_io.h ****  *
  19:C:/Workspaces/DAVE-4.4.2-64Bit/_PKDS_TSTS06_811_X47_V1_0/Dave/Generated/DIGITAL_IO\digital_io.h ****  *   Redistributions of source code must retain the above copyright notice, this list of conditions
  20:C:/Workspaces/DAVE-4.4.2-64Bit/_PKDS_TSTS06_811_X47_V1_0/Dave/Generated/DIGITAL_IO\digital_io.h ****  *   disclaimer.
  21:C:/Workspaces/DAVE-4.4.2-64Bit/_PKDS_TSTS06_811_X47_V1_0/Dave/Generated/DIGITAL_IO\digital_io.h ****  *
  22:C:/Workspaces/DAVE-4.4.2-64Bit/_PKDS_TSTS06_811_X47_V1_0/Dave/Generated/DIGITAL_IO\digital_io.h ****  *   Redistributions in binary form must reproduce the above copyright notice, this list of conditi
  23:C:/Workspaces/DAVE-4.4.2-64Bit/_PKDS_TSTS06_811_X47_V1_0/Dave/Generated/DIGITAL_IO\digital_io.h ****  *   following disclaimer in the documentation and/or other materials provided with the distributio
  24:C:/Workspaces/DAVE-4.4.2-64Bit/_PKDS_TSTS06_811_X47_V1_0/Dave/Generated/DIGITAL_IO\digital_io.h ****  *
  25:C:/Workspaces/DAVE-4.4.2-64Bit/_PKDS_TSTS06_811_X47_V1_0/Dave/Generated/DIGITAL_IO\digital_io.h ****  *   Neither the name of the copyright holders nor the names of its contributors may be used to end
  26:C:/Workspaces/DAVE-4.4.2-64Bit/_PKDS_TSTS06_811_X47_V1_0/Dave/Generated/DIGITAL_IO\digital_io.h ****  *   products derived from this software without specific prior written permission.
  27:C:/Workspaces/DAVE-4.4.2-64Bit/_PKDS_TSTS06_811_X47_V1_0/Dave/Generated/DIGITAL_IO\digital_io.h ****  *
  28:C:/Workspaces/DAVE-4.4.2-64Bit/_PKDS_TSTS06_811_X47_V1_0/Dave/Generated/DIGITAL_IO\digital_io.h ****  * THIS SOFTWARE IS PROVIDED BY THE COPYRIGHT HOLDERS AND CONTRIBUTORS "AS IS" AND ANY EXPRESS OR I
  29:C:/Workspaces/DAVE-4.4.2-64Bit/_PKDS_TSTS06_811_X47_V1_0/Dave/Generated/DIGITAL_IO\digital_io.h ****  * INCLUDING, BUT NOT LIMITED TO, THE IMPLIED WARRANTIES OF MERCHANTABILITY AND FITNESS FOR A PARTI
  30:C:/Workspaces/DAVE-4.4.2-64Bit/_PKDS_TSTS06_811_X47_V1_0/Dave/Generated/DIGITAL_IO\digital_io.h ****  * DISCLAIMED. IN NO EVENT SHALL THE COPYRIGHT HOLDER OR CONTRIBUTORS BE LIABLE  FOR ANY DIRECT, IN
  31:C:/Workspaces/DAVE-4.4.2-64Bit/_PKDS_TSTS06_811_X47_V1_0/Dave/Generated/DIGITAL_IO\digital_io.h ****  * SPECIAL, EXEMPLARY, OR CONSEQUENTIAL DAMAGES (INCLUDING, BUT NOT LIMITED TO, PROCUREMENT OF SUBS
  32:C:/Workspaces/DAVE-4.4.2-64Bit/_PKDS_TSTS06_811_X47_V1_0/Dave/Generated/DIGITAL_IO\digital_io.h ****  * SERVICES; LOSS OF USE, DATA, OR PROFITS; OR BUSINESS INTERRUPTION) HOWEVER CAUSED AND ON ANY THE
  33:C:/Workspaces/DAVE-4.4.2-64Bit/_PKDS_TSTS06_811_X47_V1_0/Dave/Generated/DIGITAL_IO\digital_io.h ****  * WHETHER IN CONTRACT, STRICT LIABILITY,OR TORT (INCLUDING NEGLIGENCE OR OTHERWISE) ARISING IN ANY
  34:C:/Workspaces/DAVE-4.4.2-64Bit/_PKDS_TSTS06_811_X47_V1_0/Dave/Generated/DIGITAL_IO\digital_io.h ****  * USE OF THIS SOFTWARE, EVEN IF ADVISED OF THE POSSIBILITY OF SUCH DAMAGE.
  35:C:/Workspaces/DAVE-4.4.2-64Bit/_PKDS_TSTS06_811_X47_V1_0/Dave/Generated/DIGITAL_IO\digital_io.h ****  *
  36:C:/Workspaces/DAVE-4.4.2-64Bit/_PKDS_TSTS06_811_X47_V1_0/Dave/Generated/DIGITAL_IO\digital_io.h ****  * To improve the quality of the software, users are encouraged to share modifications, enhancement
  37:C:/Workspaces/DAVE-4.4.2-64Bit/_PKDS_TSTS06_811_X47_V1_0/Dave/Generated/DIGITAL_IO\digital_io.h ****  * with Infineon Technologies AG (dave@infineon.com).
  38:C:/Workspaces/DAVE-4.4.2-64Bit/_PKDS_TSTS06_811_X47_V1_0/Dave/Generated/DIGITAL_IO\digital_io.h ****  **************************************************************************************************
  39:C:/Workspaces/DAVE-4.4.2-64Bit/_PKDS_TSTS06_811_X47_V1_0/Dave/Generated/DIGITAL_IO\digital_io.h ****  *
  40:C:/Workspaces/DAVE-4.4.2-64Bit/_PKDS_TSTS06_811_X47_V1_0/Dave/Generated/DIGITAL_IO\digital_io.h ****  * Change History
  41:C:/Workspaces/DAVE-4.4.2-64Bit/_PKDS_TSTS06_811_X47_V1_0/Dave/Generated/DIGITAL_IO\digital_io.h ****  * --------------
  42:C:/Workspaces/DAVE-4.4.2-64Bit/_PKDS_TSTS06_811_X47_V1_0/Dave/Generated/DIGITAL_IO\digital_io.h ****  *
  43:C:/Workspaces/DAVE-4.4.2-64Bit/_PKDS_TSTS06_811_X47_V1_0/Dave/Generated/DIGITAL_IO\digital_io.h ****  * 2015-02-16
  44:C:/Workspaces/DAVE-4.4.2-64Bit/_PKDS_TSTS06_811_X47_V1_0/Dave/Generated/DIGITAL_IO\digital_io.h ****  *     - Initial version
  45:C:/Workspaces/DAVE-4.4.2-64Bit/_PKDS_TSTS06_811_X47_V1_0/Dave/Generated/DIGITAL_IO\digital_io.h ****  *
  46:C:/Workspaces/DAVE-4.4.2-64Bit/_PKDS_TSTS06_811_X47_V1_0/Dave/Generated/DIGITAL_IO\digital_io.h ****  * 2015-04-22
  47:C:/Workspaces/DAVE-4.4.2-64Bit/_PKDS_TSTS06_811_X47_V1_0/Dave/Generated/DIGITAL_IO\digital_io.h ****  *     - XMC_ASSERT is added in static inline functions.<br>
  48:C:/Workspaces/DAVE-4.4.2-64Bit/_PKDS_TSTS06_811_X47_V1_0/Dave/Generated/DIGITAL_IO\digital_io.h ****  *
  49:C:/Workspaces/DAVE-4.4.2-64Bit/_PKDS_TSTS06_811_X47_V1_0/Dave/Generated/DIGITAL_IO\digital_io.h ****  * 2015-06-20
  50:C:/Workspaces/DAVE-4.4.2-64Bit/_PKDS_TSTS06_811_X47_V1_0/Dave/Generated/DIGITAL_IO\digital_io.h ****  *     - Version check added for XMCLib dependency.<br>
  51:C:/Workspaces/DAVE-4.4.2-64Bit/_PKDS_TSTS06_811_X47_V1_0/Dave/Generated/DIGITAL_IO\digital_io.h ****  *
  52:C:/Workspaces/DAVE-4.4.2-64Bit/_PKDS_TSTS06_811_X47_V1_0/Dave/Generated/DIGITAL_IO\digital_io.h ****  * 2015-12-22
  53:C:/Workspaces/DAVE-4.4.2-64Bit/_PKDS_TSTS06_811_X47_V1_0/Dave/Generated/DIGITAL_IO\digital_io.h ****  *     - Added hardware controlled IO feature.
  54:C:/Workspaces/DAVE-4.4.2-64Bit/_PKDS_TSTS06_811_X47_V1_0/Dave/Generated/DIGITAL_IO\digital_io.h ****  * 2016-07-08:
  55:C:/Workspaces/DAVE-4.4.2-64Bit/_PKDS_TSTS06_811_X47_V1_0/Dave/Generated/DIGITAL_IO\digital_io.h ****  *     - Fixed incorrect case for an included header.<br>
  56:C:/Workspaces/DAVE-4.4.2-64Bit/_PKDS_TSTS06_811_X47_V1_0/Dave/Generated/DIGITAL_IO\digital_io.h ****  * 2021-01-08:
  57:C:/Workspaces/DAVE-4.4.2-64Bit/_PKDS_TSTS06_811_X47_V1_0/Dave/Generated/DIGITAL_IO\digital_io.h ****  *     - Modified check for minimum XMCLib version
  58:C:/Workspaces/DAVE-4.4.2-64Bit/_PKDS_TSTS06_811_X47_V1_0/Dave/Generated/DIGITAL_IO\digital_io.h ****  *
  59:C:/Workspaces/DAVE-4.4.2-64Bit/_PKDS_TSTS06_811_X47_V1_0/Dave/Generated/DIGITAL_IO\digital_io.h ****  * @endcond
  60:C:/Workspaces/DAVE-4.4.2-64Bit/_PKDS_TSTS06_811_X47_V1_0/Dave/Generated/DIGITAL_IO\digital_io.h ****  *
  61:C:/Workspaces/DAVE-4.4.2-64Bit/_PKDS_TSTS06_811_X47_V1_0/Dave/Generated/DIGITAL_IO\digital_io.h ****  */
  62:C:/Workspaces/DAVE-4.4.2-64Bit/_PKDS_TSTS06_811_X47_V1_0/Dave/Generated/DIGITAL_IO\digital_io.h **** 
  63:C:/Workspaces/DAVE-4.4.2-64Bit/_PKDS_TSTS06_811_X47_V1_0/Dave/Generated/DIGITAL_IO\digital_io.h **** /**************************************************************************************************
  64:C:/Workspaces/DAVE-4.4.2-64Bit/_PKDS_TSTS06_811_X47_V1_0/Dave/Generated/DIGITAL_IO\digital_io.h ****  * HEADER FILES
  65:C:/Workspaces/DAVE-4.4.2-64Bit/_PKDS_TSTS06_811_X47_V1_0/Dave/Generated/DIGITAL_IO\digital_io.h ****  **************************************************************************************************
  66:C:/Workspaces/DAVE-4.4.2-64Bit/_PKDS_TSTS06_811_X47_V1_0/Dave/Generated/DIGITAL_IO\digital_io.h **** 
  67:C:/Workspaces/DAVE-4.4.2-64Bit/_PKDS_TSTS06_811_X47_V1_0/Dave/Generated/DIGITAL_IO\digital_io.h **** #ifndef DIGITAL_IO_H
  68:C:/Workspaces/DAVE-4.4.2-64Bit/_PKDS_TSTS06_811_X47_V1_0/Dave/Generated/DIGITAL_IO\digital_io.h **** #define DIGITAL_IO_H
  69:C:/Workspaces/DAVE-4.4.2-64Bit/_PKDS_TSTS06_811_X47_V1_0/Dave/Generated/DIGITAL_IO\digital_io.h **** 
  70:C:/Workspaces/DAVE-4.4.2-64Bit/_PKDS_TSTS06_811_X47_V1_0/Dave/Generated/DIGITAL_IO\digital_io.h **** #include "xmc_gpio.h"
  71:C:/Workspaces/DAVE-4.4.2-64Bit/_PKDS_TSTS06_811_X47_V1_0/Dave/Generated/DIGITAL_IO\digital_io.h **** #include "DAVE_Common.h"
  72:C:/Workspaces/DAVE-4.4.2-64Bit/_PKDS_TSTS06_811_X47_V1_0/Dave/Generated/DIGITAL_IO\digital_io.h **** #include "digital_io_conf.h"
  73:C:/Workspaces/DAVE-4.4.2-64Bit/_PKDS_TSTS06_811_X47_V1_0/Dave/Generated/DIGITAL_IO\digital_io.h **** 
  74:C:/Workspaces/DAVE-4.4.2-64Bit/_PKDS_TSTS06_811_X47_V1_0/Dave/Generated/DIGITAL_IO\digital_io.h **** /**************************************************************************************************
  75:C:/Workspaces/DAVE-4.4.2-64Bit/_PKDS_TSTS06_811_X47_V1_0/Dave/Generated/DIGITAL_IO\digital_io.h ****  * MACROS
  76:C:/Workspaces/DAVE-4.4.2-64Bit/_PKDS_TSTS06_811_X47_V1_0/Dave/Generated/DIGITAL_IO\digital_io.h ****  **************************************************************************************************
  77:C:/Workspaces/DAVE-4.4.2-64Bit/_PKDS_TSTS06_811_X47_V1_0/Dave/Generated/DIGITAL_IO\digital_io.h **** #define DIGITAL_IO_XMC_LIB_MAJOR_VERSION 2
  78:C:/Workspaces/DAVE-4.4.2-64Bit/_PKDS_TSTS06_811_X47_V1_0/Dave/Generated/DIGITAL_IO\digital_io.h **** #define DIGITAL_IO_XMC_LIB_MINOR_VERSION 0
  79:C:/Workspaces/DAVE-4.4.2-64Bit/_PKDS_TSTS06_811_X47_V1_0/Dave/Generated/DIGITAL_IO\digital_io.h **** #define DIGITAL_IO_XMC_LIB_PATCH_VERSION 0
  80:C:/Workspaces/DAVE-4.4.2-64Bit/_PKDS_TSTS06_811_X47_V1_0/Dave/Generated/DIGITAL_IO\digital_io.h **** 
  81:C:/Workspaces/DAVE-4.4.2-64Bit/_PKDS_TSTS06_811_X47_V1_0/Dave/Generated/DIGITAL_IO\digital_io.h **** #if !((XMC_LIB_MAJOR_VERSION > DIGITAL_IO_XMC_LIB_MAJOR_VERSION) ||\
  82:C:/Workspaces/DAVE-4.4.2-64Bit/_PKDS_TSTS06_811_X47_V1_0/Dave/Generated/DIGITAL_IO\digital_io.h ****       ((XMC_LIB_MAJOR_VERSION == DIGITAL_IO_XMC_LIB_MAJOR_VERSION) && (XMC_LIB_MINOR_VERSION > DIGI
  83:C:/Workspaces/DAVE-4.4.2-64Bit/_PKDS_TSTS06_811_X47_V1_0/Dave/Generated/DIGITAL_IO\digital_io.h ****       ((XMC_LIB_MAJOR_VERSION == DIGITAL_IO_XMC_LIB_MAJOR_VERSION) && (XMC_LIB_MINOR_VERSION == DIG
  84:C:/Workspaces/DAVE-4.4.2-64Bit/_PKDS_TSTS06_811_X47_V1_0/Dave/Generated/DIGITAL_IO\digital_io.h **** #error "DIGITAL_IO requires XMC Peripheral Library v2.0.0 or higher"
  85:C:/Workspaces/DAVE-4.4.2-64Bit/_PKDS_TSTS06_811_X47_V1_0/Dave/Generated/DIGITAL_IO\digital_io.h **** #endif
  86:C:/Workspaces/DAVE-4.4.2-64Bit/_PKDS_TSTS06_811_X47_V1_0/Dave/Generated/DIGITAL_IO\digital_io.h **** 
  87:C:/Workspaces/DAVE-4.4.2-64Bit/_PKDS_TSTS06_811_X47_V1_0/Dave/Generated/DIGITAL_IO\digital_io.h ****  /*************************************************************************************************
  88:C:/Workspaces/DAVE-4.4.2-64Bit/_PKDS_TSTS06_811_X47_V1_0/Dave/Generated/DIGITAL_IO\digital_io.h ****  * ENUMS
  89:C:/Workspaces/DAVE-4.4.2-64Bit/_PKDS_TSTS06_811_X47_V1_0/Dave/Generated/DIGITAL_IO\digital_io.h ****  **************************************************************************************************
  90:C:/Workspaces/DAVE-4.4.2-64Bit/_PKDS_TSTS06_811_X47_V1_0/Dave/Generated/DIGITAL_IO\digital_io.h **** 
  91:C:/Workspaces/DAVE-4.4.2-64Bit/_PKDS_TSTS06_811_X47_V1_0/Dave/Generated/DIGITAL_IO\digital_io.h **** /**
  92:C:/Workspaces/DAVE-4.4.2-64Bit/_PKDS_TSTS06_811_X47_V1_0/Dave/Generated/DIGITAL_IO\digital_io.h **** * @ingroup DIGITAL_IO_enumerations
  93:C:/Workspaces/DAVE-4.4.2-64Bit/_PKDS_TSTS06_811_X47_V1_0/Dave/Generated/DIGITAL_IO\digital_io.h **** * @{
  94:C:/Workspaces/DAVE-4.4.2-64Bit/_PKDS_TSTS06_811_X47_V1_0/Dave/Generated/DIGITAL_IO\digital_io.h **** */
  95:C:/Workspaces/DAVE-4.4.2-64Bit/_PKDS_TSTS06_811_X47_V1_0/Dave/Generated/DIGITAL_IO\digital_io.h **** 
  96:C:/Workspaces/DAVE-4.4.2-64Bit/_PKDS_TSTS06_811_X47_V1_0/Dave/Generated/DIGITAL_IO\digital_io.h **** /**
  97:C:/Workspaces/DAVE-4.4.2-64Bit/_PKDS_TSTS06_811_X47_V1_0/Dave/Generated/DIGITAL_IO\digital_io.h **** * @brief Initialization status of DIGITAL_IO APP.
  98:C:/Workspaces/DAVE-4.4.2-64Bit/_PKDS_TSTS06_811_X47_V1_0/Dave/Generated/DIGITAL_IO\digital_io.h **** */
  99:C:/Workspaces/DAVE-4.4.2-64Bit/_PKDS_TSTS06_811_X47_V1_0/Dave/Generated/DIGITAL_IO\digital_io.h **** typedef enum DIGITAL_IO_STATUS
 100:C:/Workspaces/DAVE-4.4.2-64Bit/_PKDS_TSTS06_811_X47_V1_0/Dave/Generated/DIGITAL_IO\digital_io.h **** {
 101:C:/Workspaces/DAVE-4.4.2-64Bit/_PKDS_TSTS06_811_X47_V1_0/Dave/Generated/DIGITAL_IO\digital_io.h ****   DIGITAL_IO_STATUS_OK = 0U,/**< 0=Status OK */
 102:C:/Workspaces/DAVE-4.4.2-64Bit/_PKDS_TSTS06_811_X47_V1_0/Dave/Generated/DIGITAL_IO\digital_io.h ****   DIGITAL_IO_STATUS_FAILURE = 1U/**< 1=Status Failed */
 103:C:/Workspaces/DAVE-4.4.2-64Bit/_PKDS_TSTS06_811_X47_V1_0/Dave/Generated/DIGITAL_IO\digital_io.h **** } DIGITAL_IO_STATUS_t;
 104:C:/Workspaces/DAVE-4.4.2-64Bit/_PKDS_TSTS06_811_X47_V1_0/Dave/Generated/DIGITAL_IO\digital_io.h **** 
 105:C:/Workspaces/DAVE-4.4.2-64Bit/_PKDS_TSTS06_811_X47_V1_0/Dave/Generated/DIGITAL_IO\digital_io.h **** /**
 106:C:/Workspaces/DAVE-4.4.2-64Bit/_PKDS_TSTS06_811_X47_V1_0/Dave/Generated/DIGITAL_IO\digital_io.h **** * @}
 107:C:/Workspaces/DAVE-4.4.2-64Bit/_PKDS_TSTS06_811_X47_V1_0/Dave/Generated/DIGITAL_IO\digital_io.h **** */
 108:C:/Workspaces/DAVE-4.4.2-64Bit/_PKDS_TSTS06_811_X47_V1_0/Dave/Generated/DIGITAL_IO\digital_io.h **** 
 109:C:/Workspaces/DAVE-4.4.2-64Bit/_PKDS_TSTS06_811_X47_V1_0/Dave/Generated/DIGITAL_IO\digital_io.h **** /**************************************************************************************************
 110:C:/Workspaces/DAVE-4.4.2-64Bit/_PKDS_TSTS06_811_X47_V1_0/Dave/Generated/DIGITAL_IO\digital_io.h ****  * DATA STRUCTURES
 111:C:/Workspaces/DAVE-4.4.2-64Bit/_PKDS_TSTS06_811_X47_V1_0/Dave/Generated/DIGITAL_IO\digital_io.h ****  **************************************************************************************************
 112:C:/Workspaces/DAVE-4.4.2-64Bit/_PKDS_TSTS06_811_X47_V1_0/Dave/Generated/DIGITAL_IO\digital_io.h **** /**
 113:C:/Workspaces/DAVE-4.4.2-64Bit/_PKDS_TSTS06_811_X47_V1_0/Dave/Generated/DIGITAL_IO\digital_io.h **** * @ingroup DIGITAL_IO_datastructures
 114:C:/Workspaces/DAVE-4.4.2-64Bit/_PKDS_TSTS06_811_X47_V1_0/Dave/Generated/DIGITAL_IO\digital_io.h **** * @{
 115:C:/Workspaces/DAVE-4.4.2-64Bit/_PKDS_TSTS06_811_X47_V1_0/Dave/Generated/DIGITAL_IO\digital_io.h **** */
 116:C:/Workspaces/DAVE-4.4.2-64Bit/_PKDS_TSTS06_811_X47_V1_0/Dave/Generated/DIGITAL_IO\digital_io.h **** 
 117:C:/Workspaces/DAVE-4.4.2-64Bit/_PKDS_TSTS06_811_X47_V1_0/Dave/Generated/DIGITAL_IO\digital_io.h **** /**
 118:C:/Workspaces/DAVE-4.4.2-64Bit/_PKDS_TSTS06_811_X47_V1_0/Dave/Generated/DIGITAL_IO\digital_io.h **** * @brief Initialization data structure of DIGITAL_IO APP
 119:C:/Workspaces/DAVE-4.4.2-64Bit/_PKDS_TSTS06_811_X47_V1_0/Dave/Generated/DIGITAL_IO\digital_io.h **** */
 120:C:/Workspaces/DAVE-4.4.2-64Bit/_PKDS_TSTS06_811_X47_V1_0/Dave/Generated/DIGITAL_IO\digital_io.h **** typedef struct DIGITAL_IO
 121:C:/Workspaces/DAVE-4.4.2-64Bit/_PKDS_TSTS06_811_X47_V1_0/Dave/Generated/DIGITAL_IO\digital_io.h **** {
 122:C:/Workspaces/DAVE-4.4.2-64Bit/_PKDS_TSTS06_811_X47_V1_0/Dave/Generated/DIGITAL_IO\digital_io.h ****   XMC_GPIO_PORT_t *const gpio_port;             /**< port number */
 123:C:/Workspaces/DAVE-4.4.2-64Bit/_PKDS_TSTS06_811_X47_V1_0/Dave/Generated/DIGITAL_IO\digital_io.h ****   const XMC_GPIO_CONFIG_t gpio_config;          /**< mode, initial output level and pad driver stre
 124:C:/Workspaces/DAVE-4.4.2-64Bit/_PKDS_TSTS06_811_X47_V1_0/Dave/Generated/DIGITAL_IO\digital_io.h ****   const uint8_t gpio_pin;                       /**< pin number */
 125:C:/Workspaces/DAVE-4.4.2-64Bit/_PKDS_TSTS06_811_X47_V1_0/Dave/Generated/DIGITAL_IO\digital_io.h ****   const XMC_GPIO_HWCTRL_t hwctrl;               /**< Hardware port control */
 126:C:/Workspaces/DAVE-4.4.2-64Bit/_PKDS_TSTS06_811_X47_V1_0/Dave/Generated/DIGITAL_IO\digital_io.h **** } DIGITAL_IO_t;
 127:C:/Workspaces/DAVE-4.4.2-64Bit/_PKDS_TSTS06_811_X47_V1_0/Dave/Generated/DIGITAL_IO\digital_io.h **** 
 128:C:/Workspaces/DAVE-4.4.2-64Bit/_PKDS_TSTS06_811_X47_V1_0/Dave/Generated/DIGITAL_IO\digital_io.h **** 
 129:C:/Workspaces/DAVE-4.4.2-64Bit/_PKDS_TSTS06_811_X47_V1_0/Dave/Generated/DIGITAL_IO\digital_io.h **** /**
 130:C:/Workspaces/DAVE-4.4.2-64Bit/_PKDS_TSTS06_811_X47_V1_0/Dave/Generated/DIGITAL_IO\digital_io.h **** * @}
 131:C:/Workspaces/DAVE-4.4.2-64Bit/_PKDS_TSTS06_811_X47_V1_0/Dave/Generated/DIGITAL_IO\digital_io.h **** */
 132:C:/Workspaces/DAVE-4.4.2-64Bit/_PKDS_TSTS06_811_X47_V1_0/Dave/Generated/DIGITAL_IO\digital_io.h **** 
 133:C:/Workspaces/DAVE-4.4.2-64Bit/_PKDS_TSTS06_811_X47_V1_0/Dave/Generated/DIGITAL_IO\digital_io.h **** 
 134:C:/Workspaces/DAVE-4.4.2-64Bit/_PKDS_TSTS06_811_X47_V1_0/Dave/Generated/DIGITAL_IO\digital_io.h **** /**************************************************************************************************
 135:C:/Workspaces/DAVE-4.4.2-64Bit/_PKDS_TSTS06_811_X47_V1_0/Dave/Generated/DIGITAL_IO\digital_io.h ****  * API Prototypes
 136:C:/Workspaces/DAVE-4.4.2-64Bit/_PKDS_TSTS06_811_X47_V1_0/Dave/Generated/DIGITAL_IO\digital_io.h ****  **************************************************************************************************
 137:C:/Workspaces/DAVE-4.4.2-64Bit/_PKDS_TSTS06_811_X47_V1_0/Dave/Generated/DIGITAL_IO\digital_io.h **** 
 138:C:/Workspaces/DAVE-4.4.2-64Bit/_PKDS_TSTS06_811_X47_V1_0/Dave/Generated/DIGITAL_IO\digital_io.h **** 
 139:C:/Workspaces/DAVE-4.4.2-64Bit/_PKDS_TSTS06_811_X47_V1_0/Dave/Generated/DIGITAL_IO\digital_io.h **** #ifdef __cplusplus
 140:C:/Workspaces/DAVE-4.4.2-64Bit/_PKDS_TSTS06_811_X47_V1_0/Dave/Generated/DIGITAL_IO\digital_io.h **** extern "C" {
 141:C:/Workspaces/DAVE-4.4.2-64Bit/_PKDS_TSTS06_811_X47_V1_0/Dave/Generated/DIGITAL_IO\digital_io.h **** #endif
 142:C:/Workspaces/DAVE-4.4.2-64Bit/_PKDS_TSTS06_811_X47_V1_0/Dave/Generated/DIGITAL_IO\digital_io.h **** 
 143:C:/Workspaces/DAVE-4.4.2-64Bit/_PKDS_TSTS06_811_X47_V1_0/Dave/Generated/DIGITAL_IO\digital_io.h **** /**
 144:C:/Workspaces/DAVE-4.4.2-64Bit/_PKDS_TSTS06_811_X47_V1_0/Dave/Generated/DIGITAL_IO\digital_io.h **** * @ingroup DIGITAL_IO_apidoc
 145:C:/Workspaces/DAVE-4.4.2-64Bit/_PKDS_TSTS06_811_X47_V1_0/Dave/Generated/DIGITAL_IO\digital_io.h **** * @{
 146:C:/Workspaces/DAVE-4.4.2-64Bit/_PKDS_TSTS06_811_X47_V1_0/Dave/Generated/DIGITAL_IO\digital_io.h **** */
 147:C:/Workspaces/DAVE-4.4.2-64Bit/_PKDS_TSTS06_811_X47_V1_0/Dave/Generated/DIGITAL_IO\digital_io.h **** 
 148:C:/Workspaces/DAVE-4.4.2-64Bit/_PKDS_TSTS06_811_X47_V1_0/Dave/Generated/DIGITAL_IO\digital_io.h **** 
 149:C:/Workspaces/DAVE-4.4.2-64Bit/_PKDS_TSTS06_811_X47_V1_0/Dave/Generated/DIGITAL_IO\digital_io.h **** 
 150:C:/Workspaces/DAVE-4.4.2-64Bit/_PKDS_TSTS06_811_X47_V1_0/Dave/Generated/DIGITAL_IO\digital_io.h **** /**
 151:C:/Workspaces/DAVE-4.4.2-64Bit/_PKDS_TSTS06_811_X47_V1_0/Dave/Generated/DIGITAL_IO\digital_io.h **** * @brief Get DIGITAL_IO APP version
 152:C:/Workspaces/DAVE-4.4.2-64Bit/_PKDS_TSTS06_811_X47_V1_0/Dave/Generated/DIGITAL_IO\digital_io.h **** * @return DAVE_APP_VERSION_t APP version information (major, minor and patch number)
 153:C:/Workspaces/DAVE-4.4.2-64Bit/_PKDS_TSTS06_811_X47_V1_0/Dave/Generated/DIGITAL_IO\digital_io.h **** *
 154:C:/Workspaces/DAVE-4.4.2-64Bit/_PKDS_TSTS06_811_X47_V1_0/Dave/Generated/DIGITAL_IO\digital_io.h **** * \par<b>Description: </b><br>
 155:C:/Workspaces/DAVE-4.4.2-64Bit/_PKDS_TSTS06_811_X47_V1_0/Dave/Generated/DIGITAL_IO\digital_io.h **** * The function can be used to check application software compatibility with a
 156:C:/Workspaces/DAVE-4.4.2-64Bit/_PKDS_TSTS06_811_X47_V1_0/Dave/Generated/DIGITAL_IO\digital_io.h **** * specific version of the APP.
 157:C:/Workspaces/DAVE-4.4.2-64Bit/_PKDS_TSTS06_811_X47_V1_0/Dave/Generated/DIGITAL_IO\digital_io.h **** *
 158:C:/Workspaces/DAVE-4.4.2-64Bit/_PKDS_TSTS06_811_X47_V1_0/Dave/Generated/DIGITAL_IO\digital_io.h **** * Example Usage:
 159:C:/Workspaces/DAVE-4.4.2-64Bit/_PKDS_TSTS06_811_X47_V1_0/Dave/Generated/DIGITAL_IO\digital_io.h **** *
 160:C:/Workspaces/DAVE-4.4.2-64Bit/_PKDS_TSTS06_811_X47_V1_0/Dave/Generated/DIGITAL_IO\digital_io.h **** * @code
 161:C:/Workspaces/DAVE-4.4.2-64Bit/_PKDS_TSTS06_811_X47_V1_0/Dave/Generated/DIGITAL_IO\digital_io.h **** * #include "DAVE.h"
 162:C:/Workspaces/DAVE-4.4.2-64Bit/_PKDS_TSTS06_811_X47_V1_0/Dave/Generated/DIGITAL_IO\digital_io.h **** *
 163:C:/Workspaces/DAVE-4.4.2-64Bit/_PKDS_TSTS06_811_X47_V1_0/Dave/Generated/DIGITAL_IO\digital_io.h **** * int main(void)
 164:C:/Workspaces/DAVE-4.4.2-64Bit/_PKDS_TSTS06_811_X47_V1_0/Dave/Generated/DIGITAL_IO\digital_io.h **** * {
 165:C:/Workspaces/DAVE-4.4.2-64Bit/_PKDS_TSTS06_811_X47_V1_0/Dave/Generated/DIGITAL_IO\digital_io.h **** *   DAVE_STATUS_t init_status;
 166:C:/Workspaces/DAVE-4.4.2-64Bit/_PKDS_TSTS06_811_X47_V1_0/Dave/Generated/DIGITAL_IO\digital_io.h **** *   DAVE_APP_VERSION_t version;
 167:C:/Workspaces/DAVE-4.4.2-64Bit/_PKDS_TSTS06_811_X47_V1_0/Dave/Generated/DIGITAL_IO\digital_io.h **** *
 168:C:/Workspaces/DAVE-4.4.2-64Bit/_PKDS_TSTS06_811_X47_V1_0/Dave/Generated/DIGITAL_IO\digital_io.h **** *   // Initialize DIGITAL_IO APP:
 169:C:/Workspaces/DAVE-4.4.2-64Bit/_PKDS_TSTS06_811_X47_V1_0/Dave/Generated/DIGITAL_IO\digital_io.h **** *   // DIGITAL_IO_Init() is called from within DAVE_Init().
 170:C:/Workspaces/DAVE-4.4.2-64Bit/_PKDS_TSTS06_811_X47_V1_0/Dave/Generated/DIGITAL_IO\digital_io.h **** *   init_status = DAVE_Init();
 171:C:/Workspaces/DAVE-4.4.2-64Bit/_PKDS_TSTS06_811_X47_V1_0/Dave/Generated/DIGITAL_IO\digital_io.h **** *   if(init_status == DAVE_STATUS_SUCCESS)
 172:C:/Workspaces/DAVE-4.4.2-64Bit/_PKDS_TSTS06_811_X47_V1_0/Dave/Generated/DIGITAL_IO\digital_io.h **** *   {
 173:C:/Workspaces/DAVE-4.4.2-64Bit/_PKDS_TSTS06_811_X47_V1_0/Dave/Generated/DIGITAL_IO\digital_io.h **** *     version = DIGITAL_IO_GetAppVersion();
 174:C:/Workspaces/DAVE-4.4.2-64Bit/_PKDS_TSTS06_811_X47_V1_0/Dave/Generated/DIGITAL_IO\digital_io.h **** *     if (version.major != 4U) {
 175:C:/Workspaces/DAVE-4.4.2-64Bit/_PKDS_TSTS06_811_X47_V1_0/Dave/Generated/DIGITAL_IO\digital_io.h **** *     // Probably, not the right version.
 176:C:/Workspaces/DAVE-4.4.2-64Bit/_PKDS_TSTS06_811_X47_V1_0/Dave/Generated/DIGITAL_IO\digital_io.h **** *     }
 177:C:/Workspaces/DAVE-4.4.2-64Bit/_PKDS_TSTS06_811_X47_V1_0/Dave/Generated/DIGITAL_IO\digital_io.h **** *   }
 178:C:/Workspaces/DAVE-4.4.2-64Bit/_PKDS_TSTS06_811_X47_V1_0/Dave/Generated/DIGITAL_IO\digital_io.h **** *
 179:C:/Workspaces/DAVE-4.4.2-64Bit/_PKDS_TSTS06_811_X47_V1_0/Dave/Generated/DIGITAL_IO\digital_io.h **** *     // More code here
 180:C:/Workspaces/DAVE-4.4.2-64Bit/_PKDS_TSTS06_811_X47_V1_0/Dave/Generated/DIGITAL_IO\digital_io.h **** *     while(1) {
 181:C:/Workspaces/DAVE-4.4.2-64Bit/_PKDS_TSTS06_811_X47_V1_0/Dave/Generated/DIGITAL_IO\digital_io.h **** *
 182:C:/Workspaces/DAVE-4.4.2-64Bit/_PKDS_TSTS06_811_X47_V1_0/Dave/Generated/DIGITAL_IO\digital_io.h **** *     }
 183:C:/Workspaces/DAVE-4.4.2-64Bit/_PKDS_TSTS06_811_X47_V1_0/Dave/Generated/DIGITAL_IO\digital_io.h **** *     return (1);
 184:C:/Workspaces/DAVE-4.4.2-64Bit/_PKDS_TSTS06_811_X47_V1_0/Dave/Generated/DIGITAL_IO\digital_io.h **** *  }
 185:C:/Workspaces/DAVE-4.4.2-64Bit/_PKDS_TSTS06_811_X47_V1_0/Dave/Generated/DIGITAL_IO\digital_io.h **** * @endcode<BR>
 186:C:/Workspaces/DAVE-4.4.2-64Bit/_PKDS_TSTS06_811_X47_V1_0/Dave/Generated/DIGITAL_IO\digital_io.h **** */
 187:C:/Workspaces/DAVE-4.4.2-64Bit/_PKDS_TSTS06_811_X47_V1_0/Dave/Generated/DIGITAL_IO\digital_io.h **** 
 188:C:/Workspaces/DAVE-4.4.2-64Bit/_PKDS_TSTS06_811_X47_V1_0/Dave/Generated/DIGITAL_IO\digital_io.h **** DAVE_APP_VERSION_t DIGITAL_IO_GetAppVersion(void);
 189:C:/Workspaces/DAVE-4.4.2-64Bit/_PKDS_TSTS06_811_X47_V1_0/Dave/Generated/DIGITAL_IO\digital_io.h **** 
 190:C:/Workspaces/DAVE-4.4.2-64Bit/_PKDS_TSTS06_811_X47_V1_0/Dave/Generated/DIGITAL_IO\digital_io.h **** /**
 191:C:/Workspaces/DAVE-4.4.2-64Bit/_PKDS_TSTS06_811_X47_V1_0/Dave/Generated/DIGITAL_IO\digital_io.h **** *
 192:C:/Workspaces/DAVE-4.4.2-64Bit/_PKDS_TSTS06_811_X47_V1_0/Dave/Generated/DIGITAL_IO\digital_io.h **** * @brief Function to initialize the port pin as per UI settings.
 193:C:/Workspaces/DAVE-4.4.2-64Bit/_PKDS_TSTS06_811_X47_V1_0/Dave/Generated/DIGITAL_IO\digital_io.h **** * @param handler Pointer pointing to APP data structure. Refer @ref DIGITAL_IO_t for details.
 194:C:/Workspaces/DAVE-4.4.2-64Bit/_PKDS_TSTS06_811_X47_V1_0/Dave/Generated/DIGITAL_IO\digital_io.h **** * @return DIGITAL_IO_STATUS_t DIGITAL_IO APP status. Refer @ref DIGITAL_IO_STATUS_t structure for d
 195:C:/Workspaces/DAVE-4.4.2-64Bit/_PKDS_TSTS06_811_X47_V1_0/Dave/Generated/DIGITAL_IO\digital_io.h **** *
 196:C:/Workspaces/DAVE-4.4.2-64Bit/_PKDS_TSTS06_811_X47_V1_0/Dave/Generated/DIGITAL_IO\digital_io.h **** * \par<b>Description:</b><br>
 197:C:/Workspaces/DAVE-4.4.2-64Bit/_PKDS_TSTS06_811_X47_V1_0/Dave/Generated/DIGITAL_IO\digital_io.h **** * This function initializes GPIO port registers IOCR,PDISC,OMR,PDR/PHCR to configure pin direction,
 198:C:/Workspaces/DAVE-4.4.2-64Bit/_PKDS_TSTS06_811_X47_V1_0/Dave/Generated/DIGITAL_IO\digital_io.h **** * and pad driver strength/hysteresis.
 199:C:/Workspaces/DAVE-4.4.2-64Bit/_PKDS_TSTS06_811_X47_V1_0/Dave/Generated/DIGITAL_IO\digital_io.h **** *
 200:C:/Workspaces/DAVE-4.4.2-64Bit/_PKDS_TSTS06_811_X47_V1_0/Dave/Generated/DIGITAL_IO\digital_io.h **** * \par<b>Related APIs:</b><BR>
 201:C:/Workspaces/DAVE-4.4.2-64Bit/_PKDS_TSTS06_811_X47_V1_0/Dave/Generated/DIGITAL_IO\digital_io.h **** * None
 202:C:/Workspaces/DAVE-4.4.2-64Bit/_PKDS_TSTS06_811_X47_V1_0/Dave/Generated/DIGITAL_IO\digital_io.h **** *
 203:C:/Workspaces/DAVE-4.4.2-64Bit/_PKDS_TSTS06_811_X47_V1_0/Dave/Generated/DIGITAL_IO\digital_io.h **** * Example Usage:
 204:C:/Workspaces/DAVE-4.4.2-64Bit/_PKDS_TSTS06_811_X47_V1_0/Dave/Generated/DIGITAL_IO\digital_io.h **** * @code
 205:C:/Workspaces/DAVE-4.4.2-64Bit/_PKDS_TSTS06_811_X47_V1_0/Dave/Generated/DIGITAL_IO\digital_io.h **** * #include "DAVE.h" //Declarations from DAVE Code Generation (includes SFR declaration)
 206:C:/Workspaces/DAVE-4.4.2-64Bit/_PKDS_TSTS06_811_X47_V1_0/Dave/Generated/DIGITAL_IO\digital_io.h **** *
 207:C:/Workspaces/DAVE-4.4.2-64Bit/_PKDS_TSTS06_811_X47_V1_0/Dave/Generated/DIGITAL_IO\digital_io.h **** * int main(void)
 208:C:/Workspaces/DAVE-4.4.2-64Bit/_PKDS_TSTS06_811_X47_V1_0/Dave/Generated/DIGITAL_IO\digital_io.h **** * {
 209:C:/Workspaces/DAVE-4.4.2-64Bit/_PKDS_TSTS06_811_X47_V1_0/Dave/Generated/DIGITAL_IO\digital_io.h **** *   DAVE_STATUS_t status;
 210:C:/Workspaces/DAVE-4.4.2-64Bit/_PKDS_TSTS06_811_X47_V1_0/Dave/Generated/DIGITAL_IO\digital_io.h **** *   status = DAVE_Init();  //(DAVE_STATUS_t)DIGITAL_IO_Init(&DIGITAL_IO_0) is called within DAVE_In
 211:C:/Workspaces/DAVE-4.4.2-64Bit/_PKDS_TSTS06_811_X47_V1_0/Dave/Generated/DIGITAL_IO\digital_io.h **** *   if(status == DAVE_STATUS_SUCCESS)
 212:C:/Workspaces/DAVE-4.4.2-64Bit/_PKDS_TSTS06_811_X47_V1_0/Dave/Generated/DIGITAL_IO\digital_io.h **** *   {
 213:C:/Workspaces/DAVE-4.4.2-64Bit/_PKDS_TSTS06_811_X47_V1_0/Dave/Generated/DIGITAL_IO\digital_io.h **** *     XMC_DEBUG("DAVE Apps initialization success\n");
 214:C:/Workspaces/DAVE-4.4.2-64Bit/_PKDS_TSTS06_811_X47_V1_0/Dave/Generated/DIGITAL_IO\digital_io.h **** *   }
 215:C:/Workspaces/DAVE-4.4.2-64Bit/_PKDS_TSTS06_811_X47_V1_0/Dave/Generated/DIGITAL_IO\digital_io.h **** *   else
 216:C:/Workspaces/DAVE-4.4.2-64Bit/_PKDS_TSTS06_811_X47_V1_0/Dave/Generated/DIGITAL_IO\digital_io.h **** *   {
 217:C:/Workspaces/DAVE-4.4.2-64Bit/_PKDS_TSTS06_811_X47_V1_0/Dave/Generated/DIGITAL_IO\digital_io.h **** *     XMC_DEBUG(("DAVE Apps initialization failed with status %d\n", status));
 218:C:/Workspaces/DAVE-4.4.2-64Bit/_PKDS_TSTS06_811_X47_V1_0/Dave/Generated/DIGITAL_IO\digital_io.h **** *     while(1U)
 219:C:/Workspaces/DAVE-4.4.2-64Bit/_PKDS_TSTS06_811_X47_V1_0/Dave/Generated/DIGITAL_IO\digital_io.h **** *     {
 220:C:/Workspaces/DAVE-4.4.2-64Bit/_PKDS_TSTS06_811_X47_V1_0/Dave/Generated/DIGITAL_IO\digital_io.h **** *     }
 221:C:/Workspaces/DAVE-4.4.2-64Bit/_PKDS_TSTS06_811_X47_V1_0/Dave/Generated/DIGITAL_IO\digital_io.h **** *   }
 222:C:/Workspaces/DAVE-4.4.2-64Bit/_PKDS_TSTS06_811_X47_V1_0/Dave/Generated/DIGITAL_IO\digital_io.h **** *   //Placeholder for user application code. The while loop below can be replaced with user applica
 223:C:/Workspaces/DAVE-4.4.2-64Bit/_PKDS_TSTS06_811_X47_V1_0/Dave/Generated/DIGITAL_IO\digital_io.h **** *   while(1U)
 224:C:/Workspaces/DAVE-4.4.2-64Bit/_PKDS_TSTS06_811_X47_V1_0/Dave/Generated/DIGITAL_IO\digital_io.h **** *   {
 225:C:/Workspaces/DAVE-4.4.2-64Bit/_PKDS_TSTS06_811_X47_V1_0/Dave/Generated/DIGITAL_IO\digital_io.h **** *   }
 226:C:/Workspaces/DAVE-4.4.2-64Bit/_PKDS_TSTS06_811_X47_V1_0/Dave/Generated/DIGITAL_IO\digital_io.h **** *   return 1U;
 227:C:/Workspaces/DAVE-4.4.2-64Bit/_PKDS_TSTS06_811_X47_V1_0/Dave/Generated/DIGITAL_IO\digital_io.h **** *  }
 228:C:/Workspaces/DAVE-4.4.2-64Bit/_PKDS_TSTS06_811_X47_V1_0/Dave/Generated/DIGITAL_IO\digital_io.h **** *  @endcode
 229:C:/Workspaces/DAVE-4.4.2-64Bit/_PKDS_TSTS06_811_X47_V1_0/Dave/Generated/DIGITAL_IO\digital_io.h **** */
 230:C:/Workspaces/DAVE-4.4.2-64Bit/_PKDS_TSTS06_811_X47_V1_0/Dave/Generated/DIGITAL_IO\digital_io.h **** 
 231:C:/Workspaces/DAVE-4.4.2-64Bit/_PKDS_TSTS06_811_X47_V1_0/Dave/Generated/DIGITAL_IO\digital_io.h **** DIGITAL_IO_STATUS_t DIGITAL_IO_Init(const DIGITAL_IO_t *const handler);
 232:C:/Workspaces/DAVE-4.4.2-64Bit/_PKDS_TSTS06_811_X47_V1_0/Dave/Generated/DIGITAL_IO\digital_io.h **** 
 233:C:/Workspaces/DAVE-4.4.2-64Bit/_PKDS_TSTS06_811_X47_V1_0/Dave/Generated/DIGITAL_IO\digital_io.h **** /**
 234:C:/Workspaces/DAVE-4.4.2-64Bit/_PKDS_TSTS06_811_X47_V1_0/Dave/Generated/DIGITAL_IO\digital_io.h **** *
 235:C:/Workspaces/DAVE-4.4.2-64Bit/_PKDS_TSTS06_811_X47_V1_0/Dave/Generated/DIGITAL_IO\digital_io.h **** * @brief Function to set port pin high.
 236:C:/Workspaces/DAVE-4.4.2-64Bit/_PKDS_TSTS06_811_X47_V1_0/Dave/Generated/DIGITAL_IO\digital_io.h **** * @param handler Pointer pointing to APP data structure. Refer @ref DIGITAL_IO_t for details.
 237:C:/Workspaces/DAVE-4.4.2-64Bit/_PKDS_TSTS06_811_X47_V1_0/Dave/Generated/DIGITAL_IO\digital_io.h **** * @return None
 238:C:/Workspaces/DAVE-4.4.2-64Bit/_PKDS_TSTS06_811_X47_V1_0/Dave/Generated/DIGITAL_IO\digital_io.h **** *
 239:C:/Workspaces/DAVE-4.4.2-64Bit/_PKDS_TSTS06_811_X47_V1_0/Dave/Generated/DIGITAL_IO\digital_io.h **** * \par<b>Description:</b><br>
 240:C:/Workspaces/DAVE-4.4.2-64Bit/_PKDS_TSTS06_811_X47_V1_0/Dave/Generated/DIGITAL_IO\digital_io.h **** * This function configures port output modification register Pn_OMR, to make port pin to high level
 241:C:/Workspaces/DAVE-4.4.2-64Bit/_PKDS_TSTS06_811_X47_V1_0/Dave/Generated/DIGITAL_IO\digital_io.h **** *
 242:C:/Workspaces/DAVE-4.4.2-64Bit/_PKDS_TSTS06_811_X47_V1_0/Dave/Generated/DIGITAL_IO\digital_io.h **** * \par<b>Related APIs:</b><BR>
 243:C:/Workspaces/DAVE-4.4.2-64Bit/_PKDS_TSTS06_811_X47_V1_0/Dave/Generated/DIGITAL_IO\digital_io.h **** *  DIGITAL_IO_SetOutputLow()
 244:C:/Workspaces/DAVE-4.4.2-64Bit/_PKDS_TSTS06_811_X47_V1_0/Dave/Generated/DIGITAL_IO\digital_io.h **** *
 245:C:/Workspaces/DAVE-4.4.2-64Bit/_PKDS_TSTS06_811_X47_V1_0/Dave/Generated/DIGITAL_IO\digital_io.h **** * Example Usage:
 246:C:/Workspaces/DAVE-4.4.2-64Bit/_PKDS_TSTS06_811_X47_V1_0/Dave/Generated/DIGITAL_IO\digital_io.h **** * @code
 247:C:/Workspaces/DAVE-4.4.2-64Bit/_PKDS_TSTS06_811_X47_V1_0/Dave/Generated/DIGITAL_IO\digital_io.h **** * #include "DAVE.h" //Declarations from DAVE Code Generation (includes SFR declaration)
 248:C:/Workspaces/DAVE-4.4.2-64Bit/_PKDS_TSTS06_811_X47_V1_0/Dave/Generated/DIGITAL_IO\digital_io.h **** *
 249:C:/Workspaces/DAVE-4.4.2-64Bit/_PKDS_TSTS06_811_X47_V1_0/Dave/Generated/DIGITAL_IO\digital_io.h **** * int main(void)
 250:C:/Workspaces/DAVE-4.4.2-64Bit/_PKDS_TSTS06_811_X47_V1_0/Dave/Generated/DIGITAL_IO\digital_io.h **** * {
 251:C:/Workspaces/DAVE-4.4.2-64Bit/_PKDS_TSTS06_811_X47_V1_0/Dave/Generated/DIGITAL_IO\digital_io.h **** *   DAVE_STATUS_t status;
 252:C:/Workspaces/DAVE-4.4.2-64Bit/_PKDS_TSTS06_811_X47_V1_0/Dave/Generated/DIGITAL_IO\digital_io.h **** *   status = DAVE_Init();  //(DAVE_STATUS_t)DIGITAL_IO_Init(&DIGITAL_IO_0) is called within DAVE_In
 253:C:/Workspaces/DAVE-4.4.2-64Bit/_PKDS_TSTS06_811_X47_V1_0/Dave/Generated/DIGITAL_IO\digital_io.h **** *   if(status == DAVE_STATUS_SUCCESS)
 254:C:/Workspaces/DAVE-4.4.2-64Bit/_PKDS_TSTS06_811_X47_V1_0/Dave/Generated/DIGITAL_IO\digital_io.h **** *   {
 255:C:/Workspaces/DAVE-4.4.2-64Bit/_PKDS_TSTS06_811_X47_V1_0/Dave/Generated/DIGITAL_IO\digital_io.h **** *     XMC_DEBUG("DAVE Apps initialization success\n");
 256:C:/Workspaces/DAVE-4.4.2-64Bit/_PKDS_TSTS06_811_X47_V1_0/Dave/Generated/DIGITAL_IO\digital_io.h **** *   }
 257:C:/Workspaces/DAVE-4.4.2-64Bit/_PKDS_TSTS06_811_X47_V1_0/Dave/Generated/DIGITAL_IO\digital_io.h **** *   else
 258:C:/Workspaces/DAVE-4.4.2-64Bit/_PKDS_TSTS06_811_X47_V1_0/Dave/Generated/DIGITAL_IO\digital_io.h **** *   {
 259:C:/Workspaces/DAVE-4.4.2-64Bit/_PKDS_TSTS06_811_X47_V1_0/Dave/Generated/DIGITAL_IO\digital_io.h **** *     XMC_DEBUG(("DAVE Apps initialization failed with status %d\n", status));
 260:C:/Workspaces/DAVE-4.4.2-64Bit/_PKDS_TSTS06_811_X47_V1_0/Dave/Generated/DIGITAL_IO\digital_io.h **** *     while(1U)
 261:C:/Workspaces/DAVE-4.4.2-64Bit/_PKDS_TSTS06_811_X47_V1_0/Dave/Generated/DIGITAL_IO\digital_io.h **** *     {
 262:C:/Workspaces/DAVE-4.4.2-64Bit/_PKDS_TSTS06_811_X47_V1_0/Dave/Generated/DIGITAL_IO\digital_io.h **** *     }
 263:C:/Workspaces/DAVE-4.4.2-64Bit/_PKDS_TSTS06_811_X47_V1_0/Dave/Generated/DIGITAL_IO\digital_io.h **** *   }
 264:C:/Workspaces/DAVE-4.4.2-64Bit/_PKDS_TSTS06_811_X47_V1_0/Dave/Generated/DIGITAL_IO\digital_io.h **** *   //Placeholder for user application code. The while loop below can be replaced with user applica
 265:C:/Workspaces/DAVE-4.4.2-64Bit/_PKDS_TSTS06_811_X47_V1_0/Dave/Generated/DIGITAL_IO\digital_io.h **** *   DIGITAL_IO_SetOutputHigh(&DIGITAL_IO_0);
 266:C:/Workspaces/DAVE-4.4.2-64Bit/_PKDS_TSTS06_811_X47_V1_0/Dave/Generated/DIGITAL_IO\digital_io.h **** *   while(1U)
 267:C:/Workspaces/DAVE-4.4.2-64Bit/_PKDS_TSTS06_811_X47_V1_0/Dave/Generated/DIGITAL_IO\digital_io.h **** *   {
 268:C:/Workspaces/DAVE-4.4.2-64Bit/_PKDS_TSTS06_811_X47_V1_0/Dave/Generated/DIGITAL_IO\digital_io.h **** *     // Add application code here
 269:C:/Workspaces/DAVE-4.4.2-64Bit/_PKDS_TSTS06_811_X47_V1_0/Dave/Generated/DIGITAL_IO\digital_io.h **** *   }
 270:C:/Workspaces/DAVE-4.4.2-64Bit/_PKDS_TSTS06_811_X47_V1_0/Dave/Generated/DIGITAL_IO\digital_io.h **** *
 271:C:/Workspaces/DAVE-4.4.2-64Bit/_PKDS_TSTS06_811_X47_V1_0/Dave/Generated/DIGITAL_IO\digital_io.h **** *   return (1);
 272:C:/Workspaces/DAVE-4.4.2-64Bit/_PKDS_TSTS06_811_X47_V1_0/Dave/Generated/DIGITAL_IO\digital_io.h **** * }
 273:C:/Workspaces/DAVE-4.4.2-64Bit/_PKDS_TSTS06_811_X47_V1_0/Dave/Generated/DIGITAL_IO\digital_io.h **** *  @endcode
 274:C:/Workspaces/DAVE-4.4.2-64Bit/_PKDS_TSTS06_811_X47_V1_0/Dave/Generated/DIGITAL_IO\digital_io.h **** */
 275:C:/Workspaces/DAVE-4.4.2-64Bit/_PKDS_TSTS06_811_X47_V1_0/Dave/Generated/DIGITAL_IO\digital_io.h **** 
 276:C:/Workspaces/DAVE-4.4.2-64Bit/_PKDS_TSTS06_811_X47_V1_0/Dave/Generated/DIGITAL_IO\digital_io.h **** __STATIC_INLINE void DIGITAL_IO_SetOutputHigh(const DIGITAL_IO_t *const handler)
 277:C:/Workspaces/DAVE-4.4.2-64Bit/_PKDS_TSTS06_811_X47_V1_0/Dave/Generated/DIGITAL_IO\digital_io.h **** {
 130              	 .loc 2 277 1
 131              	 .cfi_startproc
 132              	 
 133              	 
 134 0000 80B5     	 push {r7,lr}
 135              	.LCFI12:
 136              	 .cfi_def_cfa_offset 8
 137              	 .cfi_offset 7,-8
 138              	 .cfi_offset 14,-4
 139 0002 82B0     	 sub sp,sp,#8
 140              	.LCFI13:
 141              	 .cfi_def_cfa_offset 16
 142 0004 00AF     	 add r7,sp,#0
 143              	.LCFI14:
 144              	 .cfi_def_cfa_register 7
 145 0006 7860     	 str r0,[r7,#4]
 278:C:/Workspaces/DAVE-4.4.2-64Bit/_PKDS_TSTS06_811_X47_V1_0/Dave/Generated/DIGITAL_IO\digital_io.h ****   XMC_ASSERT("DIGITAL_IO_SetOutputHigh: handler null pointer", handler != NULL);
 279:C:/Workspaces/DAVE-4.4.2-64Bit/_PKDS_TSTS06_811_X47_V1_0/Dave/Generated/DIGITAL_IO\digital_io.h ****   XMC_GPIO_SetOutputHigh(handler->gpio_port, handler->gpio_pin);
 146              	 .loc 2 279 3
 147 0008 7B68     	 ldr r3,[r7,#4]
 148 000a 1A68     	 ldr r2,[r3]
 149 000c 7B68     	 ldr r3,[r7,#4]
 150 000e 1B7C     	 ldrb r3,[r3,#16]
 151 0010 1946     	 mov r1,r3
 152 0012 1046     	 mov r0,r2
 153 0014 FFF7FEFF 	 bl XMC_GPIO_SetOutputHigh
 280:C:/Workspaces/DAVE-4.4.2-64Bit/_PKDS_TSTS06_811_X47_V1_0/Dave/Generated/DIGITAL_IO\digital_io.h **** }
 154              	 .loc 2 280 1
 155 0018 00BF     	 nop
 156 001a 0837     	 adds r7,r7,#8
 157              	.LCFI15:
 158              	 .cfi_def_cfa_offset 8
 159 001c BD46     	 mov sp,r7
 160              	.LCFI16:
 161              	 .cfi_def_cfa_register 13
 162              	 
 163 001e 80BD     	 pop {r7,pc}
 164              	 .cfi_endproc
 165              	.LFE143:
 167              	 .section .text.DIGITAL_IO_SetOutputLow,"ax",%progbits
 168              	 .align 1
 169              	 .syntax unified
 170              	 .thumb
 171              	 .thumb_func
 172              	 .fpu fpv4-sp-d16
 174              	DIGITAL_IO_SetOutputLow:
 175              	.LFB144:
 281:C:/Workspaces/DAVE-4.4.2-64Bit/_PKDS_TSTS06_811_X47_V1_0/Dave/Generated/DIGITAL_IO\digital_io.h **** 
 282:C:/Workspaces/DAVE-4.4.2-64Bit/_PKDS_TSTS06_811_X47_V1_0/Dave/Generated/DIGITAL_IO\digital_io.h **** /**
 283:C:/Workspaces/DAVE-4.4.2-64Bit/_PKDS_TSTS06_811_X47_V1_0/Dave/Generated/DIGITAL_IO\digital_io.h **** * @brief Function to reset port pin.
 284:C:/Workspaces/DAVE-4.4.2-64Bit/_PKDS_TSTS06_811_X47_V1_0/Dave/Generated/DIGITAL_IO\digital_io.h **** * @param handler Pointer pointing to APP data structure. Refer @ref DIGITAL_IO_t for details.
 285:C:/Workspaces/DAVE-4.4.2-64Bit/_PKDS_TSTS06_811_X47_V1_0/Dave/Generated/DIGITAL_IO\digital_io.h **** * @return None
 286:C:/Workspaces/DAVE-4.4.2-64Bit/_PKDS_TSTS06_811_X47_V1_0/Dave/Generated/DIGITAL_IO\digital_io.h **** *
 287:C:/Workspaces/DAVE-4.4.2-64Bit/_PKDS_TSTS06_811_X47_V1_0/Dave/Generated/DIGITAL_IO\digital_io.h **** * \par<b>Description:</b><br>
 288:C:/Workspaces/DAVE-4.4.2-64Bit/_PKDS_TSTS06_811_X47_V1_0/Dave/Generated/DIGITAL_IO\digital_io.h **** * This function configures port output modification register Pn_OMR, to make port pin to low level.
 289:C:/Workspaces/DAVE-4.4.2-64Bit/_PKDS_TSTS06_811_X47_V1_0/Dave/Generated/DIGITAL_IO\digital_io.h **** *
 290:C:/Workspaces/DAVE-4.4.2-64Bit/_PKDS_TSTS06_811_X47_V1_0/Dave/Generated/DIGITAL_IO\digital_io.h **** * \par<b>Related APIs:</b><BR>
 291:C:/Workspaces/DAVE-4.4.2-64Bit/_PKDS_TSTS06_811_X47_V1_0/Dave/Generated/DIGITAL_IO\digital_io.h **** * DIGITAL_IO_SetOutputHigh()
 292:C:/Workspaces/DAVE-4.4.2-64Bit/_PKDS_TSTS06_811_X47_V1_0/Dave/Generated/DIGITAL_IO\digital_io.h **** *
 293:C:/Workspaces/DAVE-4.4.2-64Bit/_PKDS_TSTS06_811_X47_V1_0/Dave/Generated/DIGITAL_IO\digital_io.h **** * Example Usage:
 294:C:/Workspaces/DAVE-4.4.2-64Bit/_PKDS_TSTS06_811_X47_V1_0/Dave/Generated/DIGITAL_IO\digital_io.h **** * @code
 295:C:/Workspaces/DAVE-4.4.2-64Bit/_PKDS_TSTS06_811_X47_V1_0/Dave/Generated/DIGITAL_IO\digital_io.h **** *  #include "DAVE.h" //Declarations from DAVE Code Generation (includes SFR declaration)
 296:C:/Workspaces/DAVE-4.4.2-64Bit/_PKDS_TSTS06_811_X47_V1_0/Dave/Generated/DIGITAL_IO\digital_io.h **** *
 297:C:/Workspaces/DAVE-4.4.2-64Bit/_PKDS_TSTS06_811_X47_V1_0/Dave/Generated/DIGITAL_IO\digital_io.h **** *  int main(void)
 298:C:/Workspaces/DAVE-4.4.2-64Bit/_PKDS_TSTS06_811_X47_V1_0/Dave/Generated/DIGITAL_IO\digital_io.h **** *  {
 299:C:/Workspaces/DAVE-4.4.2-64Bit/_PKDS_TSTS06_811_X47_V1_0/Dave/Generated/DIGITAL_IO\digital_io.h **** *    DAVE_STATUS_t status;
 300:C:/Workspaces/DAVE-4.4.2-64Bit/_PKDS_TSTS06_811_X47_V1_0/Dave/Generated/DIGITAL_IO\digital_io.h **** *    status = DAVE_Init();  //(DAVE_STATUS_t)DIGITAL_IO_Init(&DIGITAL_IO_0) is called within DAVE_I
 301:C:/Workspaces/DAVE-4.4.2-64Bit/_PKDS_TSTS06_811_X47_V1_0/Dave/Generated/DIGITAL_IO\digital_io.h **** *    if(status == DAVE_STATUS_SUCCESS)
 302:C:/Workspaces/DAVE-4.4.2-64Bit/_PKDS_TSTS06_811_X47_V1_0/Dave/Generated/DIGITAL_IO\digital_io.h **** *    {
 303:C:/Workspaces/DAVE-4.4.2-64Bit/_PKDS_TSTS06_811_X47_V1_0/Dave/Generated/DIGITAL_IO\digital_io.h **** *      XMC_DEBUG("DAVE Apps initialization success\n");
 304:C:/Workspaces/DAVE-4.4.2-64Bit/_PKDS_TSTS06_811_X47_V1_0/Dave/Generated/DIGITAL_IO\digital_io.h **** *    }
 305:C:/Workspaces/DAVE-4.4.2-64Bit/_PKDS_TSTS06_811_X47_V1_0/Dave/Generated/DIGITAL_IO\digital_io.h **** *    else
 306:C:/Workspaces/DAVE-4.4.2-64Bit/_PKDS_TSTS06_811_X47_V1_0/Dave/Generated/DIGITAL_IO\digital_io.h **** *    {
 307:C:/Workspaces/DAVE-4.4.2-64Bit/_PKDS_TSTS06_811_X47_V1_0/Dave/Generated/DIGITAL_IO\digital_io.h **** *      XMC_DEBUG(("DAVE Apps initialization failed with status %d\n", status));
 308:C:/Workspaces/DAVE-4.4.2-64Bit/_PKDS_TSTS06_811_X47_V1_0/Dave/Generated/DIGITAL_IO\digital_io.h **** *      while(1U)
 309:C:/Workspaces/DAVE-4.4.2-64Bit/_PKDS_TSTS06_811_X47_V1_0/Dave/Generated/DIGITAL_IO\digital_io.h **** *      {
 310:C:/Workspaces/DAVE-4.4.2-64Bit/_PKDS_TSTS06_811_X47_V1_0/Dave/Generated/DIGITAL_IO\digital_io.h **** *      }
 311:C:/Workspaces/DAVE-4.4.2-64Bit/_PKDS_TSTS06_811_X47_V1_0/Dave/Generated/DIGITAL_IO\digital_io.h **** *    }
 312:C:/Workspaces/DAVE-4.4.2-64Bit/_PKDS_TSTS06_811_X47_V1_0/Dave/Generated/DIGITAL_IO\digital_io.h **** *    //Placeholder for user application code. The while loop below can be replaced with user applic
 313:C:/Workspaces/DAVE-4.4.2-64Bit/_PKDS_TSTS06_811_X47_V1_0/Dave/Generated/DIGITAL_IO\digital_io.h **** *    DIGITAL_IO_SetOutputLow(&DIGITAL_IO_0);
 314:C:/Workspaces/DAVE-4.4.2-64Bit/_PKDS_TSTS06_811_X47_V1_0/Dave/Generated/DIGITAL_IO\digital_io.h **** *    while(1U)
 315:C:/Workspaces/DAVE-4.4.2-64Bit/_PKDS_TSTS06_811_X47_V1_0/Dave/Generated/DIGITAL_IO\digital_io.h **** *    {
 316:C:/Workspaces/DAVE-4.4.2-64Bit/_PKDS_TSTS06_811_X47_V1_0/Dave/Generated/DIGITAL_IO\digital_io.h **** *      // Add application code here
 317:C:/Workspaces/DAVE-4.4.2-64Bit/_PKDS_TSTS06_811_X47_V1_0/Dave/Generated/DIGITAL_IO\digital_io.h **** *    }
 318:C:/Workspaces/DAVE-4.4.2-64Bit/_PKDS_TSTS06_811_X47_V1_0/Dave/Generated/DIGITAL_IO\digital_io.h **** *
 319:C:/Workspaces/DAVE-4.4.2-64Bit/_PKDS_TSTS06_811_X47_V1_0/Dave/Generated/DIGITAL_IO\digital_io.h **** *   return (1);
 320:C:/Workspaces/DAVE-4.4.2-64Bit/_PKDS_TSTS06_811_X47_V1_0/Dave/Generated/DIGITAL_IO\digital_io.h **** * }
 321:C:/Workspaces/DAVE-4.4.2-64Bit/_PKDS_TSTS06_811_X47_V1_0/Dave/Generated/DIGITAL_IO\digital_io.h **** *  @endcode
 322:C:/Workspaces/DAVE-4.4.2-64Bit/_PKDS_TSTS06_811_X47_V1_0/Dave/Generated/DIGITAL_IO\digital_io.h **** */
 323:C:/Workspaces/DAVE-4.4.2-64Bit/_PKDS_TSTS06_811_X47_V1_0/Dave/Generated/DIGITAL_IO\digital_io.h **** 
 324:C:/Workspaces/DAVE-4.4.2-64Bit/_PKDS_TSTS06_811_X47_V1_0/Dave/Generated/DIGITAL_IO\digital_io.h **** __STATIC_INLINE void DIGITAL_IO_SetOutputLow(const DIGITAL_IO_t *const handler)
 325:C:/Workspaces/DAVE-4.4.2-64Bit/_PKDS_TSTS06_811_X47_V1_0/Dave/Generated/DIGITAL_IO\digital_io.h **** {
 176              	 .loc 2 325 1
 177              	 .cfi_startproc
 178              	 
 179              	 
 180 0000 80B5     	 push {r7,lr}
 181              	.LCFI17:
 182              	 .cfi_def_cfa_offset 8
 183              	 .cfi_offset 7,-8
 184              	 .cfi_offset 14,-4
 185 0002 82B0     	 sub sp,sp,#8
 186              	.LCFI18:
 187              	 .cfi_def_cfa_offset 16
 188 0004 00AF     	 add r7,sp,#0
 189              	.LCFI19:
 190              	 .cfi_def_cfa_register 7
 191 0006 7860     	 str r0,[r7,#4]
 326:C:/Workspaces/DAVE-4.4.2-64Bit/_PKDS_TSTS06_811_X47_V1_0/Dave/Generated/DIGITAL_IO\digital_io.h ****   XMC_ASSERT("DIGITAL_IO_SetOutputLow: handler null pointer", handler != NULL);
 327:C:/Workspaces/DAVE-4.4.2-64Bit/_PKDS_TSTS06_811_X47_V1_0/Dave/Generated/DIGITAL_IO\digital_io.h ****   XMC_GPIO_SetOutputLow(handler->gpio_port,handler->gpio_pin);
 192              	 .loc 2 327 3
 193 0008 7B68     	 ldr r3,[r7,#4]
 194 000a 1A68     	 ldr r2,[r3]
 195 000c 7B68     	 ldr r3,[r7,#4]
 196 000e 1B7C     	 ldrb r3,[r3,#16]
 197 0010 1946     	 mov r1,r3
 198 0012 1046     	 mov r0,r2
 199 0014 FFF7FEFF 	 bl XMC_GPIO_SetOutputLow
 328:C:/Workspaces/DAVE-4.4.2-64Bit/_PKDS_TSTS06_811_X47_V1_0/Dave/Generated/DIGITAL_IO\digital_io.h **** }
 200              	 .loc 2 328 1
 201 0018 00BF     	 nop
 202 001a 0837     	 adds r7,r7,#8
 203              	.LCFI20:
 204              	 .cfi_def_cfa_offset 8
 205 001c BD46     	 mov sp,r7
 206              	.LCFI21:
 207              	 .cfi_def_cfa_register 13
 208              	 
 209 001e 80BD     	 pop {r7,pc}
 210              	 .cfi_endproc
 211              	.LFE144:
 213              	 .global led_rubber
 214              	 .section .bss.led_rubber,"aw",%nobits
 215              	 .align 2
 218              	led_rubber:
 219 0000 00000000 	 .space 24
 219      00000000 
 219      00000000 
 219      00000000 
 219      00000000 
 220              	 .global LedPwmTimer
 221              	 .section .bss.LedPwmTimer,"aw",%nobits
 222              	 .align 2
 225              	LedPwmTimer:
 226 0000 00000000 	 .space 4
 227              	 .section .text.InitLedRubber,"ax",%progbits
 228              	 .align 1
 229              	 .global InitLedRubber
 230              	 .syntax unified
 231              	 .thumb
 232              	 .thumb_func
 233              	 .fpu fpv4-sp-d16
 235              	InitLedRubber:
 236              	.LFB385:
 237              	 .file 3 "../MainAlg/Peripherials/LedRubber.c"
   1:../MainAlg/Peripherials/LedRubber.c **** /*
   2:../MainAlg/Peripherials/LedRubber.c ****  * LedRubber.c
   3:../MainAlg/Peripherials/LedRubber.c ****  *
   4:../MainAlg/Peripherials/LedRubber.c ****  *  Created on: Sep 27, 2022
   5:../MainAlg/Peripherials/LedRubber.c ****  *      Author: kendor
   6:../MainAlg/Peripherials/LedRubber.c ****  */
   7:../MainAlg/Peripherials/LedRubber.c **** #include "LedRubber.h"
   8:../MainAlg/Peripherials/LedRubber.c **** #include "DAVE.h"
   9:../MainAlg/Peripherials/LedRubber.c **** #include "xmc_common.h"
  10:../MainAlg/Peripherials/LedRubber.c **** #include "MainAlg/main_alg.h"
  11:../MainAlg/Peripherials/LedRubber.c **** 
  12:../MainAlg/Peripherials/LedRubber.c **** 
  13:../MainAlg/Peripherials/LedRubber.c **** #define INTER_RUBBER_PERCENT 20
  14:../MainAlg/Peripherials/LedRubber.c **** #define OUTER_RUBBER_PERCENT 50
  15:../MainAlg/Peripherials/LedRubber.c **** 
  16:../MainAlg/Peripherials/LedRubber.c **** LED_RUBBER_LIGHT_t led_rubber;
  17:../MainAlg/Peripherials/LedRubber.c **** int32_t LedPwmTimer = 0;
  18:../MainAlg/Peripherials/LedRubber.c **** 
  19:../MainAlg/Peripherials/LedRubber.c **** 
  20:../MainAlg/Peripherials/LedRubber.c **** 
  21:../MainAlg/Peripherials/LedRubber.c **** void InitLedRubber(int32_t mode)
  22:../MainAlg/Peripherials/LedRubber.c **** {
 238              	 .loc 3 22 1
 239              	 .cfi_startproc
 240              	 
 241              	 
 242 0000 80B5     	 push {r7,lr}
 243              	.LCFI22:
 244              	 .cfi_def_cfa_offset 8
 245              	 .cfi_offset 7,-8
 246              	 .cfi_offset 14,-4
 247 0002 82B0     	 sub sp,sp,#8
 248              	.LCFI23:
 249              	 .cfi_def_cfa_offset 16
 250 0004 00AF     	 add r7,sp,#0
 251              	.LCFI24:
 252              	 .cfi_def_cfa_register 7
 253 0006 7860     	 str r0,[r7,#4]
  23:../MainAlg/Peripherials/LedRubber.c **** 	if(mode == MODE_ON)
 254              	 .loc 3 23 4
 255 0008 7B68     	 ldr r3,[r7,#4]
 256 000a 012B     	 cmp r3,#1
 257 000c 18D1     	 bne .L8
  24:../MainAlg/Peripherials/LedRubber.c **** 	{
  25:../MainAlg/Peripherials/LedRubber.c **** 		  LedPwmTimer = SYSTIMER_CreateTimer(100, SYSTIMER_MODE_PERIODIC, LedPwmTimerProc, NULL );
 258              	 .loc 3 25 19
 259 000e 0023     	 movs r3,#0
 260 0010 0D4A     	 ldr r2,.L9
 261 0012 0121     	 movs r1,#1
 262 0014 6420     	 movs r0,#100
 263 0016 FFF7FEFF 	 bl SYSTIMER_CreateTimer
 264 001a 0346     	 mov r3,r0
 265 001c 1A46     	 mov r2,r3
 266              	 .loc 3 25 17
 267 001e 0B4B     	 ldr r3,.L9+4
 268 0020 1A60     	 str r2,[r3]
  26:../MainAlg/Peripherials/LedRubber.c **** 		  SYSTIMER_StartTimer(LedPwmTimer);
 269              	 .loc 3 26 5
 270 0022 0A4B     	 ldr r3,.L9+4
 271 0024 1B68     	 ldr r3,[r3]
 272 0026 1846     	 mov r0,r3
 273 0028 FFF7FEFF 	 bl SYSTIMER_StartTimer
  27:../MainAlg/Peripherials/LedRubber.c **** 		  DIGITAL_IO_SetOutputHigh(&LED_SW_NRES);
 274              	 .loc 3 27 5
 275 002c 0848     	 ldr r0,.L9+8
 276 002e FFF7FEFF 	 bl DIGITAL_IO_SetOutputHigh
  28:../MainAlg/Peripherials/LedRubber.c **** 
  29:../MainAlg/Peripherials/LedRubber.c **** 		  DIGITAL_IO_SetOutputHigh(&LED_POWER_EN2);
 277              	 .loc 3 29 5
 278 0032 0848     	 ldr r0,.L9+12
 279 0034 FFF7FEFF 	 bl DIGITAL_IO_SetOutputHigh
  30:../MainAlg/Peripherials/LedRubber.c **** 		  DIGITAL_IO_SetOutputHigh(&LED_POWER_EN1);
 280              	 .loc 3 30 5
 281 0038 0748     	 ldr r0,.L9+16
 282 003a FFF7FEFF 	 bl DIGITAL_IO_SetOutputHigh
 283 003e 00E0     	 b .L5
 284              	.L8:
  31:../MainAlg/Peripherials/LedRubber.c **** 	}
  32:../MainAlg/Peripherials/LedRubber.c **** 	else
  33:../MainAlg/Peripherials/LedRubber.c **** 	{
  34:../MainAlg/Peripherials/LedRubber.c **** 		return;
 285              	 .loc 3 34 3
 286 0040 00BF     	 nop
 287              	.L5:
  35:../MainAlg/Peripherials/LedRubber.c **** 	}
  36:../MainAlg/Peripherials/LedRubber.c **** }
 288              	 .loc 3 36 1
 289 0042 0837     	 adds r7,r7,#8
 290              	.LCFI25:
 291              	 .cfi_def_cfa_offset 8
 292 0044 BD46     	 mov sp,r7
 293              	.LCFI26:
 294              	 .cfi_def_cfa_register 13
 295              	 
 296 0046 80BD     	 pop {r7,pc}
 297              	.L10:
 298              	 .align 2
 299              	.L9:
 300 0048 00000000 	 .word LedPwmTimerProc
 301 004c 00000000 	 .word LedPwmTimer
 302 0050 00000000 	 .word LED_SW_NRES
 303 0054 00000000 	 .word LED_POWER_EN2
 304 0058 00000000 	 .word LED_POWER_EN1
 305              	 .cfi_endproc
 306              	.LFE385:
 308              	 .section .text.WriteRubberLights,"ax",%progbits
 309              	 .align 1
 310              	 .global WriteRubberLights
 311              	 .syntax unified
 312              	 .thumb
 313              	 .thumb_func
 314              	 .fpu fpv4-sp-d16
 316              	WriteRubberLights:
 317              	.LFB386:
  37:../MainAlg/Peripherials/LedRubber.c **** 
  38:../MainAlg/Peripherials/LedRubber.c **** 
  39:../MainAlg/Peripherials/LedRubber.c **** void WriteRubberLights(uint32_t color, int32_t mode, int32_t time_ms)
  40:../MainAlg/Peripherials/LedRubber.c **** {
 318              	 .loc 3 40 1
 319              	 .cfi_startproc
 320              	 
 321              	 
 322              	 
 323 0000 80B4     	 push {r7}
 324              	.LCFI27:
 325              	 .cfi_def_cfa_offset 4
 326              	 .cfi_offset 7,-4
 327 0002 85B0     	 sub sp,sp,#20
 328              	.LCFI28:
 329              	 .cfi_def_cfa_offset 24
 330 0004 00AF     	 add r7,sp,#0
 331              	.LCFI29:
 332              	 .cfi_def_cfa_register 7
 333 0006 F860     	 str r0,[r7,#12]
 334 0008 B960     	 str r1,[r7,#8]
 335 000a 7A60     	 str r2,[r7,#4]
  41:../MainAlg/Peripherials/LedRubber.c **** static int32_t timer = 0;
  42:../MainAlg/Peripherials/LedRubber.c **** static int32_t previous_mode = 0;
  43:../MainAlg/Peripherials/LedRubber.c **** 
  44:../MainAlg/Peripherials/LedRubber.c **** 	if ((mode == previous_mode)) //    
 336              	 .loc 3 44 12
 337 000c 124B     	 ldr r3,.L26
 338 000e 1B68     	 ldr r3,[r3]
 339              	 .loc 3 44 5
 340 0010 BA68     	 ldr r2,[r7,#8]
 341 0012 9A42     	 cmp r2,r3
 342 0014 40F04881 	 bne .L12
  45:../MainAlg/Peripherials/LedRubber.c **** 	{
  46:../MainAlg/Peripherials/LedRubber.c **** 		if (mode == MODE_TIME_ON) //   time_ms,  
 343              	 .loc 3 46 6
 344 0018 BB68     	 ldr r3,[r7,#8]
 345 001a 032B     	 cmp r3,#3
 346 001c 66D1     	 bne .L13
  47:../MainAlg/Peripherials/LedRubber.c **** 		{
  48:../MainAlg/Peripherials/LedRubber.c **** 			if (timer * MAIN_TIMER_TIME_MS >= time_ms)
 347              	 .loc 3 48 14
 348 001e 0F4B     	 ldr r3,.L26+4
 349 0020 1A68     	 ldr r2,[r3]
 350 0022 1346     	 mov r3,r2
 351 0024 9B00     	 lsls r3,r3,#2
 352 0026 1344     	 add r3,r3,r2
 353 0028 5B00     	 lsls r3,r3,#1
 354 002a 1A46     	 mov r2,r3
 355              	 .loc 3 48 7
 356 002c 7B68     	 ldr r3,[r7,#4]
 357 002e 9342     	 cmp r3,r2
 358 0030 18DC     	 bgt .L14
  49:../MainAlg/Peripherials/LedRubber.c **** 			{
  50:../MainAlg/Peripherials/LedRubber.c **** 				led_rubber.red_outern = 0;
 359              	 .loc 3 50 27
 360 0032 0B4B     	 ldr r3,.L26+8
 361 0034 0022     	 movs r2,#0
 362 0036 1A60     	 str r2,[r3]
  51:../MainAlg/Peripherials/LedRubber.c **** 				led_rubber.green_outern = 0;
 363              	 .loc 3 51 29
 364 0038 094B     	 ldr r3,.L26+8
 365 003a 0022     	 movs r2,#0
 366 003c 5A60     	 str r2,[r3,#4]
  52:../MainAlg/Peripherials/LedRubber.c **** 				led_rubber.blue_outern = 0;
 367              	 .loc 3 52 28
 368 003e 084B     	 ldr r3,.L26+8
 369 0040 0022     	 movs r2,#0
 370 0042 9A60     	 str r2,[r3,#8]
  53:../MainAlg/Peripherials/LedRubber.c **** 				led_rubber.red_intern = 0;
 371              	 .loc 3 53 27
 372 0044 064B     	 ldr r3,.L26+8
 373 0046 0022     	 movs r2,#0
 374 0048 DA60     	 str r2,[r3,#12]
  54:../MainAlg/Peripherials/LedRubber.c **** 				led_rubber.green_intern = 0;
 375              	 .loc 3 54 29
 376 004a 054B     	 ldr r3,.L26+8
 377 004c 0022     	 movs r2,#0
 378 004e 1A61     	 str r2,[r3,#16]
  55:../MainAlg/Peripherials/LedRubber.c **** 				led_rubber.blue_intern = 0;
 379              	 .loc 3 55 28
 380 0050 034B     	 ldr r3,.L26+8
 381 0052 0022     	 movs r2,#0
 382 0054 5A61     	 str r2,[r3,#20]
 383 0056 49E0     	 b .L13
 384              	.L27:
 385              	 .align 2
 386              	.L26:
 387 0058 00000000 	 .word previous_mode.2
 388 005c 00000000 	 .word timer.1
 389 0060 00000000 	 .word led_rubber
 390              	.L14:
  56:../MainAlg/Peripherials/LedRubber.c **** 			}
  57:../MainAlg/Peripherials/LedRubber.c **** 			else
  58:../MainAlg/Peripherials/LedRubber.c **** 			{
  59:../MainAlg/Peripherials/LedRubber.c **** 				timer ++;
 391              	 .loc 3 59 11
 392 0064 964B     	 ldr r3,.L28
 393 0066 1B68     	 ldr r3,[r3]
 394 0068 0133     	 adds r3,r3,#1
 395 006a 954A     	 ldr r2,.L28
 396 006c 1360     	 str r3,[r2]
  60:../MainAlg/Peripherials/LedRubber.c **** 				if (color == CL_RED)
 397              	 .loc 3 60 8
 398 006e FB68     	 ldr r3,[r7,#12]
 399 0070 012B     	 cmp r3,#1
 400 0072 11D1     	 bne .L15
  61:../MainAlg/Peripherials/LedRubber.c **** 				{
  62:../MainAlg/Peripherials/LedRubber.c **** 					led_rubber.red_outern = OUTER_RUBBER_PERCENT;
 401              	 .loc 3 62 28
 402 0074 934B     	 ldr r3,.L28+4
 403 0076 3222     	 movs r2,#50
 404 0078 1A60     	 str r2,[r3]
  63:../MainAlg/Peripherials/LedRubber.c **** 					led_rubber.green_outern = 0;
 405              	 .loc 3 63 30
 406 007a 924B     	 ldr r3,.L28+4
 407 007c 0022     	 movs r2,#0
 408 007e 5A60     	 str r2,[r3,#4]
  64:../MainAlg/Peripherials/LedRubber.c **** 					led_rubber.blue_outern = 0;
 409              	 .loc 3 64 29
 410 0080 904B     	 ldr r3,.L28+4
 411 0082 0022     	 movs r2,#0
 412 0084 9A60     	 str r2,[r3,#8]
  65:../MainAlg/Peripherials/LedRubber.c **** 					led_rubber.red_intern = INTER_RUBBER_PERCENT;
 413              	 .loc 3 65 28
 414 0086 8F4B     	 ldr r3,.L28+4
 415 0088 1422     	 movs r2,#20
 416 008a DA60     	 str r2,[r3,#12]
  66:../MainAlg/Peripherials/LedRubber.c **** 					led_rubber.green_intern = 0;
 417              	 .loc 3 66 30
 418 008c 8D4B     	 ldr r3,.L28+4
 419 008e 0022     	 movs r2,#0
 420 0090 1A61     	 str r2,[r3,#16]
  67:../MainAlg/Peripherials/LedRubber.c **** 					led_rubber.blue_intern = 0;
 421              	 .loc 3 67 29
 422 0092 8C4B     	 ldr r3,.L28+4
 423 0094 0022     	 movs r2,#0
 424 0096 5A61     	 str r2,[r3,#20]
 425              	.L15:
  68:../MainAlg/Peripherials/LedRubber.c **** 
  69:../MainAlg/Peripherials/LedRubber.c **** 				}
  70:../MainAlg/Peripherials/LedRubber.c **** 				if (color == CL_GREEN)
 426              	 .loc 3 70 8
 427 0098 FB68     	 ldr r3,[r7,#12]
 428 009a 022B     	 cmp r3,#2
 429 009c 11D1     	 bne .L16
  71:../MainAlg/Peripherials/LedRubber.c **** 				{
  72:../MainAlg/Peripherials/LedRubber.c **** 					led_rubber.red_outern = 0;
 430              	 .loc 3 72 28
 431 009e 894B     	 ldr r3,.L28+4
 432 00a0 0022     	 movs r2,#0
 433 00a2 1A60     	 str r2,[r3]
  73:../MainAlg/Peripherials/LedRubber.c **** 					led_rubber.green_outern = OUTER_RUBBER_PERCENT;
 434              	 .loc 3 73 30
 435 00a4 874B     	 ldr r3,.L28+4
 436 00a6 3222     	 movs r2,#50
 437 00a8 5A60     	 str r2,[r3,#4]
  74:../MainAlg/Peripherials/LedRubber.c **** 					led_rubber.blue_outern = 0;
 438              	 .loc 3 74 29
 439 00aa 864B     	 ldr r3,.L28+4
 440 00ac 0022     	 movs r2,#0
 441 00ae 9A60     	 str r2,[r3,#8]
  75:../MainAlg/Peripherials/LedRubber.c **** 					led_rubber.red_intern = 0;
 442              	 .loc 3 75 28
 443 00b0 844B     	 ldr r3,.L28+4
 444 00b2 0022     	 movs r2,#0
 445 00b4 DA60     	 str r2,[r3,#12]
  76:../MainAlg/Peripherials/LedRubber.c **** 					led_rubber.green_intern = INTER_RUBBER_PERCENT;
 446              	 .loc 3 76 30
 447 00b6 834B     	 ldr r3,.L28+4
 448 00b8 1422     	 movs r2,#20
 449 00ba 1A61     	 str r2,[r3,#16]
  77:../MainAlg/Peripherials/LedRubber.c **** 					led_rubber.blue_intern = 0;
 450              	 .loc 3 77 29
 451 00bc 814B     	 ldr r3,.L28+4
 452 00be 0022     	 movs r2,#0
 453 00c0 5A61     	 str r2,[r3,#20]
 454              	.L16:
  78:../MainAlg/Peripherials/LedRubber.c **** 
  79:../MainAlg/Peripherials/LedRubber.c **** 				}
  80:../MainAlg/Peripherials/LedRubber.c **** 				if (color == CL_YELLOW)
 455              	 .loc 3 80 8
 456 00c2 FB68     	 ldr r3,[r7,#12]
 457 00c4 032B     	 cmp r3,#3
 458 00c6 11D1     	 bne .L13
  81:../MainAlg/Peripherials/LedRubber.c **** 				{
  82:../MainAlg/Peripherials/LedRubber.c **** 					led_rubber.red_outern = OUTER_RUBBER_PERCENT/2;
 459              	 .loc 3 82 28
 460 00c8 7E4B     	 ldr r3,.L28+4
 461 00ca 1922     	 movs r2,#25
 462 00cc 1A60     	 str r2,[r3]
  83:../MainAlg/Peripherials/LedRubber.c **** 					led_rubber.green_outern = OUTER_RUBBER_PERCENT/2;
 463              	 .loc 3 83 30
 464 00ce 7D4B     	 ldr r3,.L28+4
 465 00d0 1922     	 movs r2,#25
 466 00d2 5A60     	 str r2,[r3,#4]
  84:../MainAlg/Peripherials/LedRubber.c **** 					led_rubber.blue_outern = 0;
 467              	 .loc 3 84 29
 468 00d4 7B4B     	 ldr r3,.L28+4
 469 00d6 0022     	 movs r2,#0
 470 00d8 9A60     	 str r2,[r3,#8]
  85:../MainAlg/Peripherials/LedRubber.c **** 					led_rubber.red_intern = INTER_RUBBER_PERCENT;
 471              	 .loc 3 85 28
 472 00da 7A4B     	 ldr r3,.L28+4
 473 00dc 1422     	 movs r2,#20
 474 00de DA60     	 str r2,[r3,#12]
  86:../MainAlg/Peripherials/LedRubber.c **** 					led_rubber.green_intern = INTER_RUBBER_PERCENT;
 475              	 .loc 3 86 30
 476 00e0 784B     	 ldr r3,.L28+4
 477 00e2 1422     	 movs r2,#20
 478 00e4 1A61     	 str r2,[r3,#16]
  87:../MainAlg/Peripherials/LedRubber.c **** 					led_rubber.blue_intern = 0;
 479              	 .loc 3 87 29
 480 00e6 774B     	 ldr r3,.L28+4
 481 00e8 0022     	 movs r2,#0
 482 00ea 5A61     	 str r2,[r3,#20]
 483              	.L13:
  88:../MainAlg/Peripherials/LedRubber.c **** 
  89:../MainAlg/Peripherials/LedRubber.c **** 				}
  90:../MainAlg/Peripherials/LedRubber.c **** 			}
  91:../MainAlg/Peripherials/LedRubber.c **** 		}// end mode time on
  92:../MainAlg/Peripherials/LedRubber.c **** 
  93:../MainAlg/Peripherials/LedRubber.c **** 		if (mode == MODE_BLINK)
 484              	 .loc 3 93 6
 485 00ec BB68     	 ldr r3,[r7,#8]
 486 00ee 022B     	 cmp r3,#2
 487 00f0 40F08380 	 bne .L17
  94:../MainAlg/Peripherials/LedRubber.c **** 		{
  95:../MainAlg/Peripherials/LedRubber.c **** 			timer ++;
 488              	 .loc 3 95 10
 489 00f4 724B     	 ldr r3,.L28
 490 00f6 1B68     	 ldr r3,[r3]
 491 00f8 0133     	 adds r3,r3,#1
 492 00fa 714A     	 ldr r2,.L28
 493 00fc 1360     	 str r3,[r2]
  96:../MainAlg/Peripherials/LedRubber.c **** 
  97:../MainAlg/Peripherials/LedRubber.c **** 			if (timer*10 < time_ms) //   
 494              	 .loc 3 97 13
 495 00fe 704B     	 ldr r3,.L28
 496 0100 1A68     	 ldr r2,[r3]
 497 0102 1346     	 mov r3,r2
 498 0104 9B00     	 lsls r3,r3,#2
 499 0106 1344     	 add r3,r3,r2
 500 0108 5B00     	 lsls r3,r3,#1
 501 010a 1A46     	 mov r2,r3
 502              	 .loc 3 97 7
 503 010c 7B68     	 ldr r3,[r7,#4]
 504 010e 9342     	 cmp r3,r2
 505 0110 3EDD     	 ble .L18
  98:../MainAlg/Peripherials/LedRubber.c **** 			{
  99:../MainAlg/Peripherials/LedRubber.c **** 				if (color == CL_RED)
 506              	 .loc 3 99 8
 507 0112 FB68     	 ldr r3,[r7,#12]
 508 0114 012B     	 cmp r3,#1
 509 0116 11D1     	 bne .L19
 100:../MainAlg/Peripherials/LedRubber.c **** 				{
 101:../MainAlg/Peripherials/LedRubber.c **** 					led_rubber.red_outern = OUTER_RUBBER_PERCENT;
 510              	 .loc 3 101 28
 511 0118 6A4B     	 ldr r3,.L28+4
 512 011a 3222     	 movs r2,#50
 513 011c 1A60     	 str r2,[r3]
 102:../MainAlg/Peripherials/LedRubber.c **** 					led_rubber.green_outern = 0;
 514              	 .loc 3 102 30
 515 011e 694B     	 ldr r3,.L28+4
 516 0120 0022     	 movs r2,#0
 517 0122 5A60     	 str r2,[r3,#4]
 103:../MainAlg/Peripherials/LedRubber.c **** 					led_rubber.blue_outern = 0;
 518              	 .loc 3 103 29
 519 0124 674B     	 ldr r3,.L28+4
 520 0126 0022     	 movs r2,#0
 521 0128 9A60     	 str r2,[r3,#8]
 104:../MainAlg/Peripherials/LedRubber.c **** 					led_rubber.red_intern = INTER_RUBBER_PERCENT;
 522              	 .loc 3 104 28
 523 012a 664B     	 ldr r3,.L28+4
 524 012c 1422     	 movs r2,#20
 525 012e DA60     	 str r2,[r3,#12]
 105:../MainAlg/Peripherials/LedRubber.c **** 					led_rubber.green_intern = 0;
 526              	 .loc 3 105 30
 527 0130 644B     	 ldr r3,.L28+4
 528 0132 0022     	 movs r2,#0
 529 0134 1A61     	 str r2,[r3,#16]
 106:../MainAlg/Peripherials/LedRubber.c **** 					led_rubber.blue_intern = 0;
 530              	 .loc 3 106 29
 531 0136 634B     	 ldr r3,.L28+4
 532 0138 0022     	 movs r2,#0
 533 013a 5A61     	 str r2,[r3,#20]
 534              	.L19:
 107:../MainAlg/Peripherials/LedRubber.c **** 
 108:../MainAlg/Peripherials/LedRubber.c **** 				}
 109:../MainAlg/Peripherials/LedRubber.c **** 				if (color == CL_GREEN)
 535              	 .loc 3 109 8
 536 013c FB68     	 ldr r3,[r7,#12]
 537 013e 022B     	 cmp r3,#2
 538 0140 11D1     	 bne .L20
 110:../MainAlg/Peripherials/LedRubber.c **** 				{
 111:../MainAlg/Peripherials/LedRubber.c **** 					led_rubber.red_outern = 0;
 539              	 .loc 3 111 28
 540 0142 604B     	 ldr r3,.L28+4
 541 0144 0022     	 movs r2,#0
 542 0146 1A60     	 str r2,[r3]
 112:../MainAlg/Peripherials/LedRubber.c **** 					led_rubber.green_outern = OUTER_RUBBER_PERCENT;
 543              	 .loc 3 112 30
 544 0148 5E4B     	 ldr r3,.L28+4
 545 014a 3222     	 movs r2,#50
 546 014c 5A60     	 str r2,[r3,#4]
 113:../MainAlg/Peripherials/LedRubber.c **** 					led_rubber.blue_outern = 0;
 547              	 .loc 3 113 29
 548 014e 5D4B     	 ldr r3,.L28+4
 549 0150 0022     	 movs r2,#0
 550 0152 9A60     	 str r2,[r3,#8]
 114:../MainAlg/Peripherials/LedRubber.c **** 					led_rubber.red_intern = 0;
 551              	 .loc 3 114 28
 552 0154 5B4B     	 ldr r3,.L28+4
 553 0156 0022     	 movs r2,#0
 554 0158 DA60     	 str r2,[r3,#12]
 115:../MainAlg/Peripherials/LedRubber.c **** 					led_rubber.green_intern = INTER_RUBBER_PERCENT;
 555              	 .loc 3 115 30
 556 015a 5A4B     	 ldr r3,.L28+4
 557 015c 1422     	 movs r2,#20
 558 015e 1A61     	 str r2,[r3,#16]
 116:../MainAlg/Peripherials/LedRubber.c **** 					led_rubber.blue_intern = 0;
 559              	 .loc 3 116 29
 560 0160 584B     	 ldr r3,.L28+4
 561 0162 0022     	 movs r2,#0
 562 0164 5A61     	 str r2,[r3,#20]
 563              	.L20:
 117:../MainAlg/Peripherials/LedRubber.c **** 				}
 118:../MainAlg/Peripherials/LedRubber.c **** 				if (color == CL_YELLOW)
 564              	 .loc 3 118 8
 565 0166 FB68     	 ldr r3,[r7,#12]
 566 0168 032B     	 cmp r3,#3
 567 016a 11D1     	 bne .L18
 119:../MainAlg/Peripherials/LedRubber.c **** 				{
 120:../MainAlg/Peripherials/LedRubber.c **** 					led_rubber.red_outern = OUTER_RUBBER_PERCENT/2;
 568              	 .loc 3 120 28
 569 016c 554B     	 ldr r3,.L28+4
 570 016e 1922     	 movs r2,#25
 571 0170 1A60     	 str r2,[r3]
 121:../MainAlg/Peripherials/LedRubber.c **** 					led_rubber.green_outern = OUTER_RUBBER_PERCENT/2;
 572              	 .loc 3 121 30
 573 0172 544B     	 ldr r3,.L28+4
 574 0174 1922     	 movs r2,#25
 575 0176 5A60     	 str r2,[r3,#4]
 122:../MainAlg/Peripherials/LedRubber.c **** 					led_rubber.blue_outern = 0;
 576              	 .loc 3 122 29
 577 0178 524B     	 ldr r3,.L28+4
 578 017a 0022     	 movs r2,#0
 579 017c 9A60     	 str r2,[r3,#8]
 123:../MainAlg/Peripherials/LedRubber.c **** 					led_rubber.red_intern = INTER_RUBBER_PERCENT;
 580              	 .loc 3 123 28
 581 017e 514B     	 ldr r3,.L28+4
 582 0180 1422     	 movs r2,#20
 583 0182 DA60     	 str r2,[r3,#12]
 124:../MainAlg/Peripherials/LedRubber.c **** 					led_rubber.green_intern = INTER_RUBBER_PERCENT;
 584              	 .loc 3 124 30
 585 0184 4F4B     	 ldr r3,.L28+4
 586 0186 1422     	 movs r2,#20
 587 0188 1A61     	 str r2,[r3,#16]
 125:../MainAlg/Peripherials/LedRubber.c **** 					led_rubber.blue_intern = 0;
 588              	 .loc 3 125 29
 589 018a 4E4B     	 ldr r3,.L28+4
 590 018c 0022     	 movs r2,#0
 591 018e 5A61     	 str r2,[r3,#20]
 592              	.L18:
 126:../MainAlg/Peripherials/LedRubber.c **** 
 127:../MainAlg/Peripherials/LedRubber.c **** 				}
 128:../MainAlg/Peripherials/LedRubber.c **** 			}
 129:../MainAlg/Peripherials/LedRubber.c **** 			if ((timer*10 < time_ms*2) && (timer*10 >= time_ms)) //   
 593              	 .loc 3 129 14
 594 0190 4B4B     	 ldr r3,.L28
 595 0192 1A68     	 ldr r2,[r3]
 596 0194 1346     	 mov r3,r2
 597 0196 9B00     	 lsls r3,r3,#2
 598 0198 1344     	 add r3,r3,r2
 599 019a 5B00     	 lsls r3,r3,#1
 600 019c 1A46     	 mov r2,r3
 601              	 .loc 3 129 27
 602 019e 7B68     	 ldr r3,[r7,#4]
 603 01a0 5B00     	 lsls r3,r3,#1
 604              	 .loc 3 129 7
 605 01a2 9A42     	 cmp r2,r3
 606 01a4 1BDA     	 bge .L21
 607              	 .loc 3 129 40 discriminator 1
 608 01a6 464B     	 ldr r3,.L28
 609 01a8 1A68     	 ldr r2,[r3]
 610 01aa 1346     	 mov r3,r2
 611 01ac 9B00     	 lsls r3,r3,#2
 612 01ae 1344     	 add r3,r3,r2
 613 01b0 5B00     	 lsls r3,r3,#1
 614 01b2 1A46     	 mov r2,r3
 615              	 .loc 3 129 31 discriminator 1
 616 01b4 7B68     	 ldr r3,[r7,#4]
 617 01b6 9342     	 cmp r3,r2
 618 01b8 11DC     	 bgt .L21
 130:../MainAlg/Peripherials/LedRubber.c **** 			{
 131:../MainAlg/Peripherials/LedRubber.c **** 				led_rubber.red_outern = 0;
 619              	 .loc 3 131 27
 620 01ba 424B     	 ldr r3,.L28+4
 621 01bc 0022     	 movs r2,#0
 622 01be 1A60     	 str r2,[r3]
 132:../MainAlg/Peripherials/LedRubber.c **** 				led_rubber.green_outern = 0;
 623              	 .loc 3 132 29
 624 01c0 404B     	 ldr r3,.L28+4
 625 01c2 0022     	 movs r2,#0
 626 01c4 5A60     	 str r2,[r3,#4]
 133:../MainAlg/Peripherials/LedRubber.c **** 				led_rubber.blue_outern = 0;
 627              	 .loc 3 133 28
 628 01c6 3F4B     	 ldr r3,.L28+4
 629 01c8 0022     	 movs r2,#0
 630 01ca 9A60     	 str r2,[r3,#8]
 134:../MainAlg/Peripherials/LedRubber.c **** 				led_rubber.red_intern = 0;
 631              	 .loc 3 134 27
 632 01cc 3D4B     	 ldr r3,.L28+4
 633 01ce 0022     	 movs r2,#0
 634 01d0 DA60     	 str r2,[r3,#12]
 135:../MainAlg/Peripherials/LedRubber.c **** 				led_rubber.green_intern = 0;
 635              	 .loc 3 135 29
 636 01d2 3C4B     	 ldr r3,.L28+4
 637 01d4 0022     	 movs r2,#0
 638 01d6 1A61     	 str r2,[r3,#16]
 136:../MainAlg/Peripherials/LedRubber.c **** 				led_rubber.blue_intern = 0;
 639              	 .loc 3 136 28
 640 01d8 3A4B     	 ldr r3,.L28+4
 641 01da 0022     	 movs r2,#0
 642 01dc 5A61     	 str r2,[r3,#20]
 643              	.L21:
 137:../MainAlg/Peripherials/LedRubber.c **** 			}
 138:../MainAlg/Peripherials/LedRubber.c **** 			if (timer*10 >= time_ms*2)
 644              	 .loc 3 138 13
 645 01de 384B     	 ldr r3,.L28
 646 01e0 1A68     	 ldr r2,[r3]
 647 01e2 1346     	 mov r3,r2
 648 01e4 9B00     	 lsls r3,r3,#2
 649 01e6 1344     	 add r3,r3,r2
 650 01e8 5B00     	 lsls r3,r3,#1
 651 01ea 1A46     	 mov r2,r3
 652              	 .loc 3 138 27
 653 01ec 7B68     	 ldr r3,[r7,#4]
 654 01ee 5B00     	 lsls r3,r3,#1
 655              	 .loc 3 138 7
 656 01f0 9A42     	 cmp r2,r3
 657 01f2 02DB     	 blt .L17
 139:../MainAlg/Peripherials/LedRubber.c **** 			{
 140:../MainAlg/Peripherials/LedRubber.c **** 				timer = 0;
 658              	 .loc 3 140 11
 659 01f4 324B     	 ldr r3,.L28
 660 01f6 0022     	 movs r2,#0
 661 01f8 1A60     	 str r2,[r3]
 662              	.L17:
 141:../MainAlg/Peripherials/LedRubber.c **** 			}
 142:../MainAlg/Peripherials/LedRubber.c **** 		}
 143:../MainAlg/Peripherials/LedRubber.c **** 		if (mode == MODE_OFF)
 663              	 .loc 3 143 6
 664 01fa BB68     	 ldr r3,[r7,#8]
 665 01fc 002B     	 cmp r3,#0
 666 01fe 11D1     	 bne .L22
 144:../MainAlg/Peripherials/LedRubber.c **** 		{
 145:../MainAlg/Peripherials/LedRubber.c **** 			led_rubber.red_outern = 0;
 667              	 .loc 3 145 26
 668 0200 304B     	 ldr r3,.L28+4
 669 0202 0022     	 movs r2,#0
 670 0204 1A60     	 str r2,[r3]
 146:../MainAlg/Peripherials/LedRubber.c **** 			led_rubber.green_outern = 0;
 671              	 .loc 3 146 28
 672 0206 2F4B     	 ldr r3,.L28+4
 673 0208 0022     	 movs r2,#0
 674 020a 5A60     	 str r2,[r3,#4]
 147:../MainAlg/Peripherials/LedRubber.c **** 			led_rubber.blue_outern = 0;
 675              	 .loc 3 147 27
 676 020c 2D4B     	 ldr r3,.L28+4
 677 020e 0022     	 movs r2,#0
 678 0210 9A60     	 str r2,[r3,#8]
 148:../MainAlg/Peripherials/LedRubber.c **** 			led_rubber.red_intern = 0;
 679              	 .loc 3 148 26
 680 0212 2C4B     	 ldr r3,.L28+4
 681 0214 0022     	 movs r2,#0
 682 0216 DA60     	 str r2,[r3,#12]
 149:../MainAlg/Peripherials/LedRubber.c **** 			led_rubber.green_intern = 0;
 683              	 .loc 3 149 28
 684 0218 2A4B     	 ldr r3,.L28+4
 685 021a 0022     	 movs r2,#0
 686 021c 1A61     	 str r2,[r3,#16]
 150:../MainAlg/Peripherials/LedRubber.c **** 			led_rubber.blue_intern = 0;
 687              	 .loc 3 150 27
 688 021e 294B     	 ldr r3,.L28+4
 689 0220 0022     	 movs r2,#0
 690 0222 5A61     	 str r2,[r3,#20]
 691              	.L22:
 151:../MainAlg/Peripherials/LedRubber.c **** 		}
 152:../MainAlg/Peripherials/LedRubber.c **** 		if (mode == MODE_ON)
 692              	 .loc 3 152 6
 693 0224 BB68     	 ldr r3,[r7,#8]
 694 0226 012B     	 cmp r3,#1
 695 0228 3ED1     	 bne .L12
 153:../MainAlg/Peripherials/LedRubber.c **** 		{
 154:../MainAlg/Peripherials/LedRubber.c **** 			if (color == CL_RED)
 696              	 .loc 3 154 7
 697 022a FB68     	 ldr r3,[r7,#12]
 698 022c 012B     	 cmp r3,#1
 699 022e 11D1     	 bne .L23
 155:../MainAlg/Peripherials/LedRubber.c **** 			{
 156:../MainAlg/Peripherials/LedRubber.c **** 				led_rubber.red_outern = OUTER_RUBBER_PERCENT;
 700              	 .loc 3 156 27
 701 0230 244B     	 ldr r3,.L28+4
 702 0232 3222     	 movs r2,#50
 703 0234 1A60     	 str r2,[r3]
 157:../MainAlg/Peripherials/LedRubber.c **** 				led_rubber.green_outern = 0;
 704              	 .loc 3 157 29
 705 0236 234B     	 ldr r3,.L28+4
 706 0238 0022     	 movs r2,#0
 707 023a 5A60     	 str r2,[r3,#4]
 158:../MainAlg/Peripherials/LedRubber.c **** 				led_rubber.blue_outern = 0;
 708              	 .loc 3 158 28
 709 023c 214B     	 ldr r3,.L28+4
 710 023e 0022     	 movs r2,#0
 711 0240 9A60     	 str r2,[r3,#8]
 159:../MainAlg/Peripherials/LedRubber.c **** 				led_rubber.red_intern = INTER_RUBBER_PERCENT;
 712              	 .loc 3 159 27
 713 0242 204B     	 ldr r3,.L28+4
 714 0244 1422     	 movs r2,#20
 715 0246 DA60     	 str r2,[r3,#12]
 160:../MainAlg/Peripherials/LedRubber.c **** 				led_rubber.green_intern = 0;
 716              	 .loc 3 160 29
 717 0248 1E4B     	 ldr r3,.L28+4
 718 024a 0022     	 movs r2,#0
 719 024c 1A61     	 str r2,[r3,#16]
 161:../MainAlg/Peripherials/LedRubber.c **** 				led_rubber.blue_intern = 0;
 720              	 .loc 3 161 28
 721 024e 1D4B     	 ldr r3,.L28+4
 722 0250 0022     	 movs r2,#0
 723 0252 5A61     	 str r2,[r3,#20]
 724              	.L23:
 162:../MainAlg/Peripherials/LedRubber.c **** 
 163:../MainAlg/Peripherials/LedRubber.c **** 			}
 164:../MainAlg/Peripherials/LedRubber.c **** 			if (color == CL_GREEN)
 725              	 .loc 3 164 7
 726 0254 FB68     	 ldr r3,[r7,#12]
 727 0256 022B     	 cmp r3,#2
 728 0258 11D1     	 bne .L24
 165:../MainAlg/Peripherials/LedRubber.c **** 			{
 166:../MainAlg/Peripherials/LedRubber.c **** 				led_rubber.red_outern = 0;
 729              	 .loc 3 166 27
 730 025a 1A4B     	 ldr r3,.L28+4
 731 025c 0022     	 movs r2,#0
 732 025e 1A60     	 str r2,[r3]
 167:../MainAlg/Peripherials/LedRubber.c **** 				led_rubber.green_outern = OUTER_RUBBER_PERCENT;
 733              	 .loc 3 167 29
 734 0260 184B     	 ldr r3,.L28+4
 735 0262 3222     	 movs r2,#50
 736 0264 5A60     	 str r2,[r3,#4]
 168:../MainAlg/Peripherials/LedRubber.c **** 				led_rubber.blue_outern = 0;
 737              	 .loc 3 168 28
 738 0266 174B     	 ldr r3,.L28+4
 739 0268 0022     	 movs r2,#0
 740 026a 9A60     	 str r2,[r3,#8]
 169:../MainAlg/Peripherials/LedRubber.c **** 				led_rubber.red_intern = 0;
 741              	 .loc 3 169 27
 742 026c 154B     	 ldr r3,.L28+4
 743 026e 0022     	 movs r2,#0
 744 0270 DA60     	 str r2,[r3,#12]
 170:../MainAlg/Peripherials/LedRubber.c **** 				led_rubber.green_intern = INTER_RUBBER_PERCENT;
 745              	 .loc 3 170 29
 746 0272 144B     	 ldr r3,.L28+4
 747 0274 1422     	 movs r2,#20
 748 0276 1A61     	 str r2,[r3,#16]
 171:../MainAlg/Peripherials/LedRubber.c **** 				led_rubber.blue_intern = 0;
 749              	 .loc 3 171 28
 750 0278 124B     	 ldr r3,.L28+4
 751 027a 0022     	 movs r2,#0
 752 027c 5A61     	 str r2,[r3,#20]
 753              	.L24:
 172:../MainAlg/Peripherials/LedRubber.c **** 
 173:../MainAlg/Peripherials/LedRubber.c **** 			}
 174:../MainAlg/Peripherials/LedRubber.c **** 			if (color == CL_YELLOW)
 754              	 .loc 3 174 7
 755 027e FB68     	 ldr r3,[r7,#12]
 756 0280 032B     	 cmp r3,#3
 757 0282 11D1     	 bne .L12
 175:../MainAlg/Peripherials/LedRubber.c **** 			{
 176:../MainAlg/Peripherials/LedRubber.c **** 				led_rubber.red_outern = OUTER_RUBBER_PERCENT/2;
 758              	 .loc 3 176 27
 759 0284 0F4B     	 ldr r3,.L28+4
 760 0286 1922     	 movs r2,#25
 761 0288 1A60     	 str r2,[r3]
 177:../MainAlg/Peripherials/LedRubber.c **** 				led_rubber.green_outern = OUTER_RUBBER_PERCENT/2;
 762              	 .loc 3 177 29
 763 028a 0E4B     	 ldr r3,.L28+4
 764 028c 1922     	 movs r2,#25
 765 028e 5A60     	 str r2,[r3,#4]
 178:../MainAlg/Peripherials/LedRubber.c **** 				led_rubber.blue_outern = 0;
 766              	 .loc 3 178 28
 767 0290 0C4B     	 ldr r3,.L28+4
 768 0292 0022     	 movs r2,#0
 769 0294 9A60     	 str r2,[r3,#8]
 179:../MainAlg/Peripherials/LedRubber.c **** 				led_rubber.red_intern = INTER_RUBBER_PERCENT;
 770              	 .loc 3 179 27
 771 0296 0B4B     	 ldr r3,.L28+4
 772 0298 1422     	 movs r2,#20
 773 029a DA60     	 str r2,[r3,#12]
 180:../MainAlg/Peripherials/LedRubber.c **** 				led_rubber.green_intern = INTER_RUBBER_PERCENT;
 774              	 .loc 3 180 29
 775 029c 094B     	 ldr r3,.L28+4
 776 029e 1422     	 movs r2,#20
 777 02a0 1A61     	 str r2,[r3,#16]
 181:../MainAlg/Peripherials/LedRubber.c **** 				led_rubber.blue_intern = 0;
 778              	 .loc 3 181 28
 779 02a2 084B     	 ldr r3,.L28+4
 780 02a4 0022     	 movs r2,#0
 781 02a6 5A61     	 str r2,[r3,#20]
 782              	.L12:
 182:../MainAlg/Peripherials/LedRubber.c **** 
 183:../MainAlg/Peripherials/LedRubber.c **** 			}
 184:../MainAlg/Peripherials/LedRubber.c **** 
 185:../MainAlg/Peripherials/LedRubber.c **** 		}
 186:../MainAlg/Peripherials/LedRubber.c **** 	} // end_of mode not changed
 187:../MainAlg/Peripherials/LedRubber.c **** 
 188:../MainAlg/Peripherials/LedRubber.c **** 	if (mode != previous_mode)
 783              	 .loc 3 188 11
 784 02a8 074B     	 ldr r3,.L28+8
 785 02aa 1B68     	 ldr r3,[r3]
 786              	 .loc 3 188 5
 787 02ac BA68     	 ldr r2,[r7,#8]
 788 02ae 9A42     	 cmp r2,r3
 789 02b0 02D0     	 beq .L25
 189:../MainAlg/Peripherials/LedRubber.c **** 	{
 190:../MainAlg/Peripherials/LedRubber.c **** 		timer = 0;
 790              	 .loc 3 190 9
 791 02b2 034B     	 ldr r3,.L28
 792 02b4 0022     	 movs r2,#0
 793 02b6 1A60     	 str r2,[r3]
 794              	.L25:
 191:../MainAlg/Peripherials/LedRubber.c **** 	}
 192:../MainAlg/Peripherials/LedRubber.c **** 	previous_mode = mode;
 795              	 .loc 3 192 16
 796 02b8 034A     	 ldr r2,.L28+8
 797 02ba BB68     	 ldr r3,[r7,#8]
 798 02bc 1360     	 str r3,[r2]
 799 02be 05E0     	 b .L29
 800              	.L30:
 801              	 .align 2
 802              	.L28:
 803 02c0 00000000 	 .word timer.1
 804 02c4 00000000 	 .word led_rubber
 805 02c8 00000000 	 .word previous_mode.2
 806              	.L29:
 193:../MainAlg/Peripherials/LedRubber.c **** 
 194:../MainAlg/Peripherials/LedRubber.c **** }
 807              	 .loc 3 194 1
 808 02cc 00BF     	 nop
 809 02ce 1437     	 adds r7,r7,#20
 810              	.LCFI30:
 811              	 .cfi_def_cfa_offset 4
 812 02d0 BD46     	 mov sp,r7
 813              	.LCFI31:
 814              	 .cfi_def_cfa_register 13
 815              	 
 816 02d2 5DF8047B 	 ldr r7,[sp],#4
 817              	.LCFI32:
 818              	 .cfi_restore 7
 819              	 .cfi_def_cfa_offset 0
 820 02d6 7047     	 bx lr
 821              	 .cfi_endproc
 822              	.LFE386:
 824              	 .section .text.LedPwmTimerProc,"ax",%progbits
 825              	 .align 1
 826              	 .global LedPwmTimerProc
 827              	 .syntax unified
 828              	 .thumb
 829              	 .thumb_func
 830              	 .fpu fpv4-sp-d16
 832              	LedPwmTimerProc:
 833              	.LFB387:
 195:../MainAlg/Peripherials/LedRubber.c **** void LedPwmTimerProc(void *args)
 196:../MainAlg/Peripherials/LedRubber.c **** {
 834              	 .loc 3 196 1
 835              	 .cfi_startproc
 836              	 
 837              	 
 838 0000 80B5     	 push {r7,lr}
 839              	.LCFI33:
 840              	 .cfi_def_cfa_offset 8
 841              	 .cfi_offset 7,-8
 842              	 .cfi_offset 14,-4
 843 0002 82B0     	 sub sp,sp,#8
 844              	.LCFI34:
 845              	 .cfi_def_cfa_offset 16
 846 0004 00AF     	 add r7,sp,#0
 847              	.LCFI35:
 848              	 .cfi_def_cfa_register 7
 849 0006 7860     	 str r0,[r7,#4]
 197:../MainAlg/Peripherials/LedRubber.c **** 	static int32_t timer = 0;
 198:../MainAlg/Peripherials/LedRubber.c **** 
 199:../MainAlg/Peripherials/LedRubber.c **** 	if (timer >= 100)
 850              	 .loc 3 199 12
 851 0008 394B     	 ldr r3,.L45
 852 000a 1B68     	 ldr r3,[r3]
 853              	 .loc 3 199 5
 854 000c 632B     	 cmp r3,#99
 855 000e 02DD     	 ble .L32
 200:../MainAlg/Peripherials/LedRubber.c **** 	{
 201:../MainAlg/Peripherials/LedRubber.c **** 		timer = 0;
 856              	 .loc 3 201 9
 857 0010 374B     	 ldr r3,.L45
 858 0012 0022     	 movs r2,#0
 859 0014 1A60     	 str r2,[r3]
 860              	.L32:
 202:../MainAlg/Peripherials/LedRubber.c **** 	}
 203:../MainAlg/Peripherials/LedRubber.c **** 	if(!timer)
 861              	 .loc 3 203 5
 862 0016 364B     	 ldr r3,.L45
 863 0018 1B68     	 ldr r3,[r3]
 864              	 .loc 3 203 4
 865 001a 002B     	 cmp r3,#0
 866 001c 29D1     	 bne .L33
 204:../MainAlg/Peripherials/LedRubber.c **** 	{
 205:../MainAlg/Peripherials/LedRubber.c **** 		if(led_rubber.red_outern)
 867              	 .loc 3 205 16
 868 001e 354B     	 ldr r3,.L45+4
 869 0020 1B68     	 ldr r3,[r3]
 870              	 .loc 3 205 5
 871 0022 002B     	 cmp r3,#0
 872 0024 02D0     	 beq .L34
 206:../MainAlg/Peripherials/LedRubber.c **** 		{
 207:../MainAlg/Peripherials/LedRubber.c **** 			DIGITAL_IO_SetOutputHigh(&LED_SW_1);
 873              	 .loc 3 207 4
 874 0026 3448     	 ldr r0,.L45+8
 875 0028 FFF7FEFF 	 bl DIGITAL_IO_SetOutputHigh
 876              	.L34:
 208:../MainAlg/Peripherials/LedRubber.c **** 		}
 209:../MainAlg/Peripherials/LedRubber.c **** 		if(led_rubber.green_outern)
 877              	 .loc 3 209 16
 878 002c 314B     	 ldr r3,.L45+4
 879 002e 5B68     	 ldr r3,[r3,#4]
 880              	 .loc 3 209 5
 881 0030 002B     	 cmp r3,#0
 882 0032 02D0     	 beq .L35
 210:../MainAlg/Peripherials/LedRubber.c **** 		{
 211:../MainAlg/Peripherials/LedRubber.c **** 			DIGITAL_IO_SetOutputHigh(&LED_SW_2);
 883              	 .loc 3 211 4
 884 0034 3148     	 ldr r0,.L45+12
 885 0036 FFF7FEFF 	 bl DIGITAL_IO_SetOutputHigh
 886              	.L35:
 212:../MainAlg/Peripherials/LedRubber.c **** 		}
 213:../MainAlg/Peripherials/LedRubber.c **** 		if(led_rubber.blue_outern)
 887              	 .loc 3 213 16
 888 003a 2E4B     	 ldr r3,.L45+4
 889 003c 9B68     	 ldr r3,[r3,#8]
 890              	 .loc 3 213 5
 891 003e 002B     	 cmp r3,#0
 892 0040 02D0     	 beq .L36
 214:../MainAlg/Peripherials/LedRubber.c **** 		{
 215:../MainAlg/Peripherials/LedRubber.c **** 			DIGITAL_IO_SetOutputHigh(&LED_SW_3);
 893              	 .loc 3 215 4
 894 0042 2F48     	 ldr r0,.L45+16
 895 0044 FFF7FEFF 	 bl DIGITAL_IO_SetOutputHigh
 896              	.L36:
 216:../MainAlg/Peripherials/LedRubber.c **** 		}
 217:../MainAlg/Peripherials/LedRubber.c **** 		if(led_rubber.red_intern)
 897              	 .loc 3 217 16
 898 0048 2A4B     	 ldr r3,.L45+4
 899 004a DB68     	 ldr r3,[r3,#12]
 900              	 .loc 3 217 5
 901 004c 002B     	 cmp r3,#0
 902 004e 02D0     	 beq .L37
 218:../MainAlg/Peripherials/LedRubber.c **** 		{
 219:../MainAlg/Peripherials/LedRubber.c **** 			DIGITAL_IO_SetOutputHigh(&LED_SW_4);
 903              	 .loc 3 219 4
 904 0050 2C48     	 ldr r0,.L45+20
 905 0052 FFF7FEFF 	 bl DIGITAL_IO_SetOutputHigh
 906              	.L37:
 220:../MainAlg/Peripherials/LedRubber.c **** 		}
 221:../MainAlg/Peripherials/LedRubber.c **** 		if(led_rubber.green_intern)
 907              	 .loc 3 221 16
 908 0056 274B     	 ldr r3,.L45+4
 909 0058 1B69     	 ldr r3,[r3,#16]
 910              	 .loc 3 221 5
 911 005a 002B     	 cmp r3,#0
 912 005c 02D0     	 beq .L38
 222:../MainAlg/Peripherials/LedRubber.c **** 		{
 223:../MainAlg/Peripherials/LedRubber.c **** 			DIGITAL_IO_SetOutputHigh(&LED_SW_5);
 913              	 .loc 3 223 4
 914 005e 2A48     	 ldr r0,.L45+24
 915 0060 FFF7FEFF 	 bl DIGITAL_IO_SetOutputHigh
 916              	.L38:
 224:../MainAlg/Peripherials/LedRubber.c **** 		}
 225:../MainAlg/Peripherials/LedRubber.c **** 		if(led_rubber.blue_intern)
 917              	 .loc 3 225 16
 918 0064 234B     	 ldr r3,.L45+4
 919 0066 5B69     	 ldr r3,[r3,#20]
 920              	 .loc 3 225 5
 921 0068 002B     	 cmp r3,#0
 922 006a 02D0     	 beq .L33
 226:../MainAlg/Peripherials/LedRubber.c **** 		{
 227:../MainAlg/Peripherials/LedRubber.c **** 			DIGITAL_IO_SetOutputHigh(&LED_SW_6);
 923              	 .loc 3 227 4
 924 006c 2748     	 ldr r0,.L45+28
 925 006e FFF7FEFF 	 bl DIGITAL_IO_SetOutputHigh
 926              	.L33:
 228:../MainAlg/Peripherials/LedRubber.c **** 		}
 229:../MainAlg/Peripherials/LedRubber.c **** 	}
 230:../MainAlg/Peripherials/LedRubber.c **** 
 231:../MainAlg/Peripherials/LedRubber.c **** 
 232:../MainAlg/Peripherials/LedRubber.c **** 	if ((led_rubber.red_outern <= timer))
 927              	 .loc 3 232 17
 928 0072 204B     	 ldr r3,.L45+4
 929 0074 1A68     	 ldr r2,[r3]
 930              	 .loc 3 232 29
 931 0076 1E4B     	 ldr r3,.L45
 932 0078 1B68     	 ldr r3,[r3]
 933              	 .loc 3 232 5
 934 007a 9A42     	 cmp r2,r3
 935 007c 02DC     	 bgt .L39
 233:../MainAlg/Peripherials/LedRubber.c **** 	{
 234:../MainAlg/Peripherials/LedRubber.c **** 		DIGITAL_IO_SetOutputLow(&LED_SW_1);
 936              	 .loc 3 234 3
 937 007e 1E48     	 ldr r0,.L45+8
 938 0080 FFF7FEFF 	 bl DIGITAL_IO_SetOutputLow
 939              	.L39:
 235:../MainAlg/Peripherials/LedRubber.c **** 	}
 236:../MainAlg/Peripherials/LedRubber.c **** 	if ((led_rubber.green_outern <= timer))
 940              	 .loc 3 236 17
 941 0084 1B4B     	 ldr r3,.L45+4
 942 0086 5A68     	 ldr r2,[r3,#4]
 943              	 .loc 3 236 31
 944 0088 194B     	 ldr r3,.L45
 945 008a 1B68     	 ldr r3,[r3]
 946              	 .loc 3 236 5
 947 008c 9A42     	 cmp r2,r3
 948 008e 02DC     	 bgt .L40
 237:../MainAlg/Peripherials/LedRubber.c **** 	{
 238:../MainAlg/Peripherials/LedRubber.c **** 		DIGITAL_IO_SetOutputLow(&LED_SW_2);
 949              	 .loc 3 238 3
 950 0090 1A48     	 ldr r0,.L45+12
 951 0092 FFF7FEFF 	 bl DIGITAL_IO_SetOutputLow
 952              	.L40:
 239:../MainAlg/Peripherials/LedRubber.c **** 	}
 240:../MainAlg/Peripherials/LedRubber.c **** 	if ((led_rubber.blue_outern <= timer))
 953              	 .loc 3 240 17
 954 0096 174B     	 ldr r3,.L45+4
 955 0098 9A68     	 ldr r2,[r3,#8]
 956              	 .loc 3 240 30
 957 009a 154B     	 ldr r3,.L45
 958 009c 1B68     	 ldr r3,[r3]
 959              	 .loc 3 240 5
 960 009e 9A42     	 cmp r2,r3
 961 00a0 02DC     	 bgt .L41
 241:../MainAlg/Peripherials/LedRubber.c **** 	{
 242:../MainAlg/Peripherials/LedRubber.c **** 		DIGITAL_IO_SetOutputLow(&LED_SW_3);
 962              	 .loc 3 242 3
 963 00a2 1748     	 ldr r0,.L45+16
 964 00a4 FFF7FEFF 	 bl DIGITAL_IO_SetOutputLow
 965              	.L41:
 243:../MainAlg/Peripherials/LedRubber.c **** 	}
 244:../MainAlg/Peripherials/LedRubber.c **** 	if ((led_rubber.red_intern <= timer))
 966              	 .loc 3 244 17
 967 00a8 124B     	 ldr r3,.L45+4
 968 00aa DA68     	 ldr r2,[r3,#12]
 969              	 .loc 3 244 29
 970 00ac 104B     	 ldr r3,.L45
 971 00ae 1B68     	 ldr r3,[r3]
 972              	 .loc 3 244 5
 973 00b0 9A42     	 cmp r2,r3
 974 00b2 02DC     	 bgt .L42
 245:../MainAlg/Peripherials/LedRubber.c **** 	{
 246:../MainAlg/Peripherials/LedRubber.c **** 		DIGITAL_IO_SetOutputLow(&LED_SW_4);
 975              	 .loc 3 246 3
 976 00b4 1348     	 ldr r0,.L45+20
 977 00b6 FFF7FEFF 	 bl DIGITAL_IO_SetOutputLow
 978              	.L42:
 247:../MainAlg/Peripherials/LedRubber.c **** 	}
 248:../MainAlg/Peripherials/LedRubber.c **** 	if ((led_rubber.green_intern <= timer))
 979              	 .loc 3 248 17
 980 00ba 0E4B     	 ldr r3,.L45+4
 981 00bc 1A69     	 ldr r2,[r3,#16]
 982              	 .loc 3 248 31
 983 00be 0C4B     	 ldr r3,.L45
 984 00c0 1B68     	 ldr r3,[r3]
 985              	 .loc 3 248 5
 986 00c2 9A42     	 cmp r2,r3
 987 00c4 02DC     	 bgt .L43
 249:../MainAlg/Peripherials/LedRubber.c **** 	{
 250:../MainAlg/Peripherials/LedRubber.c **** 		DIGITAL_IO_SetOutputLow(&LED_SW_5);
 988              	 .loc 3 250 3
 989 00c6 1048     	 ldr r0,.L45+24
 990 00c8 FFF7FEFF 	 bl DIGITAL_IO_SetOutputLow
 991              	.L43:
 251:../MainAlg/Peripherials/LedRubber.c **** 	}
 252:../MainAlg/Peripherials/LedRubber.c **** 	if ((led_rubber.blue_intern <= timer))
 992              	 .loc 3 252 17
 993 00cc 094B     	 ldr r3,.L45+4
 994 00ce 5A69     	 ldr r2,[r3,#20]
 995              	 .loc 3 252 30
 996 00d0 074B     	 ldr r3,.L45
 997 00d2 1B68     	 ldr r3,[r3]
 998              	 .loc 3 252 5
 999 00d4 9A42     	 cmp r2,r3
 1000 00d6 02DC     	 bgt .L44
 253:../MainAlg/Peripherials/LedRubber.c **** 	{
 254:../MainAlg/Peripherials/LedRubber.c **** 		DIGITAL_IO_SetOutputLow(&LED_SW_6);
 1001              	 .loc 3 254 3
 1002 00d8 0C48     	 ldr r0,.L45+28
 1003 00da FFF7FEFF 	 bl DIGITAL_IO_SetOutputLow
 1004              	.L44:
 255:../MainAlg/Peripherials/LedRubber.c **** 	}
 256:../MainAlg/Peripherials/LedRubber.c **** 
 257:../MainAlg/Peripherials/LedRubber.c **** 	timer++;
 1005              	 .loc 3 257 7
 1006 00de 044B     	 ldr r3,.L45
 1007 00e0 1B68     	 ldr r3,[r3]
 1008 00e2 0133     	 adds r3,r3,#1
 1009 00e4 024A     	 ldr r2,.L45
 1010 00e6 1360     	 str r3,[r2]
 258:../MainAlg/Peripherials/LedRubber.c **** }
 1011              	 .loc 3 258 1
 1012 00e8 00BF     	 nop
 1013 00ea 0837     	 adds r7,r7,#8
 1014              	.LCFI36:
 1015              	 .cfi_def_cfa_offset 8
 1016 00ec BD46     	 mov sp,r7
 1017              	.LCFI37:
 1018              	 .cfi_def_cfa_register 13
 1019              	 
 1020 00ee 80BD     	 pop {r7,pc}
 1021              	.L46:
 1022              	 .align 2
 1023              	.L45:
 1024 00f0 00000000 	 .word timer.0
 1025 00f4 00000000 	 .word led_rubber
 1026 00f8 00000000 	 .word LED_SW_1
 1027 00fc 00000000 	 .word LED_SW_2
 1028 0100 00000000 	 .word LED_SW_3
 1029 0104 00000000 	 .word LED_SW_4
 1030 0108 00000000 	 .word LED_SW_5
 1031 010c 00000000 	 .word LED_SW_6
 1032              	 .cfi_endproc
 1033              	.LFE387:
 1035              	 .section .bss.previous_mode.2,"aw",%nobits
 1036              	 .align 2
 1039              	previous_mode.2:
 1040 0000 00000000 	 .space 4
 1041              	 .section .bss.timer.1,"aw",%nobits
 1042              	 .align 2
 1045              	timer.1:
 1046 0000 00000000 	 .space 4
 1047              	 .section .bss.timer.0,"aw",%nobits
 1048              	 .align 2
 1051              	timer.0:
 1052 0000 00000000 	 .space 4
 1053              	 .text
 1054              	.Letext0:
 1055              	 .file 4 "c:\\program files (x86)\\gnu arm embedded toolchain\\10 2020-q4-major\\arm-none-eabi\\include\\machine\\_default_types.h"
 1056              	 .file 5 "c:\\program files (x86)\\gnu arm embedded toolchain\\10 2020-q4-major\\arm-none-eabi\\include\\sys\\_stdint.h"
 1057              	 .file 6 "C:/Workspaces/DAVE-4.4.2-64Bit/_PKDS_TSTS06_811_X47_V1_0/Libraries/XMCLib/inc/xmc4_gpio.h"
 1058              	 .file 7 "C:/Workspaces/DAVE-4.4.2-64Bit/_PKDS_TSTS06_811_X47_V1_0/Dave/Generated/DIGITAL_IO/digital_io_extern.h"
 1059              	 .file 8 "C:/Workspaces/DAVE-4.4.2-64Bit/_PKDS_TSTS06_811_X47_V1_0/Dave/Generated/SYSTIMER/systimer.h"
 1060              	 .file 9 "../MainAlg/Peripherials/LedRubber.h"