   1              	 .cpu cortex-m4
   2              	 .eabi_attribute 27,1
   3              	 .eabi_attribute 20,1
   4              	 .eabi_attribute 21,1
   5              	 .eabi_attribute 23,3
   6              	 .eabi_attribute 24,1
   7              	 .eabi_attribute 25,1
   8              	 .eabi_attribute 26,1
   9              	 .eabi_attribute 30,6
  10              	 .eabi_attribute 34,1
  11              	 .eabi_attribute 18,4
  12              	 .file "presets.c"
  13              	 .text
  14              	.Ltext0:
  15              	 .cfi_sections .debug_frame
  16              	 .global DefaultPresets
  17              	 .section .rodata.DefaultPresets,"a"
  18              	 .align 2
  21              	DefaultPresets:
  22 0000 01000000 	 .word 1
  23 0004 01000000 	 .word 1
  24 0008 01000000 	 .word 1
  25 000c 01000000 	 .word 1
  26 0010 05000100 	 .word 65541
  27 0014 45021000 	 .word 1049157
  28 0018 00000000 	 .word 0
  29 001c C8000000 	 .word 200
  30 0020 B80B0000 	 .word 3000
  31 0024 00000000 	 .word 0
  32 0028 00050000 	 .word 1280
  33 002c C8000000 	 .word 200
  34 0030 D0070000 	 .word 2000
  35 0034 20030000 	 .word 800
  36 0038 A0000000 	 .word 160
  37 003c 20030000 	 .word 800
  38 0040 20030000 	 .word 800
  39 0044 A0000000 	 .word 160
  40 0048 00000000 	 .word 0
  41              	 .global Presets
  42              	 .section .bss.Presets,"aw",%nobits
  43              	 .align 2
  46              	Presets:
  47 0000 00000000 	 .space 76
  47      00000000 
  47      00000000 
  47      00000000 
  47      00000000 
  48              	 .section .text.ReadAllPresets,"ax",%progbits
  49              	 .align 1
  50              	 .global ReadAllPresets
  51              	 .arch armv7e-m
  52              	 .syntax unified
  53              	 .thumb
  54              	 .thumb_func
  55              	 .fpu fpv4-sp-d16
  57              	ReadAllPresets:
  58              	.LFB416:
  59              	 .file 1 "../MainAlg/presets.c"
   1:../MainAlg/presets.c **** /*
   2:../MainAlg/presets.c ****  * presets.c
   3:../MainAlg/presets.c ****  *
   4:../MainAlg/presets.c ****  *  Created on: Jul 16, 2021
   5:../MainAlg/presets.c ****  *      Author: Primary
   6:../MainAlg/presets.c ****  */
   7:../MainAlg/presets.c **** 
   8:../MainAlg/presets.c **** /* ---------------------------------------------------------------------------*/
   9:../MainAlg/presets.c **** /* Includes ------------------------------------------------------------------*/
  10:../MainAlg/presets.c **** /* ---------------------------------------------------------------------------*/
  11:../MainAlg/presets.c **** #include "MainAlg/presets.h"
  12:../MainAlg/presets.c **** #include "MainAlg/main_alg.h"
  13:../MainAlg/presets.c **** 
  14:../MainAlg/presets.c **** 
  15:../MainAlg/presets.c **** 
  16:../MainAlg/presets.c **** /* ---------------------------------------------------------------------------*/
  17:../MainAlg/presets.c **** /* Private typedef -----------------------------------------------------------*/
  18:../MainAlg/presets.c **** /* ---------------------------------------------------------------------------*/
  19:../MainAlg/presets.c **** 
  20:../MainAlg/presets.c **** /* ---------------------------------------------------------------------------*/
  21:../MainAlg/presets.c **** /* Private define ------------------------------------------------------------*/
  22:../MainAlg/presets.c **** /* ---------------------------------------------------------------------------*/
  23:../MainAlg/presets.c **** 
  24:../MainAlg/presets.c **** /* ---------------------------------------------------------------------------*/
  25:../MainAlg/presets.c **** /* Private macro -------------------------------------------------------------*/
  26:../MainAlg/presets.c **** /* ---------------------------------------------------------------------------*/
  27:../MainAlg/presets.c **** 
  28:../MainAlg/presets.c **** /* ---------------------------------------------------------------------------*/
  29:../MainAlg/presets.c **** /* Private constants ---------------------------------------------------------*/
  30:../MainAlg/presets.c **** /* ---------------------------------------------------------------------------*/
  31:../MainAlg/presets.c **** const PresetsTypeDef DefaultPresets = { // stored in the RAM default presets instance
  32:../MainAlg/presets.c **** 
  33:../MainAlg/presets.c **** 	.CLOSE_DIR = 1, // for CA==0 is 1 for 1-3 is -1
  34:../MainAlg/presets.c **** 	.CLOSE_SENSOR_TYPE = 1,
  35:../MainAlg/presets.c **** 	.DOOR_NUMBER = 1,
  36:../MainAlg/presets.c **** 
  37:../MainAlg/presets.c **** 	.PROJECT_NUM = 1,
  38:../MainAlg/presets.c **** 	.SOFTWARE_VERSION = 0x00010005,
  39:../MainAlg/presets.c **** 	.HARDWARE_VERSION = 0x00100245,
  40:../MainAlg/presets.c **** 	.CYCLES_COUNTER = 0,
  41:../MainAlg/presets.c **** 
  42:../MainAlg/presets.c **** 	.STARTUP_TIME = (2000/MAIN_TIMER_TIME_MS),
  43:../MainAlg/presets.c **** 	.MAXIMUM_CURRENT = (3000),
  44:../MainAlg/presets.c **** 	.OPEN_POSITION = (0), //1400//1480//1780
  45:../MainAlg/presets.c **** 
  46:../MainAlg/presets.c **** 	.VEHICLE_SPEED_THRESHOLD = (5 * 256), //
  47:../MainAlg/presets.c **** 	.HOMING_VELOCITY = (200),
  48:../MainAlg/presets.c **** 	.HOMING_DONE_CURRENT = (2000),
  49:../MainAlg/presets.c **** 
  50:../MainAlg/presets.c **** 	.CLOSING_TIMEOUT = (8000/MAIN_TIMER_TIME_MS),
  51:../MainAlg/presets.c **** 	.CLOSING_VELOCITY = 160,
  52:../MainAlg/presets.c **** 	.CLOSING_DONE_CURRENT = (800),
  53:../MainAlg/presets.c **** 
  54:../MainAlg/presets.c **** 	.OPENING_TIMEOUT = (8000/MAIN_TIMER_TIME_MS),
  55:../MainAlg/presets.c **** 	.OPENING_VELOCITY = 160,
  56:../MainAlg/presets.c **** //	.CYCLES_COUNTER = 0,
  57:../MainAlg/presets.c **** 	.BUZZER_TYPE = 0,  //0 - SFM 1 - BPT use sfm(0) for all
  58:../MainAlg/presets.c **** 
  59:../MainAlg/presets.c **** 	// ...
  60:../MainAlg/presets.c **** }; // for example only...
  61:../MainAlg/presets.c **** 
  62:../MainAlg/presets.c **** 
  63:../MainAlg/presets.c **** 
  64:../MainAlg/presets.c **** /* ---------------------------------------------------------------------------*/
  65:../MainAlg/presets.c **** /* Private variables ---------------------------------------------------------*/
  66:../MainAlg/presets.c **** /* ---------------------------------------------------------------------------*/
  67:../MainAlg/presets.c **** PresetsTypeDef Presets; // stored in the RAM working presets instance
  68:../MainAlg/presets.c **** 
  69:../MainAlg/presets.c **** 
  70:../MainAlg/presets.c **** 
  71:../MainAlg/presets.c **** /* ---------------------------------------------------------------------------*/
  72:../MainAlg/presets.c **** /* External variables --------------------------------------------------------*/
  73:../MainAlg/presets.c **** /* ---------------------------------------------------------------------------*/
  74:../MainAlg/presets.c **** 
  75:../MainAlg/presets.c **** /* ---------------------------------------------------------------------------*/
  76:../MainAlg/presets.c **** /* Private function prototypes -----------------------------------------------*/
  77:../MainAlg/presets.c **** /* ---------------------------------------------------------------------------*/
  78:../MainAlg/presets.c **** 
  79:../MainAlg/presets.c **** /* ---------------------------------------------------------------------------*/
  80:../MainAlg/presets.c **** /* Public Functions ----------------------------------------------------------*/
  81:../MainAlg/presets.c **** /* ---------------------------------------------------------------------------*/
  82:../MainAlg/presets.c **** void ReadAllPresets( const PresetsTypeDef *const pntrPresets ) {
  60              	 .loc 1 82 64
  61              	 .cfi_startproc
  62              	 
  63              	 
  64 0000 80B5     	 push {r7,lr}
  65              	.LCFI0:
  66              	 .cfi_def_cfa_offset 8
  67              	 .cfi_offset 7,-8
  68              	 .cfi_offset 14,-4
  69 0002 82B0     	 sub sp,sp,#8
  70              	.LCFI1:
  71              	 .cfi_def_cfa_offset 16
  72 0004 00AF     	 add r7,sp,#0
  73              	.LCFI2:
  74              	 .cfi_def_cfa_register 7
  75 0006 7860     	 str r0,[r7,#4]
  83:../MainAlg/presets.c **** 	E_EEPROM_XMC4_ReadArray( 0, (uint8_t*)pntrPresets, sizeof(*pntrPresets) );
  76              	 .loc 1 83 2
  77 0008 4C22     	 movs r2,#76
  78 000a 7968     	 ldr r1,[r7,#4]
  79 000c 0020     	 movs r0,#0
  80 000e FFF7FEFF 	 bl E_EEPROM_XMC4_ReadArray
  84:../MainAlg/presets.c **** }
  81              	 .loc 1 84 1
  82 0012 00BF     	 nop
  83 0014 0837     	 adds r7,r7,#8
  84              	.LCFI3:
  85              	 .cfi_def_cfa_offset 8
  86 0016 BD46     	 mov sp,r7
  87              	.LCFI4:
  88              	 .cfi_def_cfa_register 13
  89              	 
  90 0018 80BD     	 pop {r7,pc}
  91              	 .cfi_endproc
  92              	.LFE416:
  94              	 .section .text.ReadParameter,"ax",%progbits
  95              	 .align 1
  96              	 .global ReadParameter
  97              	 .syntax unified
  98              	 .thumb
  99              	 .thumb_func
 100              	 .fpu fpv4-sp-d16
 102              	ReadParameter:
 103              	.LFB417:
  85:../MainAlg/presets.c **** 
  86:../MainAlg/presets.c **** 
  87:../MainAlg/presets.c **** 
  88:../MainAlg/presets.c **** void ReadParameter( const PresetsTypeDef *const pntrPresets, pntrParam_t pntrParam ) {
 104              	 .loc 1 88 86
 105              	 .cfi_startproc
 106              	 
 107              	 
 108 0000 80B5     	 push {r7,lr}
 109              	.LCFI5:
 110              	 .cfi_def_cfa_offset 8
 111              	 .cfi_offset 7,-8
 112              	 .cfi_offset 14,-4
 113 0002 84B0     	 sub sp,sp,#16
 114              	.LCFI6:
 115              	 .cfi_def_cfa_offset 24
 116 0004 00AF     	 add r7,sp,#0
 117              	.LCFI7:
 118              	 .cfi_def_cfa_register 7
 119 0006 7860     	 str r0,[r7,#4]
 120 0008 3960     	 str r1,[r7]
  89:../MainAlg/presets.c **** 	int32_t offset = pntrParam - (uint8_t*)pntrPresets;
 121              	 .loc 1 89 10
 122 000a 3A68     	 ldr r2,[r7]
 123 000c 7B68     	 ldr r3,[r7,#4]
 124 000e D31A     	 subs r3,r2,r3
 125 0010 FB60     	 str r3,[r7,#12]
  90:../MainAlg/presets.c **** 	XMC_ASSERT("EEPROM ReadParameter: Wrong parameter address", (offset >= 0) );
  91:../MainAlg/presets.c **** 	XMC_ASSERT("EEPROM ReadParameter: Wrong parameter address", (offset < RETAIN_SIZE) );
  92:../MainAlg/presets.c **** 	XMC_ASSERT("EEPROM ReadParameter: Wrong parameter address", (offset % 4 == 0) );
  93:../MainAlg/presets.c **** 
  94:../MainAlg/presets.c **** 	E_EEPROM_XMC4_ReadArray( (uint16_t)offset, pntrParam, 4 ); // read 4 bytes (one parameter)
 126              	 .loc 1 94 2
 127 0012 FB68     	 ldr r3,[r7,#12]
 128 0014 9BB2     	 uxth r3,r3
 129 0016 0422     	 movs r2,#4
 130 0018 3968     	 ldr r1,[r7]
 131 001a 1846     	 mov r0,r3
 132 001c FFF7FEFF 	 bl E_EEPROM_XMC4_ReadArray
  95:../MainAlg/presets.c **** }
 133              	 .loc 1 95 1
 134 0020 00BF     	 nop
 135 0022 1037     	 adds r7,r7,#16
 136              	.LCFI8:
 137              	 .cfi_def_cfa_offset 8
 138 0024 BD46     	 mov sp,r7
 139              	.LCFI9:
 140              	 .cfi_def_cfa_register 13
 141              	 
 142 0026 80BD     	 pop {r7,pc}
 143              	 .cfi_endproc
 144              	.LFE417:
 146              	 .section .text.SaveAllPresets,"ax",%progbits
 147              	 .align 1
 148              	 .global SaveAllPresets
 149              	 .syntax unified
 150              	 .thumb
 151              	 .thumb_func
 152              	 .fpu fpv4-sp-d16
 154              	SaveAllPresets:
 155              	.LFB418:
  96:../MainAlg/presets.c **** 
  97:../MainAlg/presets.c **** 
  98:../MainAlg/presets.c **** 
  99:../MainAlg/presets.c **** E_EEPROM_XMC4_STATUS_t SaveAllPresets( const PresetsTypeDef *const pntrPresets ) {
 156              	 .loc 1 99 82
 157              	 .cfi_startproc
 158              	 
 159              	 
 160 0000 80B5     	 push {r7,lr}
 161              	.LCFI10:
 162              	 .cfi_def_cfa_offset 8
 163              	 .cfi_offset 7,-8
 164              	 .cfi_offset 14,-4
 165 0002 82B0     	 sub sp,sp,#8
 166              	.LCFI11:
 167              	 .cfi_def_cfa_offset 16
 168 0004 00AF     	 add r7,sp,#0
 169              	.LCFI12:
 170              	 .cfi_def_cfa_register 7
 171 0006 7860     	 str r0,[r7,#4]
 100:../MainAlg/presets.c **** 	E_EEPROM_XMC4_WriteArray( 0, (uint8_t*)pntrPresets, sizeof(*pntrPresets) );
 172              	 .loc 1 100 2
 173 0008 4C22     	 movs r2,#76
 174 000a 7968     	 ldr r1,[r7,#4]
 175 000c 0020     	 movs r0,#0
 176 000e FFF7FEFF 	 bl E_EEPROM_XMC4_WriteArray
 101:../MainAlg/presets.c **** 	return E_EEPROM_XMC4_UpdateFlashContents();
 177              	 .loc 1 101 9
 178 0012 FFF7FEFF 	 bl E_EEPROM_XMC4_UpdateFlashContents
 179 0016 0346     	 mov r3,r0
 102:../MainAlg/presets.c **** }
 180              	 .loc 1 102 1
 181 0018 1846     	 mov r0,r3
 182 001a 0837     	 adds r7,r7,#8
 183              	.LCFI13:
 184              	 .cfi_def_cfa_offset 8
 185 001c BD46     	 mov sp,r7
 186              	.LCFI14:
 187              	 .cfi_def_cfa_register 13
 188              	 
 189 001e 80BD     	 pop {r7,pc}
 190              	 .cfi_endproc
 191              	.LFE418:
 193              	 .section .text.SaveParameter,"ax",%progbits
 194              	 .align 1
 195              	 .global SaveParameter
 196              	 .syntax unified
 197              	 .thumb
 198              	 .thumb_func
 199              	 .fpu fpv4-sp-d16
 201              	SaveParameter:
 202              	.LFB419:
 103:../MainAlg/presets.c **** 
 104:../MainAlg/presets.c **** 
 105:../MainAlg/presets.c **** 
 106:../MainAlg/presets.c **** E_EEPROM_XMC4_STATUS_t SaveParameter( const PresetsTypeDef *const pntrPresets, const pntrParam_t pn
 203              	 .loc 1 106 110
 204              	 .cfi_startproc
 205              	 
 206              	 
 207 0000 80B5     	 push {r7,lr}
 208              	.LCFI15:
 209              	 .cfi_def_cfa_offset 8
 210              	 .cfi_offset 7,-8
 211              	 .cfi_offset 14,-4
 212 0002 84B0     	 sub sp,sp,#16
 213              	.LCFI16:
 214              	 .cfi_def_cfa_offset 24
 215 0004 00AF     	 add r7,sp,#0
 216              	.LCFI17:
 217              	 .cfi_def_cfa_register 7
 218 0006 7860     	 str r0,[r7,#4]
 219 0008 3960     	 str r1,[r7]
 107:../MainAlg/presets.c **** 	uint16_t offset = pntrParam - (uint8_t*)pntrPresets;
 220              	 .loc 1 107 30
 221 000a 3A68     	 ldr r2,[r7]
 222 000c 7B68     	 ldr r3,[r7,#4]
 223 000e D31A     	 subs r3,r2,r3
 224              	 .loc 1 107 11
 225 0010 FB81     	 strh r3,[r7,#14]
 108:../MainAlg/presets.c **** 	XMC_ASSERT("EEPROM SaveParameter: Wrong parameter address", (offset >= 0) );
 109:../MainAlg/presets.c **** 	XMC_ASSERT("EEPROM SaveParameter: Wrong parameter address", (offset < RETAIN_SIZE) );
 110:../MainAlg/presets.c **** 	XMC_ASSERT("EEPROM SaveParameter: Wrong parameter address", (offset % 4 == 0));
 111:../MainAlg/presets.c **** 
 112:../MainAlg/presets.c **** 	E_EEPROM_XMC4_WriteArray( (uint16_t)offset, pntrParam, 4 ); // write 4 bytes (one parameter)
 226              	 .loc 1 112 2
 227 0012 FB89     	 ldrh r3,[r7,#14]
 228 0014 0422     	 movs r2,#4
 229 0016 3968     	 ldr r1,[r7]
 230 0018 1846     	 mov r0,r3
 231 001a FFF7FEFF 	 bl E_EEPROM_XMC4_WriteArray
 113:../MainAlg/presets.c **** 	return E_EEPROM_XMC4_UpdateFlashContents();
 232              	 .loc 1 113 9
 233 001e FFF7FEFF 	 bl E_EEPROM_XMC4_UpdateFlashContents
 234 0022 0346     	 mov r3,r0
 114:../MainAlg/presets.c **** }
 235              	 .loc 1 114 1
 236 0024 1846     	 mov r0,r3
 237 0026 1037     	 adds r7,r7,#16
 238              	.LCFI18:
 239              	 .cfi_def_cfa_offset 8
 240 0028 BD46     	 mov sp,r7
 241              	.LCFI19:
 242              	 .cfi_def_cfa_register 13
 243              	 
 244 002a 80BD     	 pop {r7,pc}
 245              	 .cfi_endproc
 246              	.LFE419:
 248              	 .text
 249              	.Letext0:
 250              	 .file 2 "c:\\program files (x86)\\gnu arm embedded toolchain\\10 2020-q4-major\\arm-none-eabi\\include\\machine\\_default_types.h"
 251              	 .file 3 "c:\\program files (x86)\\gnu arm embedded toolchain\\10 2020-q4-major\\arm-none-eabi\\include\\sys\\_stdint.h"
 252              	 .file 4 "C:/Workspaces/DAVE-4.4.2-64Bit/_PKDS_TSTS06_811_X47_V1_0/MainAlg/retain_xmc4.h"
 253              	 .file 5 "C:/Workspaces/DAVE-4.4.2-64Bit/_PKDS_TSTS06_811_X47_V1_0/MainAlg/presets.h"