   1              	 .cpu cortex-m4
   2              	 .eabi_attribute 27,1
   3              	 .eabi_attribute 20,1
   4              	 .eabi_attribute 21,1
   5              	 .eabi_attribute 23,3
   6              	 .eabi_attribute 24,1
   7              	 .eabi_attribute 25,1
   8              	 .eabi_attribute 26,1
   9              	 .eabi_attribute 30,6
  10              	 .eabi_attribute 34,1
  11              	 .eabi_attribute 18,4
  12              	 .file "bus_io.c"
  13              	 .text
  14              	.Ltext0:
  15              	 .cfi_sections .debug_frame
  16              	 .section .text.XMC_GPIO_SetOutputLevel,"ax",%progbits
  17              	 .align 1
  18              	 .arch armv7e-m
  19              	 .syntax unified
  20              	 .thumb
  21              	 .thumb_func
  22              	 .fpu fpv4-sp-d16
  24              	XMC_GPIO_SetOutputLevel:
  25              	.LFB134:
  26              	 .file 1 "C:/Workspaces/DAVE-4.4.2-64Bit/_PKDS_TSTS06_811_X47_V1_0/Libraries/XMCLib/inc/xmc_gpio.h"
   1:C:/Workspaces/DAVE-4.4.2-64Bit/_PKDS_TSTS06_811_X47_V1_0/Libraries/XMCLib/inc\xmc_gpio.h **** /**
   2:C:/Workspaces/DAVE-4.4.2-64Bit/_PKDS_TSTS06_811_X47_V1_0/Libraries/XMCLib/inc\xmc_gpio.h ****  * @file xmc_gpio.h
   3:C:/Workspaces/DAVE-4.4.2-64Bit/_PKDS_TSTS06_811_X47_V1_0/Libraries/XMCLib/inc\xmc_gpio.h ****  * @date 2015-06-20
   4:C:/Workspaces/DAVE-4.4.2-64Bit/_PKDS_TSTS06_811_X47_V1_0/Libraries/XMCLib/inc\xmc_gpio.h ****  *
   5:C:/Workspaces/DAVE-4.4.2-64Bit/_PKDS_TSTS06_811_X47_V1_0/Libraries/XMCLib/inc\xmc_gpio.h ****  * @cond
   6:C:/Workspaces/DAVE-4.4.2-64Bit/_PKDS_TSTS06_811_X47_V1_0/Libraries/XMCLib/inc\xmc_gpio.h ****  *****************************************************************************
   7:C:/Workspaces/DAVE-4.4.2-64Bit/_PKDS_TSTS06_811_X47_V1_0/Libraries/XMCLib/inc\xmc_gpio.h ****  * XMClib v2.2.0 - XMC Peripheral Driver Library
   8:C:/Workspaces/DAVE-4.4.2-64Bit/_PKDS_TSTS06_811_X47_V1_0/Libraries/XMCLib/inc\xmc_gpio.h ****  *
   9:C:/Workspaces/DAVE-4.4.2-64Bit/_PKDS_TSTS06_811_X47_V1_0/Libraries/XMCLib/inc\xmc_gpio.h ****  * Copyright (c) 2015-2020, Infineon Technologies AG
  10:C:/Workspaces/DAVE-4.4.2-64Bit/_PKDS_TSTS06_811_X47_V1_0/Libraries/XMCLib/inc\xmc_gpio.h ****  * All rights reserved.
  11:C:/Workspaces/DAVE-4.4.2-64Bit/_PKDS_TSTS06_811_X47_V1_0/Libraries/XMCLib/inc\xmc_gpio.h ****  *
  12:C:/Workspaces/DAVE-4.4.2-64Bit/_PKDS_TSTS06_811_X47_V1_0/Libraries/XMCLib/inc\xmc_gpio.h ****  * Boost Software License - Version 1.0 - August 17th, 2003
  13:C:/Workspaces/DAVE-4.4.2-64Bit/_PKDS_TSTS06_811_X47_V1_0/Libraries/XMCLib/inc\xmc_gpio.h ****  *
  14:C:/Workspaces/DAVE-4.4.2-64Bit/_PKDS_TSTS06_811_X47_V1_0/Libraries/XMCLib/inc\xmc_gpio.h ****  * Permission is hereby granted, free of charge, to any person or organization
  15:C:/Workspaces/DAVE-4.4.2-64Bit/_PKDS_TSTS06_811_X47_V1_0/Libraries/XMCLib/inc\xmc_gpio.h ****  * obtaining a copy of the software and accompanying documentation covered by
  16:C:/Workspaces/DAVE-4.4.2-64Bit/_PKDS_TSTS06_811_X47_V1_0/Libraries/XMCLib/inc\xmc_gpio.h ****  * this license (the "Software") to use, reproduce, display, distribute,
  17:C:/Workspaces/DAVE-4.4.2-64Bit/_PKDS_TSTS06_811_X47_V1_0/Libraries/XMCLib/inc\xmc_gpio.h ****  * execute, and transmit the Software, and to prepare derivative works of the
  18:C:/Workspaces/DAVE-4.4.2-64Bit/_PKDS_TSTS06_811_X47_V1_0/Libraries/XMCLib/inc\xmc_gpio.h ****  * Software, and to permit third-parties to whom the Software is furnished to
  19:C:/Workspaces/DAVE-4.4.2-64Bit/_PKDS_TSTS06_811_X47_V1_0/Libraries/XMCLib/inc\xmc_gpio.h ****  * do so, all subject to the following:
  20:C:/Workspaces/DAVE-4.4.2-64Bit/_PKDS_TSTS06_811_X47_V1_0/Libraries/XMCLib/inc\xmc_gpio.h ****  *
  21:C:/Workspaces/DAVE-4.4.2-64Bit/_PKDS_TSTS06_811_X47_V1_0/Libraries/XMCLib/inc\xmc_gpio.h ****  * The copyright notices in the Software and this entire statement, including
  22:C:/Workspaces/DAVE-4.4.2-64Bit/_PKDS_TSTS06_811_X47_V1_0/Libraries/XMCLib/inc\xmc_gpio.h ****  * the above license grant, this restriction and the following disclaimer,
  23:C:/Workspaces/DAVE-4.4.2-64Bit/_PKDS_TSTS06_811_X47_V1_0/Libraries/XMCLib/inc\xmc_gpio.h ****  * must be included in all copies of the Software, in whole or in part, and
  24:C:/Workspaces/DAVE-4.4.2-64Bit/_PKDS_TSTS06_811_X47_V1_0/Libraries/XMCLib/inc\xmc_gpio.h ****  * all derivative works of the Software, unless such copies or derivative
  25:C:/Workspaces/DAVE-4.4.2-64Bit/_PKDS_TSTS06_811_X47_V1_0/Libraries/XMCLib/inc\xmc_gpio.h ****  * works are solely in the form of machine-executable object code generated by
  26:C:/Workspaces/DAVE-4.4.2-64Bit/_PKDS_TSTS06_811_X47_V1_0/Libraries/XMCLib/inc\xmc_gpio.h ****  * a source language processor.
  27:C:/Workspaces/DAVE-4.4.2-64Bit/_PKDS_TSTS06_811_X47_V1_0/Libraries/XMCLib/inc\xmc_gpio.h ****  *
  28:C:/Workspaces/DAVE-4.4.2-64Bit/_PKDS_TSTS06_811_X47_V1_0/Libraries/XMCLib/inc\xmc_gpio.h ****  * THE SOFTWARE IS PROVIDED "AS IS", WITHOUT WARRANTY OF ANY KIND, EXPRESS OR
  29:C:/Workspaces/DAVE-4.4.2-64Bit/_PKDS_TSTS06_811_X47_V1_0/Libraries/XMCLib/inc\xmc_gpio.h ****  * IMPLIED, INCLUDING BUT NOT LIMITED TO THE WARRANTIES OF MERCHANTABILITY,
  30:C:/Workspaces/DAVE-4.4.2-64Bit/_PKDS_TSTS06_811_X47_V1_0/Libraries/XMCLib/inc\xmc_gpio.h ****  * FITNESS FOR A PARTICULAR PURPOSE, TITLE AND NON-INFRINGEMENT. IN NO EVENT
  31:C:/Workspaces/DAVE-4.4.2-64Bit/_PKDS_TSTS06_811_X47_V1_0/Libraries/XMCLib/inc\xmc_gpio.h ****  * SHALL THE COPYRIGHT HOLDERS OR ANYONE DISTRIBUTING THE SOFTWARE BE LIABLE
  32:C:/Workspaces/DAVE-4.4.2-64Bit/_PKDS_TSTS06_811_X47_V1_0/Libraries/XMCLib/inc\xmc_gpio.h ****  * FOR ANY DAMAGES OR OTHER LIABILITY, WHETHER IN CONTRACT, TORT OR OTHERWISE,
  33:C:/Workspaces/DAVE-4.4.2-64Bit/_PKDS_TSTS06_811_X47_V1_0/Libraries/XMCLib/inc\xmc_gpio.h ****  * ARISING FROM, OUT OF OR IN CONNECTION WITH THE SOFTWARE OR THE USE OR OTHER
  34:C:/Workspaces/DAVE-4.4.2-64Bit/_PKDS_TSTS06_811_X47_V1_0/Libraries/XMCLib/inc\xmc_gpio.h ****  * DEALINGS IN THE SOFTWARE.
  35:C:/Workspaces/DAVE-4.4.2-64Bit/_PKDS_TSTS06_811_X47_V1_0/Libraries/XMCLib/inc\xmc_gpio.h ****  *
  36:C:/Workspaces/DAVE-4.4.2-64Bit/_PKDS_TSTS06_811_X47_V1_0/Libraries/XMCLib/inc\xmc_gpio.h ****  * To improve the quality of the software, users are encouraged to share
  37:C:/Workspaces/DAVE-4.4.2-64Bit/_PKDS_TSTS06_811_X47_V1_0/Libraries/XMCLib/inc\xmc_gpio.h ****  * modifications, enhancements or bug fixes with Infineon Technologies AG
  38:C:/Workspaces/DAVE-4.4.2-64Bit/_PKDS_TSTS06_811_X47_V1_0/Libraries/XMCLib/inc\xmc_gpio.h ****  * at XMCSupport@infineon.com.
  39:C:/Workspaces/DAVE-4.4.2-64Bit/_PKDS_TSTS06_811_X47_V1_0/Libraries/XMCLib/inc\xmc_gpio.h ****  *****************************************************************************
  40:C:/Workspaces/DAVE-4.4.2-64Bit/_PKDS_TSTS06_811_X47_V1_0/Libraries/XMCLib/inc\xmc_gpio.h ****  *
  41:C:/Workspaces/DAVE-4.4.2-64Bit/_PKDS_TSTS06_811_X47_V1_0/Libraries/XMCLib/inc\xmc_gpio.h ****  * Change History
  42:C:/Workspaces/DAVE-4.4.2-64Bit/_PKDS_TSTS06_811_X47_V1_0/Libraries/XMCLib/inc\xmc_gpio.h ****  * --------------
  43:C:/Workspaces/DAVE-4.4.2-64Bit/_PKDS_TSTS06_811_X47_V1_0/Libraries/XMCLib/inc\xmc_gpio.h ****  *
  44:C:/Workspaces/DAVE-4.4.2-64Bit/_PKDS_TSTS06_811_X47_V1_0/Libraries/XMCLib/inc\xmc_gpio.h ****  * 2015-02-20:
  45:C:/Workspaces/DAVE-4.4.2-64Bit/_PKDS_TSTS06_811_X47_V1_0/Libraries/XMCLib/inc\xmc_gpio.h ****  *     - Initial draft<br>
  46:C:/Workspaces/DAVE-4.4.2-64Bit/_PKDS_TSTS06_811_X47_V1_0/Libraries/XMCLib/inc\xmc_gpio.h ****  *     - Documentation improved <br>
  47:C:/Workspaces/DAVE-4.4.2-64Bit/_PKDS_TSTS06_811_X47_V1_0/Libraries/XMCLib/inc\xmc_gpio.h ****  *
  48:C:/Workspaces/DAVE-4.4.2-64Bit/_PKDS_TSTS06_811_X47_V1_0/Libraries/XMCLib/inc\xmc_gpio.h ****  * 2015-06-20:
  49:C:/Workspaces/DAVE-4.4.2-64Bit/_PKDS_TSTS06_811_X47_V1_0/Libraries/XMCLib/inc\xmc_gpio.h ****  *     - Removed version macros and declaration of GetDriverVersion API
  50:C:/Workspaces/DAVE-4.4.2-64Bit/_PKDS_TSTS06_811_X47_V1_0/Libraries/XMCLib/inc\xmc_gpio.h ****  *
  51:C:/Workspaces/DAVE-4.4.2-64Bit/_PKDS_TSTS06_811_X47_V1_0/Libraries/XMCLib/inc\xmc_gpio.h ****  * @endcond
  52:C:/Workspaces/DAVE-4.4.2-64Bit/_PKDS_TSTS06_811_X47_V1_0/Libraries/XMCLib/inc\xmc_gpio.h ****  *
  53:C:/Workspaces/DAVE-4.4.2-64Bit/_PKDS_TSTS06_811_X47_V1_0/Libraries/XMCLib/inc\xmc_gpio.h ****  */
  54:C:/Workspaces/DAVE-4.4.2-64Bit/_PKDS_TSTS06_811_X47_V1_0/Libraries/XMCLib/inc\xmc_gpio.h **** 
  55:C:/Workspaces/DAVE-4.4.2-64Bit/_PKDS_TSTS06_811_X47_V1_0/Libraries/XMCLib/inc\xmc_gpio.h **** #ifndef XMC_GPIO_H
  56:C:/Workspaces/DAVE-4.4.2-64Bit/_PKDS_TSTS06_811_X47_V1_0/Libraries/XMCLib/inc\xmc_gpio.h **** #define XMC_GPIO_H
  57:C:/Workspaces/DAVE-4.4.2-64Bit/_PKDS_TSTS06_811_X47_V1_0/Libraries/XMCLib/inc\xmc_gpio.h **** 
  58:C:/Workspaces/DAVE-4.4.2-64Bit/_PKDS_TSTS06_811_X47_V1_0/Libraries/XMCLib/inc\xmc_gpio.h **** /**************************************************************************************************
  59:C:/Workspaces/DAVE-4.4.2-64Bit/_PKDS_TSTS06_811_X47_V1_0/Libraries/XMCLib/inc\xmc_gpio.h ****  * HEADER FILES
  60:C:/Workspaces/DAVE-4.4.2-64Bit/_PKDS_TSTS06_811_X47_V1_0/Libraries/XMCLib/inc\xmc_gpio.h ****  **************************************************************************************************
  61:C:/Workspaces/DAVE-4.4.2-64Bit/_PKDS_TSTS06_811_X47_V1_0/Libraries/XMCLib/inc\xmc_gpio.h **** 
  62:C:/Workspaces/DAVE-4.4.2-64Bit/_PKDS_TSTS06_811_X47_V1_0/Libraries/XMCLib/inc\xmc_gpio.h **** #include "xmc_common.h"
  63:C:/Workspaces/DAVE-4.4.2-64Bit/_PKDS_TSTS06_811_X47_V1_0/Libraries/XMCLib/inc\xmc_gpio.h **** 
  64:C:/Workspaces/DAVE-4.4.2-64Bit/_PKDS_TSTS06_811_X47_V1_0/Libraries/XMCLib/inc\xmc_gpio.h **** /**
  65:C:/Workspaces/DAVE-4.4.2-64Bit/_PKDS_TSTS06_811_X47_V1_0/Libraries/XMCLib/inc\xmc_gpio.h ****  * @addtogroup XMClib XMC Peripheral Library
  66:C:/Workspaces/DAVE-4.4.2-64Bit/_PKDS_TSTS06_811_X47_V1_0/Libraries/XMCLib/inc\xmc_gpio.h ****  * @{
  67:C:/Workspaces/DAVE-4.4.2-64Bit/_PKDS_TSTS06_811_X47_V1_0/Libraries/XMCLib/inc\xmc_gpio.h ****  */
  68:C:/Workspaces/DAVE-4.4.2-64Bit/_PKDS_TSTS06_811_X47_V1_0/Libraries/XMCLib/inc\xmc_gpio.h **** 
  69:C:/Workspaces/DAVE-4.4.2-64Bit/_PKDS_TSTS06_811_X47_V1_0/Libraries/XMCLib/inc\xmc_gpio.h **** /**
  70:C:/Workspaces/DAVE-4.4.2-64Bit/_PKDS_TSTS06_811_X47_V1_0/Libraries/XMCLib/inc\xmc_gpio.h ****  * @addtogroup GPIO
  71:C:/Workspaces/DAVE-4.4.2-64Bit/_PKDS_TSTS06_811_X47_V1_0/Libraries/XMCLib/inc\xmc_gpio.h ****  * @brief General Purpose Input Output (GPIO) driver for the XMC microcontroller family.
  72:C:/Workspaces/DAVE-4.4.2-64Bit/_PKDS_TSTS06_811_X47_V1_0/Libraries/XMCLib/inc\xmc_gpio.h ****  *
  73:C:/Workspaces/DAVE-4.4.2-64Bit/_PKDS_TSTS06_811_X47_V1_0/Libraries/XMCLib/inc\xmc_gpio.h ****  * GPIO driver provide a generic and very flexible software interface for all standard digital I/O 
  74:C:/Workspaces/DAVE-4.4.2-64Bit/_PKDS_TSTS06_811_X47_V1_0/Libraries/XMCLib/inc\xmc_gpio.h ****  * Each port slice has individual interfaces for the operation as General Purpose I/O and it furthe
  75:C:/Workspaces/DAVE-4.4.2-64Bit/_PKDS_TSTS06_811_X47_V1_0/Libraries/XMCLib/inc\xmc_gpio.h ****  * connectivity to the on-chip periphery and the control for the pad characteristics.
  76:C:/Workspaces/DAVE-4.4.2-64Bit/_PKDS_TSTS06_811_X47_V1_0/Libraries/XMCLib/inc\xmc_gpio.h ****  *
  77:C:/Workspaces/DAVE-4.4.2-64Bit/_PKDS_TSTS06_811_X47_V1_0/Libraries/XMCLib/inc\xmc_gpio.h ****  * The driver is divided into Input and Output mode.
  78:C:/Workspaces/DAVE-4.4.2-64Bit/_PKDS_TSTS06_811_X47_V1_0/Libraries/XMCLib/inc\xmc_gpio.h ****  *
  79:C:/Workspaces/DAVE-4.4.2-64Bit/_PKDS_TSTS06_811_X47_V1_0/Libraries/XMCLib/inc\xmc_gpio.h ****  * Input mode features:
  80:C:/Workspaces/DAVE-4.4.2-64Bit/_PKDS_TSTS06_811_X47_V1_0/Libraries/XMCLib/inc\xmc_gpio.h ****  * -# Configuration structure XMC_GPIO_CONFIG_t and initialization function XMC_GPIO_Init()
  81:C:/Workspaces/DAVE-4.4.2-64Bit/_PKDS_TSTS06_811_X47_V1_0/Libraries/XMCLib/inc\xmc_gpio.h ****  * -# Allows the selection of weak pull-up or pull-down device. Configuration structure XMC_GPIO_MO
  82:C:/Workspaces/DAVE-4.4.2-64Bit/_PKDS_TSTS06_811_X47_V1_0/Libraries/XMCLib/inc\xmc_gpio.h ****  * \if XMC1
  83:C:/Workspaces/DAVE-4.4.2-64Bit/_PKDS_TSTS06_811_X47_V1_0/Libraries/XMCLib/inc\xmc_gpio.h ****  * -# Allows the selection of input hysteresis. XMC_GPIO_SetInputHysteresis()
  84:C:/Workspaces/DAVE-4.4.2-64Bit/_PKDS_TSTS06_811_X47_V1_0/Libraries/XMCLib/inc\xmc_gpio.h ****  * \endif
  85:C:/Workspaces/DAVE-4.4.2-64Bit/_PKDS_TSTS06_811_X47_V1_0/Libraries/XMCLib/inc\xmc_gpio.h ****  *
  86:C:/Workspaces/DAVE-4.4.2-64Bit/_PKDS_TSTS06_811_X47_V1_0/Libraries/XMCLib/inc\xmc_gpio.h ****  *
  87:C:/Workspaces/DAVE-4.4.2-64Bit/_PKDS_TSTS06_811_X47_V1_0/Libraries/XMCLib/inc\xmc_gpio.h ****  * Output mode features:
  88:C:/Workspaces/DAVE-4.4.2-64Bit/_PKDS_TSTS06_811_X47_V1_0/Libraries/XMCLib/inc\xmc_gpio.h ****  * -# Allows the selection of push pull/open drain and Alternate output. Configuration structure XM
  89:C:/Workspaces/DAVE-4.4.2-64Bit/_PKDS_TSTS06_811_X47_V1_0/Libraries/XMCLib/inc\xmc_gpio.h ****  * \if XMC4
  90:C:/Workspaces/DAVE-4.4.2-64Bit/_PKDS_TSTS06_811_X47_V1_0/Libraries/XMCLib/inc\xmc_gpio.h ****  * -# Allows the selection of pad driver strength. Configuration structure XMC_GPIO_OUTPUT_STRENGTH
  91:C:/Workspaces/DAVE-4.4.2-64Bit/_PKDS_TSTS06_811_X47_V1_0/Libraries/XMCLib/inc\xmc_gpio.h ****  * \endif
  92:C:/Workspaces/DAVE-4.4.2-64Bit/_PKDS_TSTS06_811_X47_V1_0/Libraries/XMCLib/inc\xmc_gpio.h ****  *
  93:C:/Workspaces/DAVE-4.4.2-64Bit/_PKDS_TSTS06_811_X47_V1_0/Libraries/XMCLib/inc\xmc_gpio.h ****  * -# Allows the selection of initial output level. Configuration structure XMC_GPIO_OUTPUT_LEVEL_t
  94:C:/Workspaces/DAVE-4.4.2-64Bit/_PKDS_TSTS06_811_X47_V1_0/Libraries/XMCLib/inc\xmc_gpio.h ****  *
  95:C:/Workspaces/DAVE-4.4.2-64Bit/_PKDS_TSTS06_811_X47_V1_0/Libraries/XMCLib/inc\xmc_gpio.h ****  *@{
  96:C:/Workspaces/DAVE-4.4.2-64Bit/_PKDS_TSTS06_811_X47_V1_0/Libraries/XMCLib/inc\xmc_gpio.h ****  */
  97:C:/Workspaces/DAVE-4.4.2-64Bit/_PKDS_TSTS06_811_X47_V1_0/Libraries/XMCLib/inc\xmc_gpio.h **** 
  98:C:/Workspaces/DAVE-4.4.2-64Bit/_PKDS_TSTS06_811_X47_V1_0/Libraries/XMCLib/inc\xmc_gpio.h **** /**************************************************************************************************
  99:C:/Workspaces/DAVE-4.4.2-64Bit/_PKDS_TSTS06_811_X47_V1_0/Libraries/XMCLib/inc\xmc_gpio.h ****  * MACROS
 100:C:/Workspaces/DAVE-4.4.2-64Bit/_PKDS_TSTS06_811_X47_V1_0/Libraries/XMCLib/inc\xmc_gpio.h ****  **************************************************************************************************
 101:C:/Workspaces/DAVE-4.4.2-64Bit/_PKDS_TSTS06_811_X47_V1_0/Libraries/XMCLib/inc\xmc_gpio.h **** 
 102:C:/Workspaces/DAVE-4.4.2-64Bit/_PKDS_TSTS06_811_X47_V1_0/Libraries/XMCLib/inc\xmc_gpio.h **** #define PORT_IOCR_PC_Pos PORT0_IOCR0_PC0_Pos
 103:C:/Workspaces/DAVE-4.4.2-64Bit/_PKDS_TSTS06_811_X47_V1_0/Libraries/XMCLib/inc\xmc_gpio.h **** #define PORT_IOCR_PC_Msk PORT0_IOCR0_PC0_Msk
 104:C:/Workspaces/DAVE-4.4.2-64Bit/_PKDS_TSTS06_811_X47_V1_0/Libraries/XMCLib/inc\xmc_gpio.h **** 
 105:C:/Workspaces/DAVE-4.4.2-64Bit/_PKDS_TSTS06_811_X47_V1_0/Libraries/XMCLib/inc\xmc_gpio.h **** #define PORT_IOCR_PC_Size 				(8U)
 106:C:/Workspaces/DAVE-4.4.2-64Bit/_PKDS_TSTS06_811_X47_V1_0/Libraries/XMCLib/inc\xmc_gpio.h **** 
 107:C:/Workspaces/DAVE-4.4.2-64Bit/_PKDS_TSTS06_811_X47_V1_0/Libraries/XMCLib/inc\xmc_gpio.h **** 
 108:C:/Workspaces/DAVE-4.4.2-64Bit/_PKDS_TSTS06_811_X47_V1_0/Libraries/XMCLib/inc\xmc_gpio.h **** #define XMC_GPIO_CHECK_OUTPUT_LEVEL(level) ((level == XMC_GPIO_OUTPUT_LEVEL_LOW) || \
 109:C:/Workspaces/DAVE-4.4.2-64Bit/_PKDS_TSTS06_811_X47_V1_0/Libraries/XMCLib/inc\xmc_gpio.h ****                                             (level == XMC_GPIO_OUTPUT_LEVEL_HIGH))
 110:C:/Workspaces/DAVE-4.4.2-64Bit/_PKDS_TSTS06_811_X47_V1_0/Libraries/XMCLib/inc\xmc_gpio.h **** 
 111:C:/Workspaces/DAVE-4.4.2-64Bit/_PKDS_TSTS06_811_X47_V1_0/Libraries/XMCLib/inc\xmc_gpio.h **** #define XMC_GPIO_CHECK_HWCTRL(hwctrl) ((hwctrl == XMC_GPIO_HWCTRL_DISABLED) || \
 112:C:/Workspaces/DAVE-4.4.2-64Bit/_PKDS_TSTS06_811_X47_V1_0/Libraries/XMCLib/inc\xmc_gpio.h ****                                        (hwctrl == XMC_GPIO_HWCTRL_PERIPHERAL1) || \
 113:C:/Workspaces/DAVE-4.4.2-64Bit/_PKDS_TSTS06_811_X47_V1_0/Libraries/XMCLib/inc\xmc_gpio.h ****                                        (hwctrl == XMC_GPIO_HWCTRL_PERIPHERAL2))
 114:C:/Workspaces/DAVE-4.4.2-64Bit/_PKDS_TSTS06_811_X47_V1_0/Libraries/XMCLib/inc\xmc_gpio.h **** 
 115:C:/Workspaces/DAVE-4.4.2-64Bit/_PKDS_TSTS06_811_X47_V1_0/Libraries/XMCLib/inc\xmc_gpio.h **** /**************************************************************************************************
 116:C:/Workspaces/DAVE-4.4.2-64Bit/_PKDS_TSTS06_811_X47_V1_0/Libraries/XMCLib/inc\xmc_gpio.h ****  * ENUMS
 117:C:/Workspaces/DAVE-4.4.2-64Bit/_PKDS_TSTS06_811_X47_V1_0/Libraries/XMCLib/inc\xmc_gpio.h ****  **************************************************************************************************
 118:C:/Workspaces/DAVE-4.4.2-64Bit/_PKDS_TSTS06_811_X47_V1_0/Libraries/XMCLib/inc\xmc_gpio.h **** 
 119:C:/Workspaces/DAVE-4.4.2-64Bit/_PKDS_TSTS06_811_X47_V1_0/Libraries/XMCLib/inc\xmc_gpio.h **** 
 120:C:/Workspaces/DAVE-4.4.2-64Bit/_PKDS_TSTS06_811_X47_V1_0/Libraries/XMCLib/inc\xmc_gpio.h **** /**
 121:C:/Workspaces/DAVE-4.4.2-64Bit/_PKDS_TSTS06_811_X47_V1_0/Libraries/XMCLib/inc\xmc_gpio.h ****  * Defines output level of a pin. Use type \a XMC_GPIO_OUTPUT_LEVEL_t for this enum.
 122:C:/Workspaces/DAVE-4.4.2-64Bit/_PKDS_TSTS06_811_X47_V1_0/Libraries/XMCLib/inc\xmc_gpio.h ****  */
 123:C:/Workspaces/DAVE-4.4.2-64Bit/_PKDS_TSTS06_811_X47_V1_0/Libraries/XMCLib/inc\xmc_gpio.h **** typedef enum XMC_GPIO_OUTPUT_LEVEL
 124:C:/Workspaces/DAVE-4.4.2-64Bit/_PKDS_TSTS06_811_X47_V1_0/Libraries/XMCLib/inc\xmc_gpio.h **** {
 125:C:/Workspaces/DAVE-4.4.2-64Bit/_PKDS_TSTS06_811_X47_V1_0/Libraries/XMCLib/inc\xmc_gpio.h ****   XMC_GPIO_OUTPUT_LEVEL_LOW  = 0x10000U, /**<  Reset bit */
 126:C:/Workspaces/DAVE-4.4.2-64Bit/_PKDS_TSTS06_811_X47_V1_0/Libraries/XMCLib/inc\xmc_gpio.h ****   XMC_GPIO_OUTPUT_LEVEL_HIGH = 0x1U, 	/**< Set bit  */
 127:C:/Workspaces/DAVE-4.4.2-64Bit/_PKDS_TSTS06_811_X47_V1_0/Libraries/XMCLib/inc\xmc_gpio.h **** } XMC_GPIO_OUTPUT_LEVEL_t;
 128:C:/Workspaces/DAVE-4.4.2-64Bit/_PKDS_TSTS06_811_X47_V1_0/Libraries/XMCLib/inc\xmc_gpio.h **** 
 129:C:/Workspaces/DAVE-4.4.2-64Bit/_PKDS_TSTS06_811_X47_V1_0/Libraries/XMCLib/inc\xmc_gpio.h **** /**
 130:C:/Workspaces/DAVE-4.4.2-64Bit/_PKDS_TSTS06_811_X47_V1_0/Libraries/XMCLib/inc\xmc_gpio.h ****  * Defines direct hardware control characteristics of the pin . Use type \a XMC_GPIO_HWCTRL_t for t
 131:C:/Workspaces/DAVE-4.4.2-64Bit/_PKDS_TSTS06_811_X47_V1_0/Libraries/XMCLib/inc\xmc_gpio.h ****  */
 132:C:/Workspaces/DAVE-4.4.2-64Bit/_PKDS_TSTS06_811_X47_V1_0/Libraries/XMCLib/inc\xmc_gpio.h **** typedef enum XMC_GPIO_HWCTRL
 133:C:/Workspaces/DAVE-4.4.2-64Bit/_PKDS_TSTS06_811_X47_V1_0/Libraries/XMCLib/inc\xmc_gpio.h **** {
 134:C:/Workspaces/DAVE-4.4.2-64Bit/_PKDS_TSTS06_811_X47_V1_0/Libraries/XMCLib/inc\xmc_gpio.h ****   XMC_GPIO_HWCTRL_DISABLED     = 0x0U, /**<  Software control only */
 135:C:/Workspaces/DAVE-4.4.2-64Bit/_PKDS_TSTS06_811_X47_V1_0/Libraries/XMCLib/inc\xmc_gpio.h ****   XMC_GPIO_HWCTRL_PERIPHERAL1  = 0x1U, /**<  HWI0/HWO0 control path can override the software confi
 136:C:/Workspaces/DAVE-4.4.2-64Bit/_PKDS_TSTS06_811_X47_V1_0/Libraries/XMCLib/inc\xmc_gpio.h ****   XMC_GPIO_HWCTRL_PERIPHERAL2  = 0x2U  /**<  HWI1/HWO1 control path can override the software confi
 137:C:/Workspaces/DAVE-4.4.2-64Bit/_PKDS_TSTS06_811_X47_V1_0/Libraries/XMCLib/inc\xmc_gpio.h **** } XMC_GPIO_HWCTRL_t;
 138:C:/Workspaces/DAVE-4.4.2-64Bit/_PKDS_TSTS06_811_X47_V1_0/Libraries/XMCLib/inc\xmc_gpio.h **** 
 139:C:/Workspaces/DAVE-4.4.2-64Bit/_PKDS_TSTS06_811_X47_V1_0/Libraries/XMCLib/inc\xmc_gpio.h **** /**************************************************************************************************
 140:C:/Workspaces/DAVE-4.4.2-64Bit/_PKDS_TSTS06_811_X47_V1_0/Libraries/XMCLib/inc\xmc_gpio.h ****  * DEVICE FAMILY EXTENSIONS
 141:C:/Workspaces/DAVE-4.4.2-64Bit/_PKDS_TSTS06_811_X47_V1_0/Libraries/XMCLib/inc\xmc_gpio.h ****  **************************************************************************************************
 142:C:/Workspaces/DAVE-4.4.2-64Bit/_PKDS_TSTS06_811_X47_V1_0/Libraries/XMCLib/inc\xmc_gpio.h **** 
 143:C:/Workspaces/DAVE-4.4.2-64Bit/_PKDS_TSTS06_811_X47_V1_0/Libraries/XMCLib/inc\xmc_gpio.h **** #if UC_FAMILY == XMC1
 144:C:/Workspaces/DAVE-4.4.2-64Bit/_PKDS_TSTS06_811_X47_V1_0/Libraries/XMCLib/inc\xmc_gpio.h **** #include "xmc1_gpio.h"
 145:C:/Workspaces/DAVE-4.4.2-64Bit/_PKDS_TSTS06_811_X47_V1_0/Libraries/XMCLib/inc\xmc_gpio.h **** #elif UC_FAMILY == XMC4
 146:C:/Workspaces/DAVE-4.4.2-64Bit/_PKDS_TSTS06_811_X47_V1_0/Libraries/XMCLib/inc\xmc_gpio.h **** #include "xmc4_gpio.h"
 147:C:/Workspaces/DAVE-4.4.2-64Bit/_PKDS_TSTS06_811_X47_V1_0/Libraries/XMCLib/inc\xmc_gpio.h **** #else
 148:C:/Workspaces/DAVE-4.4.2-64Bit/_PKDS_TSTS06_811_X47_V1_0/Libraries/XMCLib/inc\xmc_gpio.h **** #error "xmc_gpio.h: family device not supported"
 149:C:/Workspaces/DAVE-4.4.2-64Bit/_PKDS_TSTS06_811_X47_V1_0/Libraries/XMCLib/inc\xmc_gpio.h **** #endif
 150:C:/Workspaces/DAVE-4.4.2-64Bit/_PKDS_TSTS06_811_X47_V1_0/Libraries/XMCLib/inc\xmc_gpio.h **** 
 151:C:/Workspaces/DAVE-4.4.2-64Bit/_PKDS_TSTS06_811_X47_V1_0/Libraries/XMCLib/inc\xmc_gpio.h **** /**************************************************************************************************
 152:C:/Workspaces/DAVE-4.4.2-64Bit/_PKDS_TSTS06_811_X47_V1_0/Libraries/XMCLib/inc\xmc_gpio.h ****  * API PROTOTYPES
 153:C:/Workspaces/DAVE-4.4.2-64Bit/_PKDS_TSTS06_811_X47_V1_0/Libraries/XMCLib/inc\xmc_gpio.h ****  **************************************************************************************************
 154:C:/Workspaces/DAVE-4.4.2-64Bit/_PKDS_TSTS06_811_X47_V1_0/Libraries/XMCLib/inc\xmc_gpio.h **** 
 155:C:/Workspaces/DAVE-4.4.2-64Bit/_PKDS_TSTS06_811_X47_V1_0/Libraries/XMCLib/inc\xmc_gpio.h **** #ifdef __cplusplus
 156:C:/Workspaces/DAVE-4.4.2-64Bit/_PKDS_TSTS06_811_X47_V1_0/Libraries/XMCLib/inc\xmc_gpio.h **** extern "C" {
 157:C:/Workspaces/DAVE-4.4.2-64Bit/_PKDS_TSTS06_811_X47_V1_0/Libraries/XMCLib/inc\xmc_gpio.h **** #endif
 158:C:/Workspaces/DAVE-4.4.2-64Bit/_PKDS_TSTS06_811_X47_V1_0/Libraries/XMCLib/inc\xmc_gpio.h **** 
 159:C:/Workspaces/DAVE-4.4.2-64Bit/_PKDS_TSTS06_811_X47_V1_0/Libraries/XMCLib/inc\xmc_gpio.h **** 
 160:C:/Workspaces/DAVE-4.4.2-64Bit/_PKDS_TSTS06_811_X47_V1_0/Libraries/XMCLib/inc\xmc_gpio.h **** /**
 161:C:/Workspaces/DAVE-4.4.2-64Bit/_PKDS_TSTS06_811_X47_V1_0/Libraries/XMCLib/inc\xmc_gpio.h ****  * @param  port	  Constant pointer pointing to GPIO port, to access port registers like Pn_OUT,Pn_O
 162:C:/Workspaces/DAVE-4.4.2-64Bit/_PKDS_TSTS06_811_X47_V1_0/Libraries/XMCLib/inc\xmc_gpio.h ****  * @param  pin	  Port pin number.
 163:C:/Workspaces/DAVE-4.4.2-64Bit/_PKDS_TSTS06_811_X47_V1_0/Libraries/XMCLib/inc\xmc_gpio.h ****  * @param  config GPIO configuration data structure. Refer data structure @ref XMC_GPIO_CONFIG_t fo
 164:C:/Workspaces/DAVE-4.4.2-64Bit/_PKDS_TSTS06_811_X47_V1_0/Libraries/XMCLib/inc\xmc_gpio.h ****  *
 165:C:/Workspaces/DAVE-4.4.2-64Bit/_PKDS_TSTS06_811_X47_V1_0/Libraries/XMCLib/inc\xmc_gpio.h ****  * @return None
 166:C:/Workspaces/DAVE-4.4.2-64Bit/_PKDS_TSTS06_811_X47_V1_0/Libraries/XMCLib/inc\xmc_gpio.h ****  *
 167:C:/Workspaces/DAVE-4.4.2-64Bit/_PKDS_TSTS06_811_X47_V1_0/Libraries/XMCLib/inc\xmc_gpio.h ****  * \par<b>Description:</b><br>
 168:C:/Workspaces/DAVE-4.4.2-64Bit/_PKDS_TSTS06_811_X47_V1_0/Libraries/XMCLib/inc\xmc_gpio.h ****  * \if XMC1
 169:C:/Workspaces/DAVE-4.4.2-64Bit/_PKDS_TSTS06_811_X47_V1_0/Libraries/XMCLib/inc\xmc_gpio.h ****  * Initializes input / output mode settings like, pull up / pull down devices,hysteresis, push pull
 170:C:/Workspaces/DAVE-4.4.2-64Bit/_PKDS_TSTS06_811_X47_V1_0/Libraries/XMCLib/inc\xmc_gpio.h ****  * Also configures alternate function outputs and clears hardware port control for a selected \a po
 171:C:/Workspaces/DAVE-4.4.2-64Bit/_PKDS_TSTS06_811_X47_V1_0/Libraries/XMCLib/inc\xmc_gpio.h ****  * \a config provides selected I/O settings. It configures hardware registers Pn_IOCR,Pn_OUT, Pn_OM
 172:C:/Workspaces/DAVE-4.4.2-64Bit/_PKDS_TSTS06_811_X47_V1_0/Libraries/XMCLib/inc\xmc_gpio.h ****  * \endif
 173:C:/Workspaces/DAVE-4.4.2-64Bit/_PKDS_TSTS06_811_X47_V1_0/Libraries/XMCLib/inc\xmc_gpio.h ****  * \if XMC4
 174:C:/Workspaces/DAVE-4.4.2-64Bit/_PKDS_TSTS06_811_X47_V1_0/Libraries/XMCLib/inc\xmc_gpio.h ****  * Initializes input / output mode settings like, pull up / pull down devices,push pull /open drain
 175:C:/Workspaces/DAVE-4.4.2-64Bit/_PKDS_TSTS06_811_X47_V1_0/Libraries/XMCLib/inc\xmc_gpio.h ****  * Also configures alternate function outputs and clears hardware port control for selected \a port
 176:C:/Workspaces/DAVE-4.4.2-64Bit/_PKDS_TSTS06_811_X47_V1_0/Libraries/XMCLib/inc\xmc_gpio.h ****  * It configures hardware registers Pn_IOCR,Pn_OUT,Pn_OMR,Pn_PDISC and Pn_PDR.\n
 177:C:/Workspaces/DAVE-4.4.2-64Bit/_PKDS_TSTS06_811_X47_V1_0/Libraries/XMCLib/inc\xmc_gpio.h ****  * \endif
 178:C:/Workspaces/DAVE-4.4.2-64Bit/_PKDS_TSTS06_811_X47_V1_0/Libraries/XMCLib/inc\xmc_gpio.h ****  *
 179:C:/Workspaces/DAVE-4.4.2-64Bit/_PKDS_TSTS06_811_X47_V1_0/Libraries/XMCLib/inc\xmc_gpio.h ****  * \par<b>Related APIs:</b><BR>
 180:C:/Workspaces/DAVE-4.4.2-64Bit/_PKDS_TSTS06_811_X47_V1_0/Libraries/XMCLib/inc\xmc_gpio.h ****  *  None
 181:C:/Workspaces/DAVE-4.4.2-64Bit/_PKDS_TSTS06_811_X47_V1_0/Libraries/XMCLib/inc\xmc_gpio.h ****  *
 182:C:/Workspaces/DAVE-4.4.2-64Bit/_PKDS_TSTS06_811_X47_V1_0/Libraries/XMCLib/inc\xmc_gpio.h ****  * \par<b>Note:</b><br>
 183:C:/Workspaces/DAVE-4.4.2-64Bit/_PKDS_TSTS06_811_X47_V1_0/Libraries/XMCLib/inc\xmc_gpio.h ****  * This API is called in definition of DAVE_init by code generation and therefore should not be exp
 184:C:/Workspaces/DAVE-4.4.2-64Bit/_PKDS_TSTS06_811_X47_V1_0/Libraries/XMCLib/inc\xmc_gpio.h ****  * for the normal operation. Use other APIs only after DAVE_init is called successfully (returns DA
 185:C:/Workspaces/DAVE-4.4.2-64Bit/_PKDS_TSTS06_811_X47_V1_0/Libraries/XMCLib/inc\xmc_gpio.h ****  *
 186:C:/Workspaces/DAVE-4.4.2-64Bit/_PKDS_TSTS06_811_X47_V1_0/Libraries/XMCLib/inc\xmc_gpio.h ****  *
 187:C:/Workspaces/DAVE-4.4.2-64Bit/_PKDS_TSTS06_811_X47_V1_0/Libraries/XMCLib/inc\xmc_gpio.h ****  */
 188:C:/Workspaces/DAVE-4.4.2-64Bit/_PKDS_TSTS06_811_X47_V1_0/Libraries/XMCLib/inc\xmc_gpio.h **** 
 189:C:/Workspaces/DAVE-4.4.2-64Bit/_PKDS_TSTS06_811_X47_V1_0/Libraries/XMCLib/inc\xmc_gpio.h **** 
 190:C:/Workspaces/DAVE-4.4.2-64Bit/_PKDS_TSTS06_811_X47_V1_0/Libraries/XMCLib/inc\xmc_gpio.h **** void XMC_GPIO_Init(XMC_GPIO_PORT_t *const port, const uint8_t pin, const XMC_GPIO_CONFIG_t *const c
 191:C:/Workspaces/DAVE-4.4.2-64Bit/_PKDS_TSTS06_811_X47_V1_0/Libraries/XMCLib/inc\xmc_gpio.h **** 
 192:C:/Workspaces/DAVE-4.4.2-64Bit/_PKDS_TSTS06_811_X47_V1_0/Libraries/XMCLib/inc\xmc_gpio.h **** /**
 193:C:/Workspaces/DAVE-4.4.2-64Bit/_PKDS_TSTS06_811_X47_V1_0/Libraries/XMCLib/inc\xmc_gpio.h ****  *
 194:C:/Workspaces/DAVE-4.4.2-64Bit/_PKDS_TSTS06_811_X47_V1_0/Libraries/XMCLib/inc\xmc_gpio.h ****  * @param  port	Constant pointer pointing to GPIO port, to access hardware register Pn_IOCR.
 195:C:/Workspaces/DAVE-4.4.2-64Bit/_PKDS_TSTS06_811_X47_V1_0/Libraries/XMCLib/inc\xmc_gpio.h ****  * @param  pin	Port pin number.
 196:C:/Workspaces/DAVE-4.4.2-64Bit/_PKDS_TSTS06_811_X47_V1_0/Libraries/XMCLib/inc\xmc_gpio.h ****  * @param  mode input / output functionality selection. Refer @ref XMC_GPIO_MODE_t for valid values
 197:C:/Workspaces/DAVE-4.4.2-64Bit/_PKDS_TSTS06_811_X47_V1_0/Libraries/XMCLib/inc\xmc_gpio.h ****  *
 198:C:/Workspaces/DAVE-4.4.2-64Bit/_PKDS_TSTS06_811_X47_V1_0/Libraries/XMCLib/inc\xmc_gpio.h ****  * @return None
 199:C:/Workspaces/DAVE-4.4.2-64Bit/_PKDS_TSTS06_811_X47_V1_0/Libraries/XMCLib/inc\xmc_gpio.h ****  *
 200:C:/Workspaces/DAVE-4.4.2-64Bit/_PKDS_TSTS06_811_X47_V1_0/Libraries/XMCLib/inc\xmc_gpio.h ****  * \par<b>Description:</b><br>
 201:C:/Workspaces/DAVE-4.4.2-64Bit/_PKDS_TSTS06_811_X47_V1_0/Libraries/XMCLib/inc\xmc_gpio.h ****  * Sets digital input and output driver functionality and characteristics of a GPIO port pin. It co
 202:C:/Workspaces/DAVE-4.4.2-64Bit/_PKDS_TSTS06_811_X47_V1_0/Libraries/XMCLib/inc\xmc_gpio.h ****  * registers Pn_IOCR. \a mode is initially configured during initialization in XMC_GPIO_Init(). Cal
 203:C:/Workspaces/DAVE-4.4.2-64Bit/_PKDS_TSTS06_811_X47_V1_0/Libraries/XMCLib/inc\xmc_gpio.h ****  * the port direction functionality as needed later in the program.
 204:C:/Workspaces/DAVE-4.4.2-64Bit/_PKDS_TSTS06_811_X47_V1_0/Libraries/XMCLib/inc\xmc_gpio.h ****  *
 205:C:/Workspaces/DAVE-4.4.2-64Bit/_PKDS_TSTS06_811_X47_V1_0/Libraries/XMCLib/inc\xmc_gpio.h ****  * \par<b>Related APIs:</b><BR>
 206:C:/Workspaces/DAVE-4.4.2-64Bit/_PKDS_TSTS06_811_X47_V1_0/Libraries/XMCLib/inc\xmc_gpio.h ****  *  None
 207:C:/Workspaces/DAVE-4.4.2-64Bit/_PKDS_TSTS06_811_X47_V1_0/Libraries/XMCLib/inc\xmc_gpio.h ****  *
 208:C:/Workspaces/DAVE-4.4.2-64Bit/_PKDS_TSTS06_811_X47_V1_0/Libraries/XMCLib/inc\xmc_gpio.h ****  */
 209:C:/Workspaces/DAVE-4.4.2-64Bit/_PKDS_TSTS06_811_X47_V1_0/Libraries/XMCLib/inc\xmc_gpio.h **** 
 210:C:/Workspaces/DAVE-4.4.2-64Bit/_PKDS_TSTS06_811_X47_V1_0/Libraries/XMCLib/inc\xmc_gpio.h **** void XMC_GPIO_SetMode(XMC_GPIO_PORT_t *const port, const uint8_t pin, const XMC_GPIO_MODE_t mode);
 211:C:/Workspaces/DAVE-4.4.2-64Bit/_PKDS_TSTS06_811_X47_V1_0/Libraries/XMCLib/inc\xmc_gpio.h **** 
 212:C:/Workspaces/DAVE-4.4.2-64Bit/_PKDS_TSTS06_811_X47_V1_0/Libraries/XMCLib/inc\xmc_gpio.h **** 
 213:C:/Workspaces/DAVE-4.4.2-64Bit/_PKDS_TSTS06_811_X47_V1_0/Libraries/XMCLib/inc\xmc_gpio.h **** /**
 214:C:/Workspaces/DAVE-4.4.2-64Bit/_PKDS_TSTS06_811_X47_V1_0/Libraries/XMCLib/inc\xmc_gpio.h ****  *
 215:C:/Workspaces/DAVE-4.4.2-64Bit/_PKDS_TSTS06_811_X47_V1_0/Libraries/XMCLib/inc\xmc_gpio.h ****  * @param  port	 Constant pointer pointing to GPIO port, to access hardware register Pn_OMR.
 216:C:/Workspaces/DAVE-4.4.2-64Bit/_PKDS_TSTS06_811_X47_V1_0/Libraries/XMCLib/inc\xmc_gpio.h ****  * @param  pin	 Port pin number.
 217:C:/Workspaces/DAVE-4.4.2-64Bit/_PKDS_TSTS06_811_X47_V1_0/Libraries/XMCLib/inc\xmc_gpio.h ****  * @param  level output level selection. Refer @ref XMC_GPIO_OUTPUT_LEVEL_t for valid values.
 218:C:/Workspaces/DAVE-4.4.2-64Bit/_PKDS_TSTS06_811_X47_V1_0/Libraries/XMCLib/inc\xmc_gpio.h ****  *
 219:C:/Workspaces/DAVE-4.4.2-64Bit/_PKDS_TSTS06_811_X47_V1_0/Libraries/XMCLib/inc\xmc_gpio.h ****  * @return None
 220:C:/Workspaces/DAVE-4.4.2-64Bit/_PKDS_TSTS06_811_X47_V1_0/Libraries/XMCLib/inc\xmc_gpio.h ****  *
 221:C:/Workspaces/DAVE-4.4.2-64Bit/_PKDS_TSTS06_811_X47_V1_0/Libraries/XMCLib/inc\xmc_gpio.h ****  * \par<b>Description:</b><br>
 222:C:/Workspaces/DAVE-4.4.2-64Bit/_PKDS_TSTS06_811_X47_V1_0/Libraries/XMCLib/inc\xmc_gpio.h ****  * Set port pin output level to high or low.It configures hardware registers Pn_OMR.\a level is ini
 223:C:/Workspaces/DAVE-4.4.2-64Bit/_PKDS_TSTS06_811_X47_V1_0/Libraries/XMCLib/inc\xmc_gpio.h ****  * configured during initialization in XMC_GPIO_Init(). Call this API to alter output level as need
 224:C:/Workspaces/DAVE-4.4.2-64Bit/_PKDS_TSTS06_811_X47_V1_0/Libraries/XMCLib/inc\xmc_gpio.h ****  *
 225:C:/Workspaces/DAVE-4.4.2-64Bit/_PKDS_TSTS06_811_X47_V1_0/Libraries/XMCLib/inc\xmc_gpio.h ****  * \par<b>Related APIs:</b><BR>
 226:C:/Workspaces/DAVE-4.4.2-64Bit/_PKDS_TSTS06_811_X47_V1_0/Libraries/XMCLib/inc\xmc_gpio.h ****  *  XMC_GPIO_SetOutputHigh(), XMC_GPIO_SetOutputLow().
 227:C:/Workspaces/DAVE-4.4.2-64Bit/_PKDS_TSTS06_811_X47_V1_0/Libraries/XMCLib/inc\xmc_gpio.h ****  *
 228:C:/Workspaces/DAVE-4.4.2-64Bit/_PKDS_TSTS06_811_X47_V1_0/Libraries/XMCLib/inc\xmc_gpio.h ****  * \par<b>Note:</b><br>
 229:C:/Workspaces/DAVE-4.4.2-64Bit/_PKDS_TSTS06_811_X47_V1_0/Libraries/XMCLib/inc\xmc_gpio.h ****  * Prior to this api, user has to configure port pin to output mode using XMC_GPIO_SetMode().
 230:C:/Workspaces/DAVE-4.4.2-64Bit/_PKDS_TSTS06_811_X47_V1_0/Libraries/XMCLib/inc\xmc_gpio.h ****  *
 231:C:/Workspaces/DAVE-4.4.2-64Bit/_PKDS_TSTS06_811_X47_V1_0/Libraries/XMCLib/inc\xmc_gpio.h ****  */
 232:C:/Workspaces/DAVE-4.4.2-64Bit/_PKDS_TSTS06_811_X47_V1_0/Libraries/XMCLib/inc\xmc_gpio.h **** 
 233:C:/Workspaces/DAVE-4.4.2-64Bit/_PKDS_TSTS06_811_X47_V1_0/Libraries/XMCLib/inc\xmc_gpio.h **** 
 234:C:/Workspaces/DAVE-4.4.2-64Bit/_PKDS_TSTS06_811_X47_V1_0/Libraries/XMCLib/inc\xmc_gpio.h **** __STATIC_INLINE void XMC_GPIO_SetOutputLevel(XMC_GPIO_PORT_t *const port, const uint8_t pin, const 
 235:C:/Workspaces/DAVE-4.4.2-64Bit/_PKDS_TSTS06_811_X47_V1_0/Libraries/XMCLib/inc\xmc_gpio.h **** {
  27              	 .loc 1 235 1
  28              	 .cfi_startproc
  29              	 
  30              	 
  31              	 
  32 0000 80B4     	 push {r7}
  33              	.LCFI0:
  34              	 .cfi_def_cfa_offset 4
  35              	 .cfi_offset 7,-4
  36 0002 85B0     	 sub sp,sp,#20
  37              	.LCFI1:
  38              	 .cfi_def_cfa_offset 24
  39 0004 00AF     	 add r7,sp,#0
  40              	.LCFI2:
  41              	 .cfi_def_cfa_register 7
  42 0006 F860     	 str r0,[r7,#12]
  43 0008 0B46     	 mov r3,r1
  44 000a 7A60     	 str r2,[r7,#4]
  45 000c FB72     	 strb r3,[r7,#11]
 236:C:/Workspaces/DAVE-4.4.2-64Bit/_PKDS_TSTS06_811_X47_V1_0/Libraries/XMCLib/inc\xmc_gpio.h ****   XMC_ASSERT("XMC_GPIO_SetOutputLevel: Invalid port", XMC_GPIO_CHECK_OUTPUT_PORT(port));
 237:C:/Workspaces/DAVE-4.4.2-64Bit/_PKDS_TSTS06_811_X47_V1_0/Libraries/XMCLib/inc\xmc_gpio.h ****   XMC_ASSERT("XMC_GPIO_SetOutputLevel: Invalid output level", XMC_GPIO_CHECK_OUTPUT_LEVEL(level));
 238:C:/Workspaces/DAVE-4.4.2-64Bit/_PKDS_TSTS06_811_X47_V1_0/Libraries/XMCLib/inc\xmc_gpio.h **** 
 239:C:/Workspaces/DAVE-4.4.2-64Bit/_PKDS_TSTS06_811_X47_V1_0/Libraries/XMCLib/inc\xmc_gpio.h ****   port->OMR = (uint32_t)level << pin;
  46              	 .loc 1 239 31
  47 000e FB7A     	 ldrb r3,[r7,#11]
  48 0010 7A68     	 ldr r2,[r7,#4]
  49 0012 9A40     	 lsls r2,r2,r3
  50              	 .loc 1 239 13
  51 0014 FB68     	 ldr r3,[r7,#12]
  52 0016 5A60     	 str r2,[r3,#4]
 240:C:/Workspaces/DAVE-4.4.2-64Bit/_PKDS_TSTS06_811_X47_V1_0/Libraries/XMCLib/inc\xmc_gpio.h **** }
  53              	 .loc 1 240 1
  54 0018 00BF     	 nop
  55 001a 1437     	 adds r7,r7,#20
  56              	.LCFI3:
  57              	 .cfi_def_cfa_offset 4
  58 001c BD46     	 mov sp,r7
  59              	.LCFI4:
  60              	 .cfi_def_cfa_register 13
  61              	 
  62 001e 5DF8047B 	 ldr r7,[sp],#4
  63              	.LCFI5:
  64              	 .cfi_restore 7
  65              	 .cfi_def_cfa_offset 0
  66 0022 7047     	 bx lr
  67              	 .cfi_endproc
  68              	.LFE134:
  70              	 .section .text.XMC_GPIO_ToggleOutput,"ax",%progbits
  71              	 .align 1
  72              	 .syntax unified
  73              	 .thumb
  74              	 .thumb_func
  75              	 .fpu fpv4-sp-d16
  77              	XMC_GPIO_ToggleOutput:
  78              	.LFB137:
 241:C:/Workspaces/DAVE-4.4.2-64Bit/_PKDS_TSTS06_811_X47_V1_0/Libraries/XMCLib/inc\xmc_gpio.h **** 
 242:C:/Workspaces/DAVE-4.4.2-64Bit/_PKDS_TSTS06_811_X47_V1_0/Libraries/XMCLib/inc\xmc_gpio.h **** 
 243:C:/Workspaces/DAVE-4.4.2-64Bit/_PKDS_TSTS06_811_X47_V1_0/Libraries/XMCLib/inc\xmc_gpio.h **** /**
 244:C:/Workspaces/DAVE-4.4.2-64Bit/_PKDS_TSTS06_811_X47_V1_0/Libraries/XMCLib/inc\xmc_gpio.h ****  * @param  port constant pointer pointing to GPIO port, to access hardware register Pn_OMR.
 245:C:/Workspaces/DAVE-4.4.2-64Bit/_PKDS_TSTS06_811_X47_V1_0/Libraries/XMCLib/inc\xmc_gpio.h ****  * @param  pin	Port pin number.
 246:C:/Workspaces/DAVE-4.4.2-64Bit/_PKDS_TSTS06_811_X47_V1_0/Libraries/XMCLib/inc\xmc_gpio.h ****  *
 247:C:/Workspaces/DAVE-4.4.2-64Bit/_PKDS_TSTS06_811_X47_V1_0/Libraries/XMCLib/inc\xmc_gpio.h ****  * @return None
 248:C:/Workspaces/DAVE-4.4.2-64Bit/_PKDS_TSTS06_811_X47_V1_0/Libraries/XMCLib/inc\xmc_gpio.h ****  *
 249:C:/Workspaces/DAVE-4.4.2-64Bit/_PKDS_TSTS06_811_X47_V1_0/Libraries/XMCLib/inc\xmc_gpio.h ****  * \par<b>Description:</b><br>
 250:C:/Workspaces/DAVE-4.4.2-64Bit/_PKDS_TSTS06_811_X47_V1_0/Libraries/XMCLib/inc\xmc_gpio.h ****  *  Sets port pin output to high. It configures hardware registers Pn_OMR.
 251:C:/Workspaces/DAVE-4.4.2-64Bit/_PKDS_TSTS06_811_X47_V1_0/Libraries/XMCLib/inc\xmc_gpio.h ****  *
 252:C:/Workspaces/DAVE-4.4.2-64Bit/_PKDS_TSTS06_811_X47_V1_0/Libraries/XMCLib/inc\xmc_gpio.h ****  *  \par<b>Related APIs:</b><BR>
 253:C:/Workspaces/DAVE-4.4.2-64Bit/_PKDS_TSTS06_811_X47_V1_0/Libraries/XMCLib/inc\xmc_gpio.h ****  *  XMC_GPIO_SetOutputLow()
 254:C:/Workspaces/DAVE-4.4.2-64Bit/_PKDS_TSTS06_811_X47_V1_0/Libraries/XMCLib/inc\xmc_gpio.h ****  *
 255:C:/Workspaces/DAVE-4.4.2-64Bit/_PKDS_TSTS06_811_X47_V1_0/Libraries/XMCLib/inc\xmc_gpio.h ****  * \par<b>Note:</b><br>
 256:C:/Workspaces/DAVE-4.4.2-64Bit/_PKDS_TSTS06_811_X47_V1_0/Libraries/XMCLib/inc\xmc_gpio.h ****  * Prior to this api, user has to configure port pin to output mode using XMC_GPIO_SetMode().\n
 257:C:/Workspaces/DAVE-4.4.2-64Bit/_PKDS_TSTS06_811_X47_V1_0/Libraries/XMCLib/inc\xmc_gpio.h ****  * Register Pn_OMR is virtual and does not contain any flip-flop. A read action delivers the value 
 258:C:/Workspaces/DAVE-4.4.2-64Bit/_PKDS_TSTS06_811_X47_V1_0/Libraries/XMCLib/inc\xmc_gpio.h ****  *
 259:C:/Workspaces/DAVE-4.4.2-64Bit/_PKDS_TSTS06_811_X47_V1_0/Libraries/XMCLib/inc\xmc_gpio.h ****  */
 260:C:/Workspaces/DAVE-4.4.2-64Bit/_PKDS_TSTS06_811_X47_V1_0/Libraries/XMCLib/inc\xmc_gpio.h **** 
 261:C:/Workspaces/DAVE-4.4.2-64Bit/_PKDS_TSTS06_811_X47_V1_0/Libraries/XMCLib/inc\xmc_gpio.h **** __STATIC_INLINE void XMC_GPIO_SetOutputHigh(XMC_GPIO_PORT_t *const port, const uint8_t pin)
 262:C:/Workspaces/DAVE-4.4.2-64Bit/_PKDS_TSTS06_811_X47_V1_0/Libraries/XMCLib/inc\xmc_gpio.h **** {
 263:C:/Workspaces/DAVE-4.4.2-64Bit/_PKDS_TSTS06_811_X47_V1_0/Libraries/XMCLib/inc\xmc_gpio.h ****   XMC_ASSERT("XMC_GPIO_SetOutputHigh: Invalid port", XMC_GPIO_CHECK_OUTPUT_PORT(port));
 264:C:/Workspaces/DAVE-4.4.2-64Bit/_PKDS_TSTS06_811_X47_V1_0/Libraries/XMCLib/inc\xmc_gpio.h **** 
 265:C:/Workspaces/DAVE-4.4.2-64Bit/_PKDS_TSTS06_811_X47_V1_0/Libraries/XMCLib/inc\xmc_gpio.h ****   port->OMR = (uint32_t)0x1U << pin;
 266:C:/Workspaces/DAVE-4.4.2-64Bit/_PKDS_TSTS06_811_X47_V1_0/Libraries/XMCLib/inc\xmc_gpio.h **** }
 267:C:/Workspaces/DAVE-4.4.2-64Bit/_PKDS_TSTS06_811_X47_V1_0/Libraries/XMCLib/inc\xmc_gpio.h **** 
 268:C:/Workspaces/DAVE-4.4.2-64Bit/_PKDS_TSTS06_811_X47_V1_0/Libraries/XMCLib/inc\xmc_gpio.h **** /**
 269:C:/Workspaces/DAVE-4.4.2-64Bit/_PKDS_TSTS06_811_X47_V1_0/Libraries/XMCLib/inc\xmc_gpio.h ****  *
 270:C:/Workspaces/DAVE-4.4.2-64Bit/_PKDS_TSTS06_811_X47_V1_0/Libraries/XMCLib/inc\xmc_gpio.h ****  * @param  port	constant pointer pointing to GPIO port, to access hardware register Pn_OMR.
 271:C:/Workspaces/DAVE-4.4.2-64Bit/_PKDS_TSTS06_811_X47_V1_0/Libraries/XMCLib/inc\xmc_gpio.h ****  * @param  pin	port pin number.
 272:C:/Workspaces/DAVE-4.4.2-64Bit/_PKDS_TSTS06_811_X47_V1_0/Libraries/XMCLib/inc\xmc_gpio.h ****  *
 273:C:/Workspaces/DAVE-4.4.2-64Bit/_PKDS_TSTS06_811_X47_V1_0/Libraries/XMCLib/inc\xmc_gpio.h ****  * @return  None
 274:C:/Workspaces/DAVE-4.4.2-64Bit/_PKDS_TSTS06_811_X47_V1_0/Libraries/XMCLib/inc\xmc_gpio.h ****  *
 275:C:/Workspaces/DAVE-4.4.2-64Bit/_PKDS_TSTS06_811_X47_V1_0/Libraries/XMCLib/inc\xmc_gpio.h ****  *\par<b>Description:</b><br>
 276:C:/Workspaces/DAVE-4.4.2-64Bit/_PKDS_TSTS06_811_X47_V1_0/Libraries/XMCLib/inc\xmc_gpio.h ****  * Sets port pin output to low. It configures hardware registers Pn_OMR.\n
 277:C:/Workspaces/DAVE-4.4.2-64Bit/_PKDS_TSTS06_811_X47_V1_0/Libraries/XMCLib/inc\xmc_gpio.h ****  *
 278:C:/Workspaces/DAVE-4.4.2-64Bit/_PKDS_TSTS06_811_X47_V1_0/Libraries/XMCLib/inc\xmc_gpio.h ****  * \par<b>Related APIs:</b><BR>>
 279:C:/Workspaces/DAVE-4.4.2-64Bit/_PKDS_TSTS06_811_X47_V1_0/Libraries/XMCLib/inc\xmc_gpio.h ****  * XMC_GPIO_SetOutputHigh()
 280:C:/Workspaces/DAVE-4.4.2-64Bit/_PKDS_TSTS06_811_X47_V1_0/Libraries/XMCLib/inc\xmc_gpio.h ****  *
 281:C:/Workspaces/DAVE-4.4.2-64Bit/_PKDS_TSTS06_811_X47_V1_0/Libraries/XMCLib/inc\xmc_gpio.h ****  *\par<b>Note:</b><br>
 282:C:/Workspaces/DAVE-4.4.2-64Bit/_PKDS_TSTS06_811_X47_V1_0/Libraries/XMCLib/inc\xmc_gpio.h ****  * Prior to this api, user has to configure port pin to output mode using XMC_GPIO_SetMode().
 283:C:/Workspaces/DAVE-4.4.2-64Bit/_PKDS_TSTS06_811_X47_V1_0/Libraries/XMCLib/inc\xmc_gpio.h ****  * Register Pn_OMR is virtual and does not contain any flip-flop. A read action delivers the value 
 284:C:/Workspaces/DAVE-4.4.2-64Bit/_PKDS_TSTS06_811_X47_V1_0/Libraries/XMCLib/inc\xmc_gpio.h ****  *
 285:C:/Workspaces/DAVE-4.4.2-64Bit/_PKDS_TSTS06_811_X47_V1_0/Libraries/XMCLib/inc\xmc_gpio.h ****  */
 286:C:/Workspaces/DAVE-4.4.2-64Bit/_PKDS_TSTS06_811_X47_V1_0/Libraries/XMCLib/inc\xmc_gpio.h **** 
 287:C:/Workspaces/DAVE-4.4.2-64Bit/_PKDS_TSTS06_811_X47_V1_0/Libraries/XMCLib/inc\xmc_gpio.h **** __STATIC_INLINE void XMC_GPIO_SetOutputLow(XMC_GPIO_PORT_t *const port, const uint8_t pin)
 288:C:/Workspaces/DAVE-4.4.2-64Bit/_PKDS_TSTS06_811_X47_V1_0/Libraries/XMCLib/inc\xmc_gpio.h **** {
 289:C:/Workspaces/DAVE-4.4.2-64Bit/_PKDS_TSTS06_811_X47_V1_0/Libraries/XMCLib/inc\xmc_gpio.h ****   XMC_ASSERT("XMC_GPIO_SetOutputLow: Invalid port", XMC_GPIO_CHECK_OUTPUT_PORT(port));
 290:C:/Workspaces/DAVE-4.4.2-64Bit/_PKDS_TSTS06_811_X47_V1_0/Libraries/XMCLib/inc\xmc_gpio.h **** 
 291:C:/Workspaces/DAVE-4.4.2-64Bit/_PKDS_TSTS06_811_X47_V1_0/Libraries/XMCLib/inc\xmc_gpio.h ****   port->OMR = 0x10000U << pin;
 292:C:/Workspaces/DAVE-4.4.2-64Bit/_PKDS_TSTS06_811_X47_V1_0/Libraries/XMCLib/inc\xmc_gpio.h **** }
 293:C:/Workspaces/DAVE-4.4.2-64Bit/_PKDS_TSTS06_811_X47_V1_0/Libraries/XMCLib/inc\xmc_gpio.h **** 
 294:C:/Workspaces/DAVE-4.4.2-64Bit/_PKDS_TSTS06_811_X47_V1_0/Libraries/XMCLib/inc\xmc_gpio.h **** /**
 295:C:/Workspaces/DAVE-4.4.2-64Bit/_PKDS_TSTS06_811_X47_V1_0/Libraries/XMCLib/inc\xmc_gpio.h ****  *
 296:C:/Workspaces/DAVE-4.4.2-64Bit/_PKDS_TSTS06_811_X47_V1_0/Libraries/XMCLib/inc\xmc_gpio.h ****  * @param port constant pointer pointing to GPIO port, to access hardware register Pn_OMR.
 297:C:/Workspaces/DAVE-4.4.2-64Bit/_PKDS_TSTS06_811_X47_V1_0/Libraries/XMCLib/inc\xmc_gpio.h ****  * @param pin  port pin number.
 298:C:/Workspaces/DAVE-4.4.2-64Bit/_PKDS_TSTS06_811_X47_V1_0/Libraries/XMCLib/inc\xmc_gpio.h ****  *
 299:C:/Workspaces/DAVE-4.4.2-64Bit/_PKDS_TSTS06_811_X47_V1_0/Libraries/XMCLib/inc\xmc_gpio.h ****  * @return None
 300:C:/Workspaces/DAVE-4.4.2-64Bit/_PKDS_TSTS06_811_X47_V1_0/Libraries/XMCLib/inc\xmc_gpio.h ****  *
 301:C:/Workspaces/DAVE-4.4.2-64Bit/_PKDS_TSTS06_811_X47_V1_0/Libraries/XMCLib/inc\xmc_gpio.h ****  * \par<b>Description:</b><br>
 302:C:/Workspaces/DAVE-4.4.2-64Bit/_PKDS_TSTS06_811_X47_V1_0/Libraries/XMCLib/inc\xmc_gpio.h ****  * Configures port pin output to Toggle. It configures hardware registers Pn_OMR.
 303:C:/Workspaces/DAVE-4.4.2-64Bit/_PKDS_TSTS06_811_X47_V1_0/Libraries/XMCLib/inc\xmc_gpio.h ****  *
 304:C:/Workspaces/DAVE-4.4.2-64Bit/_PKDS_TSTS06_811_X47_V1_0/Libraries/XMCLib/inc\xmc_gpio.h ****  * \par<b>Related APIs:</b><BR>
 305:C:/Workspaces/DAVE-4.4.2-64Bit/_PKDS_TSTS06_811_X47_V1_0/Libraries/XMCLib/inc\xmc_gpio.h ****  * XMC_GPIO_SetOutputHigh(), XMC_GPIO_SetOutputLow().
 306:C:/Workspaces/DAVE-4.4.2-64Bit/_PKDS_TSTS06_811_X47_V1_0/Libraries/XMCLib/inc\xmc_gpio.h ****  *
 307:C:/Workspaces/DAVE-4.4.2-64Bit/_PKDS_TSTS06_811_X47_V1_0/Libraries/XMCLib/inc\xmc_gpio.h ****  * \par<b>Note:</b><br>
 308:C:/Workspaces/DAVE-4.4.2-64Bit/_PKDS_TSTS06_811_X47_V1_0/Libraries/XMCLib/inc\xmc_gpio.h ****  * Prior to this api, user has to configure port pin to output mode using XMC_GPIO_SetMode(). Regis
 309:C:/Workspaces/DAVE-4.4.2-64Bit/_PKDS_TSTS06_811_X47_V1_0/Libraries/XMCLib/inc\xmc_gpio.h ****  * and does not contain any flip-flop. A read action delivers the value of 0.
 310:C:/Workspaces/DAVE-4.4.2-64Bit/_PKDS_TSTS06_811_X47_V1_0/Libraries/XMCLib/inc\xmc_gpio.h ****  *
 311:C:/Workspaces/DAVE-4.4.2-64Bit/_PKDS_TSTS06_811_X47_V1_0/Libraries/XMCLib/inc\xmc_gpio.h ****  */
 312:C:/Workspaces/DAVE-4.4.2-64Bit/_PKDS_TSTS06_811_X47_V1_0/Libraries/XMCLib/inc\xmc_gpio.h **** 
 313:C:/Workspaces/DAVE-4.4.2-64Bit/_PKDS_TSTS06_811_X47_V1_0/Libraries/XMCLib/inc\xmc_gpio.h **** __STATIC_INLINE void XMC_GPIO_ToggleOutput(XMC_GPIO_PORT_t *const port, const uint8_t pin)
 314:C:/Workspaces/DAVE-4.4.2-64Bit/_PKDS_TSTS06_811_X47_V1_0/Libraries/XMCLib/inc\xmc_gpio.h **** {
  79              	 .loc 1 314 1
  80              	 .cfi_startproc
  81              	 
  82              	 
  83              	 
  84 0000 80B4     	 push {r7}
  85              	.LCFI6:
  86              	 .cfi_def_cfa_offset 4
  87              	 .cfi_offset 7,-4
  88 0002 83B0     	 sub sp,sp,#12
  89              	.LCFI7:
  90              	 .cfi_def_cfa_offset 16
  91 0004 00AF     	 add r7,sp,#0
  92              	.LCFI8:
  93              	 .cfi_def_cfa_register 7
  94 0006 7860     	 str r0,[r7,#4]
  95 0008 0B46     	 mov r3,r1
  96 000a FB70     	 strb r3,[r7,#3]
 315:C:/Workspaces/DAVE-4.4.2-64Bit/_PKDS_TSTS06_811_X47_V1_0/Libraries/XMCLib/inc\xmc_gpio.h ****   XMC_ASSERT("XMC_GPIO_ToggleOutput: Invalid port", XMC_GPIO_CHECK_OUTPUT_PORT(port));
 316:C:/Workspaces/DAVE-4.4.2-64Bit/_PKDS_TSTS06_811_X47_V1_0/Libraries/XMCLib/inc\xmc_gpio.h **** 
 317:C:/Workspaces/DAVE-4.4.2-64Bit/_PKDS_TSTS06_811_X47_V1_0/Libraries/XMCLib/inc\xmc_gpio.h ****   port->OMR = 0x10001U << pin;
  97              	 .loc 1 317 24
  98 000c FB78     	 ldrb r3,[r7,#3]
  99 000e 4FF00112 	 mov r2,#65537
 100 0012 9A40     	 lsls r2,r2,r3
 101              	 .loc 1 317 13
 102 0014 7B68     	 ldr r3,[r7,#4]
 103 0016 5A60     	 str r2,[r3,#4]
 318:C:/Workspaces/DAVE-4.4.2-64Bit/_PKDS_TSTS06_811_X47_V1_0/Libraries/XMCLib/inc\xmc_gpio.h **** }
 104              	 .loc 1 318 1
 105 0018 00BF     	 nop
 106 001a 0C37     	 adds r7,r7,#12
 107              	.LCFI9:
 108              	 .cfi_def_cfa_offset 4
 109 001c BD46     	 mov sp,r7
 110              	.LCFI10:
 111              	 .cfi_def_cfa_register 13
 112              	 
 113 001e 5DF8047B 	 ldr r7,[sp],#4
 114              	.LCFI11:
 115              	 .cfi_restore 7
 116              	 .cfi_def_cfa_offset 0
 117 0022 7047     	 bx lr
 118              	 .cfi_endproc
 119              	.LFE137:
 121              	 .section .text.XMC_GPIO_GetInput,"ax",%progbits
 122              	 .align 1
 123              	 .syntax unified
 124              	 .thumb
 125              	 .thumb_func
 126              	 .fpu fpv4-sp-d16
 128              	XMC_GPIO_GetInput:
 129              	.LFB138:
 319:C:/Workspaces/DAVE-4.4.2-64Bit/_PKDS_TSTS06_811_X47_V1_0/Libraries/XMCLib/inc\xmc_gpio.h **** 
 320:C:/Workspaces/DAVE-4.4.2-64Bit/_PKDS_TSTS06_811_X47_V1_0/Libraries/XMCLib/inc\xmc_gpio.h **** /**
 321:C:/Workspaces/DAVE-4.4.2-64Bit/_PKDS_TSTS06_811_X47_V1_0/Libraries/XMCLib/inc\xmc_gpio.h ****  *
 322:C:/Workspaces/DAVE-4.4.2-64Bit/_PKDS_TSTS06_811_X47_V1_0/Libraries/XMCLib/inc\xmc_gpio.h ****  * @param port constant pointer pointing to GPIO port, to access hardware register Pn_IN.
 323:C:/Workspaces/DAVE-4.4.2-64Bit/_PKDS_TSTS06_811_X47_V1_0/Libraries/XMCLib/inc\xmc_gpio.h ****  * @param pin  Port pin number.
 324:C:/Workspaces/DAVE-4.4.2-64Bit/_PKDS_TSTS06_811_X47_V1_0/Libraries/XMCLib/inc\xmc_gpio.h ****  *
 325:C:/Workspaces/DAVE-4.4.2-64Bit/_PKDS_TSTS06_811_X47_V1_0/Libraries/XMCLib/inc\xmc_gpio.h ****  * @return uint32_t pin logic level status.
 326:C:/Workspaces/DAVE-4.4.2-64Bit/_PKDS_TSTS06_811_X47_V1_0/Libraries/XMCLib/inc\xmc_gpio.h ****  *
 327:C:/Workspaces/DAVE-4.4.2-64Bit/_PKDS_TSTS06_811_X47_V1_0/Libraries/XMCLib/inc\xmc_gpio.h ****  *\par<b>Description:</b><br>
 328:C:/Workspaces/DAVE-4.4.2-64Bit/_PKDS_TSTS06_811_X47_V1_0/Libraries/XMCLib/inc\xmc_gpio.h ****  * Reads the Pn_IN register and returns the current logical value at the GPIO pin.
 329:C:/Workspaces/DAVE-4.4.2-64Bit/_PKDS_TSTS06_811_X47_V1_0/Libraries/XMCLib/inc\xmc_gpio.h ****  *
 330:C:/Workspaces/DAVE-4.4.2-64Bit/_PKDS_TSTS06_811_X47_V1_0/Libraries/XMCLib/inc\xmc_gpio.h ****  * \par<b>Related APIs:</b><BR>
 331:C:/Workspaces/DAVE-4.4.2-64Bit/_PKDS_TSTS06_811_X47_V1_0/Libraries/XMCLib/inc\xmc_gpio.h ****  * None
 332:C:/Workspaces/DAVE-4.4.2-64Bit/_PKDS_TSTS06_811_X47_V1_0/Libraries/XMCLib/inc\xmc_gpio.h ****  *
 333:C:/Workspaces/DAVE-4.4.2-64Bit/_PKDS_TSTS06_811_X47_V1_0/Libraries/XMCLib/inc\xmc_gpio.h ****  * \par<b>Note:</b><br>
 334:C:/Workspaces/DAVE-4.4.2-64Bit/_PKDS_TSTS06_811_X47_V1_0/Libraries/XMCLib/inc\xmc_gpio.h ****  * Prior to this api, user has to configure port pin to input mode using XMC_GPIO_SetMode().
 335:C:/Workspaces/DAVE-4.4.2-64Bit/_PKDS_TSTS06_811_X47_V1_0/Libraries/XMCLib/inc\xmc_gpio.h ****  *
 336:C:/Workspaces/DAVE-4.4.2-64Bit/_PKDS_TSTS06_811_X47_V1_0/Libraries/XMCLib/inc\xmc_gpio.h ****  */
 337:C:/Workspaces/DAVE-4.4.2-64Bit/_PKDS_TSTS06_811_X47_V1_0/Libraries/XMCLib/inc\xmc_gpio.h **** 
 338:C:/Workspaces/DAVE-4.4.2-64Bit/_PKDS_TSTS06_811_X47_V1_0/Libraries/XMCLib/inc\xmc_gpio.h **** __STATIC_INLINE uint32_t XMC_GPIO_GetInput(XMC_GPIO_PORT_t *const port, const uint8_t pin)
 339:C:/Workspaces/DAVE-4.4.2-64Bit/_PKDS_TSTS06_811_X47_V1_0/Libraries/XMCLib/inc\xmc_gpio.h **** {
 130              	 .loc 1 339 1
 131              	 .cfi_startproc
 132              	 
 133              	 
 134              	 
 135 0000 80B4     	 push {r7}
 136              	.LCFI12:
 137              	 .cfi_def_cfa_offset 4
 138              	 .cfi_offset 7,-4
 139 0002 83B0     	 sub sp,sp,#12
 140              	.LCFI13:
 141              	 .cfi_def_cfa_offset 16
 142 0004 00AF     	 add r7,sp,#0
 143              	.LCFI14:
 144              	 .cfi_def_cfa_register 7
 145 0006 7860     	 str r0,[r7,#4]
 146 0008 0B46     	 mov r3,r1
 147 000a FB70     	 strb r3,[r7,#3]
 340:C:/Workspaces/DAVE-4.4.2-64Bit/_PKDS_TSTS06_811_X47_V1_0/Libraries/XMCLib/inc\xmc_gpio.h ****   XMC_ASSERT("XMC_GPIO_GetInput: Invalid port", XMC_GPIO_CHECK_PORT(port));
 341:C:/Workspaces/DAVE-4.4.2-64Bit/_PKDS_TSTS06_811_X47_V1_0/Libraries/XMCLib/inc\xmc_gpio.h **** 
 342:C:/Workspaces/DAVE-4.4.2-64Bit/_PKDS_TSTS06_811_X47_V1_0/Libraries/XMCLib/inc\xmc_gpio.h ****   return (((port->IN) >> pin) & 0x1U);
 148              	 .loc 1 342 17
 149 000c 7B68     	 ldr r3,[r7,#4]
 150 000e 5A6A     	 ldr r2,[r3,#36]
 151              	 .loc 1 342 31
 152 0010 FB78     	 ldrb r3,[r7,#3]
 153              	 .loc 1 342 23
 154 0012 22FA03F3 	 lsr r3,r2,r3
 155              	 .loc 1 342 31
 156 0016 03F00103 	 and r3,r3,#1
 343:C:/Workspaces/DAVE-4.4.2-64Bit/_PKDS_TSTS06_811_X47_V1_0/Libraries/XMCLib/inc\xmc_gpio.h **** }
 157              	 .loc 1 343 1
 158 001a 1846     	 mov r0,r3
 159 001c 0C37     	 adds r7,r7,#12
 160              	.LCFI15:
 161              	 .cfi_def_cfa_offset 4
 162 001e BD46     	 mov sp,r7
 163              	.LCFI16:
 164              	 .cfi_def_cfa_register 13
 165              	 
 166 0020 5DF8047B 	 ldr r7,[sp],#4
 167              	.LCFI17:
 168              	 .cfi_restore 7
 169              	 .cfi_def_cfa_offset 0
 170 0024 7047     	 bx lr
 171              	 .cfi_endproc
 172              	.LFE138:
 174              	 .section .text.BUS_IO_GetAppVersion,"ax",%progbits
 175              	 .align 1
 176              	 .global BUS_IO_GetAppVersion
 177              	 .syntax unified
 178              	 .thumb
 179              	 .thumb_func
 180              	 .fpu fpv4-sp-d16
 182              	BUS_IO_GetAppVersion:
 183              	.LFB143:
 184              	 .file 2 "../Dave/Generated/BUS_IO/bus_io.c"
   1:../Dave/Generated/BUS_IO/bus_io.c **** /**
   2:../Dave/Generated/BUS_IO/bus_io.c ****  * @file bus_io.c
   3:../Dave/Generated/BUS_IO/bus_io.c ****  * @date 2016-04-06
   4:../Dave/Generated/BUS_IO/bus_io.c ****  *
   5:../Dave/Generated/BUS_IO/bus_io.c ****  * NOTE:
   6:../Dave/Generated/BUS_IO/bus_io.c ****  * This file is generated by DAVE. Any manual modification done to this file will be lost when the 
   7:../Dave/Generated/BUS_IO/bus_io.c ****  *
   8:../Dave/Generated/BUS_IO/bus_io.c ****  * @cond
   9:../Dave/Generated/BUS_IO/bus_io.c ****  **************************************************************************************************
  10:../Dave/Generated/BUS_IO/bus_io.c ****  * BUS_IO v4.0.4 - BUS_IO APP is used to configure/control several GPIO pins as one entity.
  11:../Dave/Generated/BUS_IO/bus_io.c ****  *
  12:../Dave/Generated/BUS_IO/bus_io.c ****  * Copyright (c) 2015-2020, Infineon Technologies AG
  13:../Dave/Generated/BUS_IO/bus_io.c ****  * All rights reserved.
  14:../Dave/Generated/BUS_IO/bus_io.c ****  *
  15:../Dave/Generated/BUS_IO/bus_io.c ****  * Redistribution and use in source and binary forms, with or without modification,are permitted pr
  16:../Dave/Generated/BUS_IO/bus_io.c ****  * following conditions are met:
  17:../Dave/Generated/BUS_IO/bus_io.c ****  *
  18:../Dave/Generated/BUS_IO/bus_io.c ****  *   Redistributions of source code must retain the above copyright notice, this list of conditions
  19:../Dave/Generated/BUS_IO/bus_io.c ****  *   disclaimer.
  20:../Dave/Generated/BUS_IO/bus_io.c ****  *
  21:../Dave/Generated/BUS_IO/bus_io.c ****  *   Redistributions in binary form must reproduce the above copyright notice, this list of conditi
  22:../Dave/Generated/BUS_IO/bus_io.c ****  *   following disclaimer in the documentation and/or other materials provided with the distributio
  23:../Dave/Generated/BUS_IO/bus_io.c ****  *
  24:../Dave/Generated/BUS_IO/bus_io.c ****  *   Neither the name of the copyright holders nor the names of its contributors may be used to end
  25:../Dave/Generated/BUS_IO/bus_io.c ****  *   products derived from this software without specific prior written permission.
  26:../Dave/Generated/BUS_IO/bus_io.c ****  *
  27:../Dave/Generated/BUS_IO/bus_io.c ****  * THIS SOFTWARE IS PROVIDED BY THE COPYRIGHT HOLDERS AND CONTRIBUTORS "AS IS" AND ANY EXPRESS OR I
  28:../Dave/Generated/BUS_IO/bus_io.c ****  * INCLUDING, BUT NOT LIMITED TO, THE IMPLIED WARRANTIES OF MERCHANTABILITY AND FITNESS FOR A PARTI
  29:../Dave/Generated/BUS_IO/bus_io.c ****  * DISCLAIMED. IN NO EVENT SHALL THE COPYRIGHT HOLDER OR CONTRIBUTORS BE LIABLE  FOR ANY DIRECT, IN
  30:../Dave/Generated/BUS_IO/bus_io.c ****  * SPECIAL, EXEMPLARY, OR CONSEQUENTIAL DAMAGES (INCLUDING, BUT NOT LIMITED TO, PROCUREMENT OF SUBS
  31:../Dave/Generated/BUS_IO/bus_io.c ****  * SERVICES; LOSS OF USE, DATA, OR PROFITS; OR BUSINESS INTERRUPTION) HOWEVER CAUSED AND ON ANY THE
  32:../Dave/Generated/BUS_IO/bus_io.c ****  * WHETHER IN CONTRACT, STRICT LIABILITY,OR TORT (INCLUDING NEGLIGENCE OR OTHERWISE) ARISING IN ANY
  33:../Dave/Generated/BUS_IO/bus_io.c ****  * USE OF THIS SOFTWARE, EVEN IF ADVISED OF THE POSSIBILITY OF SUCH DAMAGE.
  34:../Dave/Generated/BUS_IO/bus_io.c ****  *
  35:../Dave/Generated/BUS_IO/bus_io.c ****  * To improve the quality of the software, users are encouraged to share modifications, enhancement
  36:../Dave/Generated/BUS_IO/bus_io.c ****  * with Infineon Technologies AG (dave@infineon.com).
  37:../Dave/Generated/BUS_IO/bus_io.c ****  **************************************************************************************************
  38:../Dave/Generated/BUS_IO/bus_io.c ****  *
  39:../Dave/Generated/BUS_IO/bus_io.c ****  * Change History
  40:../Dave/Generated/BUS_IO/bus_io.c ****  * --------------
  41:../Dave/Generated/BUS_IO/bus_io.c ****  *
  42:../Dave/Generated/BUS_IO/bus_io.c ****  * 2016-04-01
  43:../Dave/Generated/BUS_IO/bus_io.c ****  *     - Initial version.<br>
  44:../Dave/Generated/BUS_IO/bus_io.c ****  * 2016-04-06
  45:../Dave/Generated/BUS_IO/bus_io.c ****  *     - BUS_IO_Write() API performance improved.<br>
  46:../Dave/Generated/BUS_IO/bus_io.c ****  *
  47:../Dave/Generated/BUS_IO/bus_io.c ****  * @endcond
  48:../Dave/Generated/BUS_IO/bus_io.c ****  *
  49:../Dave/Generated/BUS_IO/bus_io.c ****  */
  50:../Dave/Generated/BUS_IO/bus_io.c **** 
  51:../Dave/Generated/BUS_IO/bus_io.c **** /**************************************************************************************************
  52:../Dave/Generated/BUS_IO/bus_io.c ****  * HEADER FILES
  53:../Dave/Generated/BUS_IO/bus_io.c ****  **************************************************************************************************
  54:../Dave/Generated/BUS_IO/bus_io.c **** #include "bus_io.h"
  55:../Dave/Generated/BUS_IO/bus_io.c **** 
  56:../Dave/Generated/BUS_IO/bus_io.c **** /**************************************************************************************************
  57:../Dave/Generated/BUS_IO/bus_io.c ****  * MACROS
  58:../Dave/Generated/BUS_IO/bus_io.c ****  **************************************************************************************************
  59:../Dave/Generated/BUS_IO/bus_io.c **** 
  60:../Dave/Generated/BUS_IO/bus_io.c **** /**************************************************************************************************
  61:../Dave/Generated/BUS_IO/bus_io.c ****  * LOCAL DATA
  62:../Dave/Generated/BUS_IO/bus_io.c ****  **************************************************************************************************
  63:../Dave/Generated/BUS_IO/bus_io.c **** 
  64:../Dave/Generated/BUS_IO/bus_io.c **** /**************************************************************************************************
  65:../Dave/Generated/BUS_IO/bus_io.c ****  * LOCAL ROUTINES
  66:../Dave/Generated/BUS_IO/bus_io.c ****  **************************************************************************************************
  67:../Dave/Generated/BUS_IO/bus_io.c **** 
  68:../Dave/Generated/BUS_IO/bus_io.c ****  /*************************************************************************************************
  69:../Dave/Generated/BUS_IO/bus_io.c ****  * API IMPLEMENTATION
  70:../Dave/Generated/BUS_IO/bus_io.c ****  **************************************************************************************************
  71:../Dave/Generated/BUS_IO/bus_io.c **** 
  72:../Dave/Generated/BUS_IO/bus_io.c **** /**
  73:../Dave/Generated/BUS_IO/bus_io.c **** * @brief Get BUS_IO APP version
  74:../Dave/Generated/BUS_IO/bus_io.c **** * @return DAVE_APP_VERSION_t APP version information (major, minor and patch number)
  75:../Dave/Generated/BUS_IO/bus_io.c **** */
  76:../Dave/Generated/BUS_IO/bus_io.c **** 
  77:../Dave/Generated/BUS_IO/bus_io.c **** DAVE_APP_VERSION_t BUS_IO_GetAppVersion(void)
  78:../Dave/Generated/BUS_IO/bus_io.c **** {
 185              	 .loc 2 78 1
 186              	 .cfi_startproc
 187              	 
 188              	 
 189              	 
 190 0000 80B4     	 push {r7}
 191              	.LCFI18:
 192              	 .cfi_def_cfa_offset 4
 193              	 .cfi_offset 7,-4
 194 0002 83B0     	 sub sp,sp,#12
 195              	.LCFI19:
 196              	 .cfi_def_cfa_offset 16
 197 0004 00AF     	 add r7,sp,#0
 198              	.LCFI20:
 199              	 .cfi_def_cfa_register 7
  79:../Dave/Generated/BUS_IO/bus_io.c ****   DAVE_APP_VERSION_t version;
  80:../Dave/Generated/BUS_IO/bus_io.c **** 
  81:../Dave/Generated/BUS_IO/bus_io.c ****   version.major = (uint8_t)BUS_IO_MAJOR_VERSION;
 200              	 .loc 2 81 17
 201 0006 0423     	 movs r3,#4
 202 0008 3B70     	 strb r3,[r7]
  82:../Dave/Generated/BUS_IO/bus_io.c ****   version.minor = (uint8_t)BUS_IO_MINOR_VERSION;
 203              	 .loc 2 82 17
 204 000a 0023     	 movs r3,#0
 205 000c 7B70     	 strb r3,[r7,#1]
  83:../Dave/Generated/BUS_IO/bus_io.c ****   version.patch = (uint8_t)BUS_IO_PATCH_VERSION;
 206              	 .loc 2 83 17
 207 000e 0423     	 movs r3,#4
 208 0010 BB70     	 strb r3,[r7,#2]
  84:../Dave/Generated/BUS_IO/bus_io.c **** 
  85:../Dave/Generated/BUS_IO/bus_io.c ****   return (version);
 209              	 .loc 2 85 10
 210 0012 3B1D     	 adds r3,r7,#4
 211 0014 3A46     	 mov r2,r7
 212 0016 1268     	 ldr r2,[r2]
 213 0018 1146     	 mov r1,r2
 214 001a 1980     	 strh r1,[r3]
 215 001c 0233     	 adds r3,r3,#2
 216 001e 120C     	 lsrs r2,r2,#16
 217 0020 1A70     	 strb r2,[r3]
 218 0022 0023     	 movs r3,#0
 219 0024 3A79     	 ldrb r2,[r7,#4]
 220 0026 62F30703 	 bfi r3,r2,#0,#8
 221 002a 7A79     	 ldrb r2,[r7,#5]
 222 002c 62F30F23 	 bfi r3,r2,#8,#8
 223 0030 BA79     	 ldrb r2,[r7,#6]
 224 0032 62F31743 	 bfi r3,r2,#16,#8
  86:../Dave/Generated/BUS_IO/bus_io.c **** }
 225              	 .loc 2 86 1
 226 0036 1846     	 mov r0,r3
 227 0038 0C37     	 adds r7,r7,#12
 228              	.LCFI21:
 229              	 .cfi_def_cfa_offset 4
 230 003a BD46     	 mov sp,r7
 231              	.LCFI22:
 232              	 .cfi_def_cfa_register 13
 233              	 
 234 003c 5DF8047B 	 ldr r7,[sp],#4
 235              	.LCFI23:
 236              	 .cfi_restore 7
 237              	 .cfi_def_cfa_offset 0
 238 0040 7047     	 bx lr
 239              	 .cfi_endproc
 240              	.LFE143:
 242              	 .section .text.BUS_IO_Init,"ax",%progbits
 243              	 .align 1
 244              	 .global BUS_IO_Init
 245              	 .syntax unified
 246              	 .thumb
 247              	 .thumb_func
 248              	 .fpu fpv4-sp-d16
 250              	BUS_IO_Init:
 251              	.LFB144:
  87:../Dave/Generated/BUS_IO/bus_io.c **** 
  88:../Dave/Generated/BUS_IO/bus_io.c **** /**
  89:../Dave/Generated/BUS_IO/bus_io.c **** * @brief Function to initialize the port pin as per UI settings.
  90:../Dave/Generated/BUS_IO/bus_io.c **** * @param handle_ptr Pointer pointing to APP data structure.
  91:../Dave/Generated/BUS_IO/bus_io.c **** * @return BUS_IO_STATUS_t BUS_IO APP status.
  92:../Dave/Generated/BUS_IO/bus_io.c **** */
  93:../Dave/Generated/BUS_IO/bus_io.c **** 
  94:../Dave/Generated/BUS_IO/bus_io.c **** BUS_IO_STATUS_t BUS_IO_Init(BUS_IO_t *const handle_ptr)
  95:../Dave/Generated/BUS_IO/bus_io.c **** {
 252              	 .loc 2 95 1
 253              	 .cfi_startproc
 254              	 
 255              	 
 256 0000 80B5     	 push {r7,lr}
 257              	.LCFI24:
 258              	 .cfi_def_cfa_offset 8
 259              	 .cfi_offset 7,-8
 260              	 .cfi_offset 14,-4
 261 0002 84B0     	 sub sp,sp,#16
 262              	.LCFI25:
 263              	 .cfi_def_cfa_offset 24
 264 0004 00AF     	 add r7,sp,#0
 265              	.LCFI26:
 266              	 .cfi_def_cfa_register 7
 267 0006 7860     	 str r0,[r7,#4]
  96:../Dave/Generated/BUS_IO/bus_io.c ****   uint8_t i;
  97:../Dave/Generated/BUS_IO/bus_io.c **** 
  98:../Dave/Generated/BUS_IO/bus_io.c ****   XMC_ASSERT("BUS_IO_Init: handle_ptr null pointer", handle_ptr != NULL);
  99:../Dave/Generated/BUS_IO/bus_io.c **** 
 100:../Dave/Generated/BUS_IO/bus_io.c ****   if ((bool)false == handle_ptr->initialized)
 268              	 .loc 2 100 32
 269 0008 7B68     	 ldr r3,[r7,#4]
 270 000a 5B7C     	 ldrb r3,[r3,#17]
 271              	 .loc 2 100 19
 272 000c 83F00103 	 eor r3,r3,#1
 273 0010 DBB2     	 uxtb r3,r3
 274              	 .loc 2 100 6
 275 0012 002B     	 cmp r3,#0
 276 0014 1ED0     	 beq .L8
 101:../Dave/Generated/BUS_IO/bus_io.c ****   {
 102:../Dave/Generated/BUS_IO/bus_io.c ****     /* Iterate the list of pins initializing the pin according to the gpio_config */
 103:../Dave/Generated/BUS_IO/bus_io.c ****     for (i = 0U; i < handle_ptr->number_of_pins; i++)
 277              	 .loc 2 103 12
 278 0016 0023     	 movs r3,#0
 279 0018 FB73     	 strb r3,[r7,#15]
 280              	 .loc 2 103 5
 281 001a 13E0     	 b .L9
 282              	.L10:
 104:../Dave/Generated/BUS_IO/bus_io.c ****     {
 105:../Dave/Generated/BUS_IO/bus_io.c ****       /* Initializes input / output characteristics */
 106:../Dave/Generated/BUS_IO/bus_io.c ****       XMC_GPIO_Init(handle_ptr->pin_array[i].gpio_port, handle_ptr->pin_array[i].gpio_pin, &handle_
 283              	 .loc 2 106 31 discriminator 3
 284 001c 7B68     	 ldr r3,[r7,#4]
 285 001e 1A68     	 ldr r2,[r3]
 286              	 .loc 2 106 42 discriminator 3
 287 0020 FB7B     	 ldrb r3,[r7,#15]
 288 0022 DB00     	 lsls r3,r3,#3
 289 0024 1344     	 add r3,r3,r2
 290              	 .loc 2 106 7 discriminator 3
 291 0026 1868     	 ldr r0,[r3]
 292              	 .loc 2 106 67 discriminator 3
 293 0028 7B68     	 ldr r3,[r7,#4]
 294 002a 1A68     	 ldr r2,[r3]
 295              	 .loc 2 106 78 discriminator 3
 296 002c FB7B     	 ldrb r3,[r7,#15]
 297 002e DB00     	 lsls r3,r3,#3
 298 0030 1344     	 add r3,r3,r2
 299              	 .loc 2 106 7 discriminator 3
 300 0032 1979     	 ldrb r1,[r3,#4]
 301              	 .loc 2 106 92 discriminator 3
 302 0034 7B68     	 ldr r3,[r7,#4]
 303 0036 0433     	 adds r3,r3,#4
 304              	 .loc 2 106 7 discriminator 3
 305 0038 1A46     	 mov r2,r3
 306 003a FFF7FEFF 	 bl XMC_GPIO_Init
 103:../Dave/Generated/BUS_IO/bus_io.c ****     {
 307              	 .loc 2 103 51 discriminator 3
 308 003e FB7B     	 ldrb r3,[r7,#15]
 309 0040 0133     	 adds r3,r3,#1
 310 0042 FB73     	 strb r3,[r7,#15]
 311              	.L9:
 103:../Dave/Generated/BUS_IO/bus_io.c ****     {
 312              	 .loc 2 103 32 discriminator 1
 313 0044 7B68     	 ldr r3,[r7,#4]
 314 0046 1B7C     	 ldrb r3,[r3,#16]
 103:../Dave/Generated/BUS_IO/bus_io.c ****     {
 315              	 .loc 2 103 5 discriminator 1
 316 0048 FA7B     	 ldrb r2,[r7,#15]
 317 004a 9A42     	 cmp r2,r3
 318 004c E6D3     	 bcc .L10
 107:../Dave/Generated/BUS_IO/bus_io.c ****     }
 108:../Dave/Generated/BUS_IO/bus_io.c ****     handle_ptr->initialized = (bool)true;
 319              	 .loc 2 108 29
 320 004e 7B68     	 ldr r3,[r7,#4]
 321 0050 0122     	 movs r2,#1
 322 0052 5A74     	 strb r2,[r3,#17]
 323              	.L8:
 109:../Dave/Generated/BUS_IO/bus_io.c ****   }
 110:../Dave/Generated/BUS_IO/bus_io.c ****   return (BUS_IO_STATUS_OK);
 324              	 .loc 2 110 10
 325 0054 0023     	 movs r3,#0
 111:../Dave/Generated/BUS_IO/bus_io.c **** }
 326              	 .loc 2 111 1
 327 0056 1846     	 mov r0,r3
 328 0058 1037     	 adds r7,r7,#16
 329              	.LCFI27:
 330              	 .cfi_def_cfa_offset 8
 331 005a BD46     	 mov sp,r7
 332              	.LCFI28:
 333              	 .cfi_def_cfa_register 13
 334              	 
 335 005c 80BD     	 pop {r7,pc}
 336              	 .cfi_endproc
 337              	.LFE144:
 339              	 .section .text.BUS_IO_SetMode,"ax",%progbits
 340              	 .align 1
 341              	 .global BUS_IO_SetMode
 342              	 .syntax unified
 343              	 .thumb
 344              	 .thumb_func
 345              	 .fpu fpv4-sp-d16
 347              	BUS_IO_SetMode:
 348              	.LFB145:
 112:../Dave/Generated/BUS_IO/bus_io.c **** 
 113:../Dave/Generated/BUS_IO/bus_io.c **** /* Function to set the mode of the bus */
 114:../Dave/Generated/BUS_IO/bus_io.c **** void BUS_IO_SetMode(BUS_IO_t *const handle_ptr, const BUS_IO_MODE_t mode)
 115:../Dave/Generated/BUS_IO/bus_io.c **** {
 349              	 .loc 2 115 1
 350              	 .cfi_startproc
 351              	 
 352              	 
 353 0000 80B5     	 push {r7,lr}
 354              	.LCFI29:
 355              	 .cfi_def_cfa_offset 8
 356              	 .cfi_offset 7,-8
 357              	 .cfi_offset 14,-4
 358 0002 84B0     	 sub sp,sp,#16
 359              	.LCFI30:
 360              	 .cfi_def_cfa_offset 24
 361 0004 00AF     	 add r7,sp,#0
 362              	.LCFI31:
 363              	 .cfi_def_cfa_register 7
 364 0006 7860     	 str r0,[r7,#4]
 365 0008 0B46     	 mov r3,r1
 366 000a FB70     	 strb r3,[r7,#3]
 116:../Dave/Generated/BUS_IO/bus_io.c ****   uint8_t i;
 117:../Dave/Generated/BUS_IO/bus_io.c **** 
 118:../Dave/Generated/BUS_IO/bus_io.c ****   XMC_ASSERT("BUS_IO_SetMode: handle_ptr null pointer", handle_ptr != NULL);
 119:../Dave/Generated/BUS_IO/bus_io.c **** 
 120:../Dave/Generated/BUS_IO/bus_io.c ****   /* Iterate the list of pins setting the pin according to the selected mode */
 121:../Dave/Generated/BUS_IO/bus_io.c ****   for (i = 0U; i < handle_ptr->number_of_pins; i++)
 367              	 .loc 2 121 10
 368 000c 0023     	 movs r3,#0
 369 000e FB73     	 strb r3,[r7,#15]
 370              	 .loc 2 121 3
 371 0010 12E0     	 b .L13
 372              	.L14:
 122:../Dave/Generated/BUS_IO/bus_io.c ****   {
 123:../Dave/Generated/BUS_IO/bus_io.c ****     /* Setting of a mode of a bus */
 124:../Dave/Generated/BUS_IO/bus_io.c ****     XMC_GPIO_SetMode(handle_ptr->pin_array[i].gpio_port, handle_ptr->pin_array[i].gpio_pin, mode);
 373              	 .loc 2 124 32 discriminator 3
 374 0012 7B68     	 ldr r3,[r7,#4]
 375 0014 1A68     	 ldr r2,[r3]
 376              	 .loc 2 124 43 discriminator 3
 377 0016 FB7B     	 ldrb r3,[r7,#15]
 378 0018 DB00     	 lsls r3,r3,#3
 379 001a 1344     	 add r3,r3,r2
 380              	 .loc 2 124 5 discriminator 3
 381 001c 1868     	 ldr r0,[r3]
 382              	 .loc 2 124 68 discriminator 3
 383 001e 7B68     	 ldr r3,[r7,#4]
 384 0020 1A68     	 ldr r2,[r3]
 385              	 .loc 2 124 79 discriminator 3
 386 0022 FB7B     	 ldrb r3,[r7,#15]
 387 0024 DB00     	 lsls r3,r3,#3
 388 0026 1344     	 add r3,r3,r2
 389              	 .loc 2 124 5 discriminator 3
 390 0028 1B79     	 ldrb r3,[r3,#4]
 391 002a FA78     	 ldrb r2,[r7,#3]
 392 002c 1946     	 mov r1,r3
 393 002e FFF7FEFF 	 bl XMC_GPIO_SetMode
 121:../Dave/Generated/BUS_IO/bus_io.c ****   {
 394              	 .loc 2 121 49 discriminator 3
 395 0032 FB7B     	 ldrb r3,[r7,#15]
 396 0034 0133     	 adds r3,r3,#1
 397 0036 FB73     	 strb r3,[r7,#15]
 398              	.L13:
 121:../Dave/Generated/BUS_IO/bus_io.c ****   {
 399              	 .loc 2 121 30 discriminator 1
 400 0038 7B68     	 ldr r3,[r7,#4]
 401 003a 1B7C     	 ldrb r3,[r3,#16]
 121:../Dave/Generated/BUS_IO/bus_io.c ****   {
 402              	 .loc 2 121 3 discriminator 1
 403 003c FA7B     	 ldrb r2,[r7,#15]
 404 003e 9A42     	 cmp r2,r3
 405 0040 E7D3     	 bcc .L14
 125:../Dave/Generated/BUS_IO/bus_io.c ****   }
 126:../Dave/Generated/BUS_IO/bus_io.c **** }
 406              	 .loc 2 126 1
 407 0042 00BF     	 nop
 408 0044 00BF     	 nop
 409 0046 1037     	 adds r7,r7,#16
 410              	.LCFI32:
 411              	 .cfi_def_cfa_offset 8
 412 0048 BD46     	 mov sp,r7
 413              	.LCFI33:
 414              	 .cfi_def_cfa_register 13
 415              	 
 416 004a 80BD     	 pop {r7,pc}
 417              	 .cfi_endproc
 418              	.LFE145:
 420              	 .section .text.BUS_IO_Read,"ax",%progbits
 421              	 .align 1
 422              	 .global BUS_IO_Read
 423              	 .syntax unified
 424              	 .thumb
 425              	 .thumb_func
 426              	 .fpu fpv4-sp-d16
 428              	BUS_IO_Read:
 429              	.LFB146:
 127:../Dave/Generated/BUS_IO/bus_io.c **** 
 128:../Dave/Generated/BUS_IO/bus_io.c **** /* Function to read the bus pins state */
 129:../Dave/Generated/BUS_IO/bus_io.c **** uint16_t BUS_IO_Read(BUS_IO_t *const handle_ptr)
 130:../Dave/Generated/BUS_IO/bus_io.c **** {
 430              	 .loc 2 130 1
 431              	 .cfi_startproc
 432              	 
 433              	 
 434 0000 80B5     	 push {r7,lr}
 435              	.LCFI34:
 436              	 .cfi_def_cfa_offset 8
 437              	 .cfi_offset 7,-8
 438              	 .cfi_offset 14,-4
 439 0002 84B0     	 sub sp,sp,#16
 440              	.LCFI35:
 441              	 .cfi_def_cfa_offset 24
 442 0004 00AF     	 add r7,sp,#0
 443              	.LCFI36:
 444              	 .cfi_def_cfa_register 7
 445 0006 7860     	 str r0,[r7,#4]
 131:../Dave/Generated/BUS_IO/bus_io.c ****   uint8_t i;
 132:../Dave/Generated/BUS_IO/bus_io.c ****   uint16_t count = 0U;
 446              	 .loc 2 132 12
 447 0008 0023     	 movs r3,#0
 448 000a BB81     	 strh r3,[r7,#12]
 133:../Dave/Generated/BUS_IO/bus_io.c **** 
 134:../Dave/Generated/BUS_IO/bus_io.c ****   XMC_ASSERT("BUS_IO_Read: handle_ptr null pointer", handle_ptr != NULL);
 135:../Dave/Generated/BUS_IO/bus_io.c **** 
 136:../Dave/Generated/BUS_IO/bus_io.c ****   /* Iterate the list of pins reading the pin state and packing the result according the pin positi
 137:../Dave/Generated/BUS_IO/bus_io.c ****   for (i = 0U; i < handle_ptr->number_of_pins; i++)
 449              	 .loc 2 137 10
 450 000c 0023     	 movs r3,#0
 451 000e FB73     	 strb r3,[r7,#15]
 452              	 .loc 2 137 3
 453 0010 19E0     	 b .L16
 454              	.L17:
 138:../Dave/Generated/BUS_IO/bus_io.c ****   {
 139:../Dave/Generated/BUS_IO/bus_io.c ****     /* Reading a bus pin's state */
 140:../Dave/Generated/BUS_IO/bus_io.c ****     count |= (uint16_t)(XMC_GPIO_GetInput(handle_ptr->pin_array[i].gpio_port, handle_ptr->pin_array
 455              	 .loc 2 140 53 discriminator 3
 456 0012 7B68     	 ldr r3,[r7,#4]
 457 0014 1A68     	 ldr r2,[r3]
 458              	 .loc 2 140 64 discriminator 3
 459 0016 FB7B     	 ldrb r3,[r7,#15]
 460 0018 DB00     	 lsls r3,r3,#3
 461 001a 1344     	 add r3,r3,r2
 462              	 .loc 2 140 25 discriminator 3
 463 001c 1868     	 ldr r0,[r3]
 464              	 .loc 2 140 89 discriminator 3
 465 001e 7B68     	 ldr r3,[r7,#4]
 466 0020 1A68     	 ldr r2,[r3]
 467              	 .loc 2 140 100 discriminator 3
 468 0022 FB7B     	 ldrb r3,[r7,#15]
 469 0024 DB00     	 lsls r3,r3,#3
 470 0026 1344     	 add r3,r3,r2
 471              	 .loc 2 140 25 discriminator 3
 472 0028 1B79     	 ldrb r3,[r3,#4]
 473 002a 1946     	 mov r1,r3
 474 002c FFF7FEFF 	 bl XMC_GPIO_GetInput
 475 0030 0246     	 mov r2,r0
 476              	 .loc 2 140 114 discriminator 3
 477 0032 FB7B     	 ldrb r3,[r7,#15]
 478 0034 02FA03F3 	 lsl r3,r2,r3
 479              	 .loc 2 140 14 discriminator 3
 480 0038 9AB2     	 uxth r2,r3
 481              	 .loc 2 140 11 discriminator 3
 482 003a BB89     	 ldrh r3,[r7,#12]
 483 003c 1343     	 orrs r3,r3,r2
 484 003e BB81     	 strh r3,[r7,#12]
 137:../Dave/Generated/BUS_IO/bus_io.c ****   {
 485              	 .loc 2 137 49 discriminator 3
 486 0040 FB7B     	 ldrb r3,[r7,#15]
 487 0042 0133     	 adds r3,r3,#1
 488 0044 FB73     	 strb r3,[r7,#15]
 489              	.L16:
 137:../Dave/Generated/BUS_IO/bus_io.c ****   {
 490              	 .loc 2 137 30 discriminator 1
 491 0046 7B68     	 ldr r3,[r7,#4]
 492 0048 1B7C     	 ldrb r3,[r3,#16]
 137:../Dave/Generated/BUS_IO/bus_io.c ****   {
 493              	 .loc 2 137 3 discriminator 1
 494 004a FA7B     	 ldrb r2,[r7,#15]
 495 004c 9A42     	 cmp r2,r3
 496 004e E0D3     	 bcc .L17
 141:../Dave/Generated/BUS_IO/bus_io.c ****   }
 142:../Dave/Generated/BUS_IO/bus_io.c ****   return(count);
 497              	 .loc 2 142 9
 498 0050 BB89     	 ldrh r3,[r7,#12]
 143:../Dave/Generated/BUS_IO/bus_io.c **** }
 499              	 .loc 2 143 1
 500 0052 1846     	 mov r0,r3
 501 0054 1037     	 adds r7,r7,#16
 502              	.LCFI37:
 503              	 .cfi_def_cfa_offset 8
 504 0056 BD46     	 mov sp,r7
 505              	.LCFI38:
 506              	 .cfi_def_cfa_register 13
 507              	 
 508 0058 80BD     	 pop {r7,pc}
 509              	 .cfi_endproc
 510              	.LFE146:
 512              	 .section .text.BUS_IO_Write,"ax",%progbits
 513              	 .align 1
 514              	 .global BUS_IO_Write
 515              	 .syntax unified
 516              	 .thumb
 517              	 .thumb_func
 518              	 .fpu fpv4-sp-d16
 520              	BUS_IO_Write:
 521              	.LFB147:
 144:../Dave/Generated/BUS_IO/bus_io.c **** 
 145:../Dave/Generated/BUS_IO/bus_io.c **** /* Function to set the pins bus state */
 146:../Dave/Generated/BUS_IO/bus_io.c **** void BUS_IO_Write(BUS_IO_t *const handle_ptr, const uint16_t data)
 147:../Dave/Generated/BUS_IO/bus_io.c **** {
 522              	 .loc 2 147 1
 523              	 .cfi_startproc
 524              	 
 525              	 
 526 0000 80B5     	 push {r7,lr}
 527              	.LCFI39:
 528              	 .cfi_def_cfa_offset 8
 529              	 .cfi_offset 7,-8
 530              	 .cfi_offset 14,-4
 531 0002 84B0     	 sub sp,sp,#16
 532              	.LCFI40:
 533              	 .cfi_def_cfa_offset 24
 534 0004 00AF     	 add r7,sp,#0
 535              	.LCFI41:
 536              	 .cfi_def_cfa_register 7
 537 0006 7860     	 str r0,[r7,#4]
 538 0008 0B46     	 mov r3,r1
 539 000a 7B80     	 strh r3,[r7,#2]
 148:../Dave/Generated/BUS_IO/bus_io.c ****   uint8_t i;
 149:../Dave/Generated/BUS_IO/bus_io.c ****   const BUS_IO_PORT_PIN_t *bus_io_port_pin;
 150:../Dave/Generated/BUS_IO/bus_io.c **** 
 151:../Dave/Generated/BUS_IO/bus_io.c ****   XMC_ASSERT("BUS_IO_Write: handle_ptr null pointer", handle_ptr != NULL);
 152:../Dave/Generated/BUS_IO/bus_io.c **** 
 153:../Dave/Generated/BUS_IO/bus_io.c ****   bus_io_port_pin = handle_ptr->pin_array;
 540              	 .loc 2 153 19
 541 000c 7B68     	 ldr r3,[r7,#4]
 542 000e 1B68     	 ldr r3,[r3]
 543 0010 BB60     	 str r3,[r7,#8]
 154:../Dave/Generated/BUS_IO/bus_io.c ****   /* Iterate the list of pins setting the pin state according the pin position in the list, , from 
 155:../Dave/Generated/BUS_IO/bus_io.c ****   for (i = 0U; i < handle_ptr->number_of_pins; i++)
 544              	 .loc 2 155 10
 545 0012 0023     	 movs r3,#0
 546 0014 FB73     	 strb r3,[r7,#15]
 547              	 .loc 2 155 3
 548 0016 21E0     	 b .L20
 549              	.L23:
 156:../Dave/Generated/BUS_IO/bus_io.c ****   {
 157:../Dave/Generated/BUS_IO/bus_io.c ****     if (data & (uint16_t)((uint16_t)1 << i))
 550              	 .loc 2 157 39
 551 0018 FB7B     	 ldrb r3,[r7,#15]
 552 001a 0122     	 movs r2,#1
 553 001c 02FA03F3 	 lsl r3,r2,r3
 554              	 .loc 2 157 16
 555 0020 9AB2     	 uxth r2,r3
 556              	 .loc 2 157 9
 557 0022 7B88     	 ldrh r3,[r7,#2]
 558 0024 1340     	 ands r3,r3,r2
 559 0026 9BB2     	 uxth r3,r3
 560              	 .loc 2 157 8
 561 0028 002B     	 cmp r3,#0
 562 002a 08D0     	 beq .L21
 158:../Dave/Generated/BUS_IO/bus_io.c ****     {
 159:../Dave/Generated/BUS_IO/bus_io.c ****       XMC_GPIO_SetOutputLevel(bus_io_port_pin->gpio_port, bus_io_port_pin->gpio_pin, XMC_GPIO_OUTPU
 563              	 .loc 2 159 7
 564 002c BB68     	 ldr r3,[r7,#8]
 565 002e 1868     	 ldr r0,[r3]
 566 0030 BB68     	 ldr r3,[r7,#8]
 567 0032 1B79     	 ldrb r3,[r3,#4]
 568 0034 0122     	 movs r2,#1
 569 0036 1946     	 mov r1,r3
 570 0038 FFF7FEFF 	 bl XMC_GPIO_SetOutputLevel
 571 003c 08E0     	 b .L22
 572              	.L21:
 160:../Dave/Generated/BUS_IO/bus_io.c ****     }
 161:../Dave/Generated/BUS_IO/bus_io.c ****     else
 162:../Dave/Generated/BUS_IO/bus_io.c ****     {
 163:../Dave/Generated/BUS_IO/bus_io.c ****       XMC_GPIO_SetOutputLevel(bus_io_port_pin->gpio_port, bus_io_port_pin->gpio_pin, XMC_GPIO_OUTPU
 573              	 .loc 2 163 7
 574 003e BB68     	 ldr r3,[r7,#8]
 575 0040 1868     	 ldr r0,[r3]
 576 0042 BB68     	 ldr r3,[r7,#8]
 577 0044 1B79     	 ldrb r3,[r3,#4]
 578 0046 4FF48032 	 mov r2,#65536
 579 004a 1946     	 mov r1,r3
 580 004c FFF7FEFF 	 bl XMC_GPIO_SetOutputLevel
 581              	.L22:
 164:../Dave/Generated/BUS_IO/bus_io.c ****     }
 165:../Dave/Generated/BUS_IO/bus_io.c ****    bus_io_port_pin++;
 582              	 .loc 2 165 19 discriminator 2
 583 0050 BB68     	 ldr r3,[r7,#8]
 584 0052 0833     	 adds r3,r3,#8
 585 0054 BB60     	 str r3,[r7,#8]
 155:../Dave/Generated/BUS_IO/bus_io.c ****   {
 586              	 .loc 2 155 49 discriminator 2
 587 0056 FB7B     	 ldrb r3,[r7,#15]
 588 0058 0133     	 adds r3,r3,#1
 589 005a FB73     	 strb r3,[r7,#15]
 590              	.L20:
 155:../Dave/Generated/BUS_IO/bus_io.c ****   {
 591              	 .loc 2 155 30 discriminator 1
 592 005c 7B68     	 ldr r3,[r7,#4]
 593 005e 1B7C     	 ldrb r3,[r3,#16]
 155:../Dave/Generated/BUS_IO/bus_io.c ****   {
 594              	 .loc 2 155 3 discriminator 1
 595 0060 FA7B     	 ldrb r2,[r7,#15]
 596 0062 9A42     	 cmp r2,r3
 597 0064 D8D3     	 bcc .L23
 166:../Dave/Generated/BUS_IO/bus_io.c ****   }
 167:../Dave/Generated/BUS_IO/bus_io.c **** }
 598              	 .loc 2 167 1
 599 0066 00BF     	 nop
 600 0068 00BF     	 nop
 601 006a 1037     	 adds r7,r7,#16
 602              	.LCFI42:
 603              	 .cfi_def_cfa_offset 8
 604 006c BD46     	 mov sp,r7
 605              	.LCFI43:
 606              	 .cfi_def_cfa_register 13
 607              	 
 608 006e 80BD     	 pop {r7,pc}
 609              	 .cfi_endproc
 610              	.LFE147:
 612              	 .section .text.BUS_IO_Toggle,"ax",%progbits
 613              	 .align 1
 614              	 .global BUS_IO_Toggle
 615              	 .syntax unified
 616              	 .thumb
 617              	 .thumb_func
 618              	 .fpu fpv4-sp-d16
 620              	BUS_IO_Toggle:
 621              	.LFB148:
 168:../Dave/Generated/BUS_IO/bus_io.c **** 
 169:../Dave/Generated/BUS_IO/bus_io.c **** /* Function to Toggles the pins bus state */
 170:../Dave/Generated/BUS_IO/bus_io.c **** void BUS_IO_Toggle(BUS_IO_t *const handle_ptr)
 171:../Dave/Generated/BUS_IO/bus_io.c **** {
 622              	 .loc 2 171 1
 623              	 .cfi_startproc
 624              	 
 625              	 
 626 0000 80B5     	 push {r7,lr}
 627              	.LCFI44:
 628              	 .cfi_def_cfa_offset 8
 629              	 .cfi_offset 7,-8
 630              	 .cfi_offset 14,-4
 631 0002 84B0     	 sub sp,sp,#16
 632              	.LCFI45:
 633              	 .cfi_def_cfa_offset 24
 634 0004 00AF     	 add r7,sp,#0
 635              	.LCFI46:
 636              	 .cfi_def_cfa_register 7
 637 0006 7860     	 str r0,[r7,#4]
 172:../Dave/Generated/BUS_IO/bus_io.c ****   uint8_t i;
 173:../Dave/Generated/BUS_IO/bus_io.c **** 
 174:../Dave/Generated/BUS_IO/bus_io.c ****   XMC_ASSERT("BUS_IO_Toggle: handle_ptr null pointer", handle_ptr != NULL);
 175:../Dave/Generated/BUS_IO/bus_io.c **** 
 176:../Dave/Generated/BUS_IO/bus_io.c ****   /* Iterate the list of pins toggling the pin state */
 177:../Dave/Generated/BUS_IO/bus_io.c ****   for (i = 0U; i < handle_ptr->number_of_pins; i++)
 638              	 .loc 2 177 10
 639 0008 0023     	 movs r3,#0
 640 000a FB73     	 strb r3,[r7,#15]
 641              	 .loc 2 177 3
 642 000c 11E0     	 b .L25
 643              	.L26:
 178:../Dave/Generated/BUS_IO/bus_io.c ****   {
 179:../Dave/Generated/BUS_IO/bus_io.c ****     /* Toggles the pins bus state */
 180:../Dave/Generated/BUS_IO/bus_io.c ****     XMC_GPIO_ToggleOutput(handle_ptr->pin_array[i].gpio_port, handle_ptr->pin_array[i].gpio_pin);
 644              	 .loc 2 180 37 discriminator 3
 645 000e 7B68     	 ldr r3,[r7,#4]
 646 0010 1A68     	 ldr r2,[r3]
 647              	 .loc 2 180 48 discriminator 3
 648 0012 FB7B     	 ldrb r3,[r7,#15]
 649 0014 DB00     	 lsls r3,r3,#3
 650 0016 1344     	 add r3,r3,r2
 651              	 .loc 2 180 5 discriminator 3
 652 0018 1868     	 ldr r0,[r3]
 653              	 .loc 2 180 73 discriminator 3
 654 001a 7B68     	 ldr r3,[r7,#4]
 655 001c 1A68     	 ldr r2,[r3]
 656              	 .loc 2 180 84 discriminator 3
 657 001e FB7B     	 ldrb r3,[r7,#15]
 658 0020 DB00     	 lsls r3,r3,#3
 659 0022 1344     	 add r3,r3,r2
 660              	 .loc 2 180 5 discriminator 3
 661 0024 1B79     	 ldrb r3,[r3,#4]
 662 0026 1946     	 mov r1,r3
 663 0028 FFF7FEFF 	 bl XMC_GPIO_ToggleOutput
 177:../Dave/Generated/BUS_IO/bus_io.c ****   {
 664              	 .loc 2 177 49 discriminator 3
 665 002c FB7B     	 ldrb r3,[r7,#15]
 666 002e 0133     	 adds r3,r3,#1
 667 0030 FB73     	 strb r3,[r7,#15]
 668              	.L25:
 177:../Dave/Generated/BUS_IO/bus_io.c ****   {
 669              	 .loc 2 177 30 discriminator 1
 670 0032 7B68     	 ldr r3,[r7,#4]
 671 0034 1B7C     	 ldrb r3,[r3,#16]
 177:../Dave/Generated/BUS_IO/bus_io.c ****   {
 672              	 .loc 2 177 3 discriminator 1
 673 0036 FA7B     	 ldrb r2,[r7,#15]
 674 0038 9A42     	 cmp r2,r3
 675 003a E8D3     	 bcc .L26
 181:../Dave/Generated/BUS_IO/bus_io.c ****   }
 182:../Dave/Generated/BUS_IO/bus_io.c **** }
 676              	 .loc 2 182 1
 677 003c 00BF     	 nop
 678 003e 00BF     	 nop
 679 0040 1037     	 adds r7,r7,#16
 680              	.LCFI47:
 681              	 .cfi_def_cfa_offset 8
 682 0042 BD46     	 mov sp,r7
 683              	.LCFI48:
 684              	 .cfi_def_cfa_register 13
 685              	 
 686 0044 80BD     	 pop {r7,pc}
 687              	 .cfi_endproc
 688              	.LFE148:
 690              	 .text
 691              	.Letext0:
 692              	 .file 3 "c:\\program files (x86)\\gnu arm embedded toolchain\\10 2020-q4-major\\arm-none-eabi\\include\\machine\\_default_types.h"
 693              	 .file 4 "c:\\program files (x86)\\gnu arm embedded toolchain\\10 2020-q4-major\\arm-none-eabi\\include\\sys\\_stdint.h"
 694              	 .file 5 "C:/Workspaces/DAVE-4.4.2-64Bit/_PKDS_TSTS06_811_X47_V1_0/Libraries/XMCLib/inc/xmc4_gpio.h"
 695              	 .file 6 "C:/Workspaces/DAVE-4.4.2-64Bit/_PKDS_TSTS06_811_X47_V1_0/Dave/Generated/DAVE_Common.h"
 696              	 .file 7 "../Dave/Generated/BUS_IO/bus_io.h"