   1              	 .cpu cortex-m4
   2              	 .eabi_attribute 27,1
   3              	 .eabi_attribute 20,1
   4              	 .eabi_attribute 21,1
   5              	 .eabi_attribute 23,3
   6              	 .eabi_attribute 24,1
   7              	 .eabi_attribute 25,1
   8              	 .eabi_attribute 26,1
   9              	 .eabi_attribute 30,6
  10              	 .eabi_attribute 34,1
  11              	 .eabi_attribute 18,4
  12              	 .file "xmc_gpio.c"
  13              	 .text
  14              	.Ltext0:
  15              	 .cfi_sections .debug_frame
  16              	 .section .text.XMC_GPIO_SetMode,"ax",%progbits
  17              	 .align 1
  18              	 .global XMC_GPIO_SetMode
  19              	 .arch armv7e-m
  20              	 .syntax unified
  21              	 .thumb
  22              	 .thumb_func
  23              	 .fpu fpv4-sp-d16
  25              	XMC_GPIO_SetMode:
  26              	.LFB143:
  27              	 .file 1 "../Libraries/XMCLib/src/xmc_gpio.c"
   1:../Libraries/XMCLib/src/xmc_gpio.c **** /**
   2:../Libraries/XMCLib/src/xmc_gpio.c ****  * @file xmc_gpio.c
   3:../Libraries/XMCLib/src/xmc_gpio.c ****  * @date 2019-12-16
   4:../Libraries/XMCLib/src/xmc_gpio.c ****  *
   5:../Libraries/XMCLib/src/xmc_gpio.c ****  * @cond
   6:../Libraries/XMCLib/src/xmc_gpio.c ****  *****************************************************************************
   7:../Libraries/XMCLib/src/xmc_gpio.c ****  * XMClib v2.2.0 - XMC Peripheral Driver Library
   8:../Libraries/XMCLib/src/xmc_gpio.c ****  *
   9:../Libraries/XMCLib/src/xmc_gpio.c ****  * Copyright (c) 2015-2020, Infineon Technologies AG
  10:../Libraries/XMCLib/src/xmc_gpio.c ****  * All rights reserved.
  11:../Libraries/XMCLib/src/xmc_gpio.c ****  *
  12:../Libraries/XMCLib/src/xmc_gpio.c ****  * Boost Software License - Version 1.0 - August 17th, 2003
  13:../Libraries/XMCLib/src/xmc_gpio.c ****  *
  14:../Libraries/XMCLib/src/xmc_gpio.c ****  * Permission is hereby granted, free of charge, to any person or organization
  15:../Libraries/XMCLib/src/xmc_gpio.c ****  * obtaining a copy of the software and accompanying documentation covered by
  16:../Libraries/XMCLib/src/xmc_gpio.c ****  * this license (the "Software") to use, reproduce, display, distribute,
  17:../Libraries/XMCLib/src/xmc_gpio.c ****  * execute, and transmit the Software, and to prepare derivative works of the
  18:../Libraries/XMCLib/src/xmc_gpio.c ****  * Software, and to permit third-parties to whom the Software is furnished to
  19:../Libraries/XMCLib/src/xmc_gpio.c ****  * do so, all subject to the following:
  20:../Libraries/XMCLib/src/xmc_gpio.c ****  *
  21:../Libraries/XMCLib/src/xmc_gpio.c ****  * The copyright notices in the Software and this entire statement, including
  22:../Libraries/XMCLib/src/xmc_gpio.c ****  * the above license grant, this restriction and the following disclaimer,
  23:../Libraries/XMCLib/src/xmc_gpio.c ****  * must be included in all copies of the Software, in whole or in part, and
  24:../Libraries/XMCLib/src/xmc_gpio.c ****  * all derivative works of the Software, unless such copies or derivative
  25:../Libraries/XMCLib/src/xmc_gpio.c ****  * works are solely in the form of machine-executable object code generated by
  26:../Libraries/XMCLib/src/xmc_gpio.c ****  * a source language processor.
  27:../Libraries/XMCLib/src/xmc_gpio.c ****  *
  28:../Libraries/XMCLib/src/xmc_gpio.c ****  * THE SOFTWARE IS PROVIDED "AS IS", WITHOUT WARRANTY OF ANY KIND, EXPRESS OR
  29:../Libraries/XMCLib/src/xmc_gpio.c ****  * IMPLIED, INCLUDING BUT NOT LIMITED TO THE WARRANTIES OF MERCHANTABILITY,
  30:../Libraries/XMCLib/src/xmc_gpio.c ****  * FITNESS FOR A PARTICULAR PURPOSE, TITLE AND NON-INFRINGEMENT. IN NO EVENT
  31:../Libraries/XMCLib/src/xmc_gpio.c ****  * SHALL THE COPYRIGHT HOLDERS OR ANYONE DISTRIBUTING THE SOFTWARE BE LIABLE
  32:../Libraries/XMCLib/src/xmc_gpio.c ****  * FOR ANY DAMAGES OR OTHER LIABILITY, WHETHER IN CONTRACT, TORT OR OTHERWISE,
  33:../Libraries/XMCLib/src/xmc_gpio.c ****  * ARISING FROM, OUT OF OR IN CONNECTION WITH THE SOFTWARE OR THE USE OR OTHER
  34:../Libraries/XMCLib/src/xmc_gpio.c ****  * DEALINGS IN THE SOFTWARE.
  35:../Libraries/XMCLib/src/xmc_gpio.c ****  *
  36:../Libraries/XMCLib/src/xmc_gpio.c ****  * To improve the quality of the software, users are encouraged to share
  37:../Libraries/XMCLib/src/xmc_gpio.c ****  * modifications, enhancements or bug fixes with Infineon Technologies AG
  38:../Libraries/XMCLib/src/xmc_gpio.c ****  * at XMCSupport@infineon.com.
  39:../Libraries/XMCLib/src/xmc_gpio.c ****  *****************************************************************************
  40:../Libraries/XMCLib/src/xmc_gpio.c ****  *
  41:../Libraries/XMCLib/src/xmc_gpio.c ****  * Change History
  42:../Libraries/XMCLib/src/xmc_gpio.c ****  * --------------
  43:../Libraries/XMCLib/src/xmc_gpio.c ****  *
  44:../Libraries/XMCLib/src/xmc_gpio.c ****  * 2015-02-20:
  45:../Libraries/XMCLib/src/xmc_gpio.c ****  *     - Initial draft <br>
  46:../Libraries/XMCLib/src/xmc_gpio.c ****  *
  47:../Libraries/XMCLib/src/xmc_gpio.c ****  * 2015-06-20:
  48:../Libraries/XMCLib/src/xmc_gpio.c ****  *     - Removed version macros and declaration of GetDriverVersion API
  49:../Libraries/XMCLib/src/xmc_gpio.c ****  *
  50:../Libraries/XMCLib/src/xmc_gpio.c ****  * 2019-12-16:
  51:../Libraries/XMCLib/src/xmc_gpio.c ****  *     - Fix including files following the convention: angle brackets are used for standard include
  52:../Libraries/XMCLib/src/xmc_gpio.c ****  *
  53:../Libraries/XMCLib/src/xmc_gpio.c ****  * @endcond
  54:../Libraries/XMCLib/src/xmc_gpio.c ****  *
  55:../Libraries/XMCLib/src/xmc_gpio.c ****  */
  56:../Libraries/XMCLib/src/xmc_gpio.c **** 
  57:../Libraries/XMCLib/src/xmc_gpio.c **** /*******************************************************************************
  58:../Libraries/XMCLib/src/xmc_gpio.c ****  * HEADER FILES
  59:../Libraries/XMCLib/src/xmc_gpio.c ****  *******************************************************************************/
  60:../Libraries/XMCLib/src/xmc_gpio.c **** 
  61:../Libraries/XMCLib/src/xmc_gpio.c **** #include "xmc_gpio.h"
  62:../Libraries/XMCLib/src/xmc_gpio.c **** 
  63:../Libraries/XMCLib/src/xmc_gpio.c **** /*******************************************************************************
  64:../Libraries/XMCLib/src/xmc_gpio.c ****  * MACROS
  65:../Libraries/XMCLib/src/xmc_gpio.c ****  *******************************************************************************/
  66:../Libraries/XMCLib/src/xmc_gpio.c **** 
  67:../Libraries/XMCLib/src/xmc_gpio.c **** #define PORT_HWSEL_Msk PORT0_HWSEL_HW0_Msk
  68:../Libraries/XMCLib/src/xmc_gpio.c **** 
  69:../Libraries/XMCLib/src/xmc_gpio.c **** /*******************************************************************************
  70:../Libraries/XMCLib/src/xmc_gpio.c ****  * API IMPLEMENTATION
  71:../Libraries/XMCLib/src/xmc_gpio.c ****  *******************************************************************************/
  72:../Libraries/XMCLib/src/xmc_gpio.c **** 
  73:../Libraries/XMCLib/src/xmc_gpio.c **** void XMC_GPIO_SetMode(XMC_GPIO_PORT_t *const port, const uint8_t pin, const XMC_GPIO_MODE_t mode)
  74:../Libraries/XMCLib/src/xmc_gpio.c **** {
  28              	 .loc 1 74 1
  29              	 .cfi_startproc
  30              	 
  31              	 
  32              	 
  33 0000 80B4     	 push {r7}
  34              	.LCFI0:
  35              	 .cfi_def_cfa_offset 4
  36              	 .cfi_offset 7,-4
  37 0002 83B0     	 sub sp,sp,#12
  38              	.LCFI1:
  39              	 .cfi_def_cfa_offset 16
  40 0004 00AF     	 add r7,sp,#0
  41              	.LCFI2:
  42              	 .cfi_def_cfa_register 7
  43 0006 7860     	 str r0,[r7,#4]
  44 0008 0B46     	 mov r3,r1
  45 000a FB70     	 strb r3,[r7,#3]
  46 000c 1346     	 mov r3,r2
  47 000e BB70     	 strb r3,[r7,#2]
  75:../Libraries/XMCLib/src/xmc_gpio.c ****   XMC_ASSERT("XMC_GPIO_SetMode: Invalid port", XMC_GPIO_CHECK_PORT(port));
  76:../Libraries/XMCLib/src/xmc_gpio.c ****   XMC_ASSERT("XMC_GPIO_SetMode: Invalid mode", XMC_GPIO_IsModeValid(mode));
  77:../Libraries/XMCLib/src/xmc_gpio.c **** 
  78:../Libraries/XMCLib/src/xmc_gpio.c ****   port->IOCR[(uint32_t)pin >> 2U] &= ~(uint32_t)((uint32_t)PORT_IOCR_PC_Msk << ((uint32_t)PORT_IOCR
  48              	 .loc 1 78 28
  49 0010 FB78     	 ldrb r3,[r7,#3]
  50 0012 9B08     	 lsrs r3,r3,#2
  51 0014 DBB2     	 uxtb r3,r3
  52 0016 1A46     	 mov r2,r3
  53              	 .loc 1 78 35
  54 0018 7B68     	 ldr r3,[r7,#4]
  55 001a 0432     	 adds r2,r2,#4
  56 001c 53F82220 	 ldr r2,[r3,r2,lsl#2]
  57              	 .loc 1 78 126
  58 0020 FB78     	 ldrb r3,[r7,#3]
  59 0022 03F00303 	 and r3,r3,#3
  60              	 .loc 1 78 109
  61 0026 DB00     	 lsls r3,r3,#3
  62              	 .loc 1 78 39
  63 0028 F821     	 movs r1,#248
  64 002a 01FA03F3 	 lsl r3,r1,r3
  65              	 .loc 1 78 38
  66 002e DB43     	 mvns r3,r3
  67              	 .loc 1 78 28
  68 0030 F978     	 ldrb r1,[r7,#3]
  69 0032 8908     	 lsrs r1,r1,#2
  70 0034 C9B2     	 uxtb r1,r1
  71 0036 0846     	 mov r0,r1
  72              	 .loc 1 78 35
  73 0038 02EA0301 	 and r1,r2,r3
  74 003c 7B68     	 ldr r3,[r7,#4]
  75 003e 021D     	 adds r2,r0,#4
  76 0040 43F82210 	 str r1,[r3,r2,lsl#2]
  79:../Libraries/XMCLib/src/xmc_gpio.c ****   port->IOCR[(uint32_t)pin >> 2U] |= (uint32_t)mode << ((uint32_t)PORT_IOCR_PC_Size * ((uint32_t)pi
  77              	 .loc 1 79 28
  78 0044 FB78     	 ldrb r3,[r7,#3]
  79 0046 9B08     	 lsrs r3,r3,#2
  80 0048 DBB2     	 uxtb r3,r3
  81 004a 1A46     	 mov r2,r3
  82              	 .loc 1 79 35
  83 004c 7B68     	 ldr r3,[r7,#4]
  84 004e 0432     	 adds r2,r2,#4
  85 0050 53F82220 	 ldr r2,[r3,r2,lsl#2]
  86              	 .loc 1 79 38
  87 0054 B978     	 ldrb r1,[r7,#2]
  88              	 .loc 1 79 102
  89 0056 FB78     	 ldrb r3,[r7,#3]
  90 0058 03F00303 	 and r3,r3,#3
  91              	 .loc 1 79 85
  92 005c DB00     	 lsls r3,r3,#3
  93              	 .loc 1 79 53
  94 005e 01FA03F3 	 lsl r3,r1,r3
  95              	 .loc 1 79 28
  96 0062 F978     	 ldrb r1,[r7,#3]
  97 0064 8908     	 lsrs r1,r1,#2
  98 0066 C9B2     	 uxtb r1,r1
  99 0068 0846     	 mov r0,r1
 100              	 .loc 1 79 35
 101 006a 42EA0301 	 orr r1,r2,r3
 102 006e 7B68     	 ldr r3,[r7,#4]
 103 0070 021D     	 adds r2,r0,#4
 104 0072 43F82210 	 str r1,[r3,r2,lsl#2]
  80:../Libraries/XMCLib/src/xmc_gpio.c **** }
 105              	 .loc 1 80 1
 106 0076 00BF     	 nop
 107 0078 0C37     	 adds r7,r7,#12
 108              	.LCFI3:
 109              	 .cfi_def_cfa_offset 4
 110 007a BD46     	 mov sp,r7
 111              	.LCFI4:
 112              	 .cfi_def_cfa_register 13
 113              	 
 114 007c 5DF8047B 	 ldr r7,[sp],#4
 115              	.LCFI5:
 116              	 .cfi_restore 7
 117              	 .cfi_def_cfa_offset 0
 118 0080 7047     	 bx lr
 119              	 .cfi_endproc
 120              	.LFE143:
 122              	 .section .text.XMC_GPIO_SetHardwareControl,"ax",%progbits
 123              	 .align 1
 124              	 .global XMC_GPIO_SetHardwareControl
 125              	 .syntax unified
 126              	 .thumb
 127              	 .thumb_func
 128              	 .fpu fpv4-sp-d16
 130              	XMC_GPIO_SetHardwareControl:
 131              	.LFB144:
  81:../Libraries/XMCLib/src/xmc_gpio.c **** 
  82:../Libraries/XMCLib/src/xmc_gpio.c **** void XMC_GPIO_SetHardwareControl(XMC_GPIO_PORT_t *const port, const uint8_t pin, const XMC_GPIO_HWC
  83:../Libraries/XMCLib/src/xmc_gpio.c **** {
 132              	 .loc 1 83 1
 133              	 .cfi_startproc
 134              	 
 135              	 
 136              	 
 137 0000 80B4     	 push {r7}
 138              	.LCFI6:
 139              	 .cfi_def_cfa_offset 4
 140              	 .cfi_offset 7,-4
 141 0002 83B0     	 sub sp,sp,#12
 142              	.LCFI7:
 143              	 .cfi_def_cfa_offset 16
 144 0004 00AF     	 add r7,sp,#0
 145              	.LCFI8:
 146              	 .cfi_def_cfa_register 7
 147 0006 7860     	 str r0,[r7,#4]
 148 0008 0B46     	 mov r3,r1
 149 000a FB70     	 strb r3,[r7,#3]
 150 000c 1346     	 mov r3,r2
 151 000e BB70     	 strb r3,[r7,#2]
  84:../Libraries/XMCLib/src/xmc_gpio.c ****   XMC_ASSERT("XMC_GPIO_SetHardwareControl: Invalid port", XMC_GPIO_CHECK_PORT(port));
  85:../Libraries/XMCLib/src/xmc_gpio.c ****   XMC_ASSERT("XMC_GPIO_SetHardwareControl: Invalid hwctrl", XMC_GPIO_CHECK_HWCTRL(hwctrl));
  86:../Libraries/XMCLib/src/xmc_gpio.c **** 
  87:../Libraries/XMCLib/src/xmc_gpio.c ****   port->HWSEL &= ~(uint32_t)((uint32_t)PORT_HWSEL_Msk << ((uint32_t)pin << 1U));
 152              	 .loc 1 87 15
 153 0010 7B68     	 ldr r3,[r7,#4]
 154 0012 5A6F     	 ldr r2,[r3,#116]
 155              	 .loc 1 87 59
 156 0014 FB78     	 ldrb r3,[r7,#3]
 157              	 .loc 1 87 73
 158 0016 5B00     	 lsls r3,r3,#1
 159              	 .loc 1 87 19
 160 0018 0321     	 movs r1,#3
 161 001a 01FA03F3 	 lsl r3,r1,r3
 162              	 .loc 1 87 18
 163 001e DB43     	 mvns r3,r3
 164              	 .loc 1 87 15
 165 0020 1A40     	 ands r2,r2,r3
 166 0022 7B68     	 ldr r3,[r7,#4]
 167 0024 5A67     	 str r2,[r3,#116]
  88:../Libraries/XMCLib/src/xmc_gpio.c ****   port->HWSEL |= (uint32_t)hwctrl << ((uint32_t)pin << 1U);
 168              	 .loc 1 88 15
 169 0026 7B68     	 ldr r3,[r7,#4]
 170 0028 5A6F     	 ldr r2,[r3,#116]
 171              	 .loc 1 88 18
 172 002a B978     	 ldrb r1,[r7,#2]
 173              	 .loc 1 88 39
 174 002c FB78     	 ldrb r3,[r7,#3]
 175              	 .loc 1 88 53
 176 002e 5B00     	 lsls r3,r3,#1
 177              	 .loc 1 88 35
 178 0030 01FA03F3 	 lsl r3,r1,r3
 179              	 .loc 1 88 15
 180 0034 1A43     	 orrs r2,r2,r3
 181 0036 7B68     	 ldr r3,[r7,#4]
 182 0038 5A67     	 str r2,[r3,#116]
  89:../Libraries/XMCLib/src/xmc_gpio.c **** }
 183              	 .loc 1 89 1
 184 003a 00BF     	 nop
 185 003c 0C37     	 adds r7,r7,#12
 186              	.LCFI9:
 187              	 .cfi_def_cfa_offset 4
 188 003e BD46     	 mov sp,r7
 189              	.LCFI10:
 190              	 .cfi_def_cfa_register 13
 191              	 
 192 0040 5DF8047B 	 ldr r7,[sp],#4
 193              	.LCFI11:
 194              	 .cfi_restore 7
 195              	 .cfi_def_cfa_offset 0
 196 0044 7047     	 bx lr
 197              	 .cfi_endproc
 198              	.LFE144:
 200              	 .text
 201              	.Letext0:
 202              	 .file 2 "c:\\program files (x86)\\gnu arm embedded toolchain\\10 2020-q4-major\\arm-none-eabi\\include\\machine\\_default_types.h"
 203              	 .file 3 "c:\\program files (x86)\\gnu arm embedded toolchain\\10 2020-q4-major\\arm-none-eabi\\include\\sys\\_stdint.h"
 204              	 .file 4 "C:/Workspaces/DAVE-4.4.2-64Bit/_PKDS_TSTS06_811_X47_V1_0/Libraries/XMCLib/inc/xmc_gpio.h"
 205              	 .file 5 "C:/Workspaces/DAVE-4.4.2-64Bit/_PKDS_TSTS06_811_X47_V1_0/Libraries/XMCLib/inc/xmc4_gpio.h"