   1              	 .cpu cortex-m4
   2              	 .eabi_attribute 27,1
   3              	 .eabi_attribute 20,1
   4              	 .eabi_attribute 21,1
   5              	 .eabi_attribute 23,3
   6              	 .eabi_attribute 24,1
   7              	 .eabi_attribute 25,1
   8              	 .eabi_attribute 26,1
   9              	 .eabi_attribute 30,6
  10              	 .eabi_attribute 34,1
  11              	 .eabi_attribute 18,4
  12              	 .file "xmc_dac.c"
  13              	 .text
  14              	.Ltext0:
  15              	 .cfi_sections .debug_frame
  16              	 .section .text.XMC_DAC_CH_EnableOutput,"ax",%progbits
  17              	 .align 1
  18              	 .arch armv7e-m
  19              	 .syntax unified
  20              	 .thumb
  21              	 .thumb_func
  22              	 .fpu fpv4-sp-d16
  24              	XMC_DAC_CH_EnableOutput:
  25              	.LFB136:
  26              	 .file 1 "C:/Workspaces/DAVE-4.4.2-64Bit/_PKDS_TSTS06_811_X47_V1_0/Libraries/XMCLib/inc/xmc_dac.h"
   1:C:/Workspaces/DAVE-4.4.2-64Bit/_PKDS_TSTS06_811_X47_V1_0/Libraries/XMCLib/inc\xmc_dac.h **** /**
   2:C:/Workspaces/DAVE-4.4.2-64Bit/_PKDS_TSTS06_811_X47_V1_0/Libraries/XMCLib/inc\xmc_dac.h ****  * @file xmc_dac.h
   3:C:/Workspaces/DAVE-4.4.2-64Bit/_PKDS_TSTS06_811_X47_V1_0/Libraries/XMCLib/inc\xmc_dac.h ****  * @date 2012-12-16
   4:C:/Workspaces/DAVE-4.4.2-64Bit/_PKDS_TSTS06_811_X47_V1_0/Libraries/XMCLib/inc\xmc_dac.h ****  *
   5:C:/Workspaces/DAVE-4.4.2-64Bit/_PKDS_TSTS06_811_X47_V1_0/Libraries/XMCLib/inc\xmc_dac.h ****  * @cond
   6:C:/Workspaces/DAVE-4.4.2-64Bit/_PKDS_TSTS06_811_X47_V1_0/Libraries/XMCLib/inc\xmc_dac.h ****  *****************************************************************************
   7:C:/Workspaces/DAVE-4.4.2-64Bit/_PKDS_TSTS06_811_X47_V1_0/Libraries/XMCLib/inc\xmc_dac.h ****  * XMClib v2.2.0 - XMC Peripheral Driver Library
   8:C:/Workspaces/DAVE-4.4.2-64Bit/_PKDS_TSTS06_811_X47_V1_0/Libraries/XMCLib/inc\xmc_dac.h ****  *
   9:C:/Workspaces/DAVE-4.4.2-64Bit/_PKDS_TSTS06_811_X47_V1_0/Libraries/XMCLib/inc\xmc_dac.h ****  * Copyright (c) 2015-2020, Infineon Technologies AG
  10:C:/Workspaces/DAVE-4.4.2-64Bit/_PKDS_TSTS06_811_X47_V1_0/Libraries/XMCLib/inc\xmc_dac.h ****  * All rights reserved.
  11:C:/Workspaces/DAVE-4.4.2-64Bit/_PKDS_TSTS06_811_X47_V1_0/Libraries/XMCLib/inc\xmc_dac.h ****  *
  12:C:/Workspaces/DAVE-4.4.2-64Bit/_PKDS_TSTS06_811_X47_V1_0/Libraries/XMCLib/inc\xmc_dac.h ****  * Boost Software License - Version 1.0 - August 17th, 2003
  13:C:/Workspaces/DAVE-4.4.2-64Bit/_PKDS_TSTS06_811_X47_V1_0/Libraries/XMCLib/inc\xmc_dac.h ****  *
  14:C:/Workspaces/DAVE-4.4.2-64Bit/_PKDS_TSTS06_811_X47_V1_0/Libraries/XMCLib/inc\xmc_dac.h ****  * Permission is hereby granted, free of charge, to any person or organization
  15:C:/Workspaces/DAVE-4.4.2-64Bit/_PKDS_TSTS06_811_X47_V1_0/Libraries/XMCLib/inc\xmc_dac.h ****  * obtaining a copy of the software and accompanying documentation covered by
  16:C:/Workspaces/DAVE-4.4.2-64Bit/_PKDS_TSTS06_811_X47_V1_0/Libraries/XMCLib/inc\xmc_dac.h ****  * this license (the "Software") to use, reproduce, display, distribute,
  17:C:/Workspaces/DAVE-4.4.2-64Bit/_PKDS_TSTS06_811_X47_V1_0/Libraries/XMCLib/inc\xmc_dac.h ****  * execute, and transmit the Software, and to prepare derivative works of the
  18:C:/Workspaces/DAVE-4.4.2-64Bit/_PKDS_TSTS06_811_X47_V1_0/Libraries/XMCLib/inc\xmc_dac.h ****  * Software, and to permit third-parties to whom the Software is furnished to
  19:C:/Workspaces/DAVE-4.4.2-64Bit/_PKDS_TSTS06_811_X47_V1_0/Libraries/XMCLib/inc\xmc_dac.h ****  * do so, all subject to the following:
  20:C:/Workspaces/DAVE-4.4.2-64Bit/_PKDS_TSTS06_811_X47_V1_0/Libraries/XMCLib/inc\xmc_dac.h ****  *
  21:C:/Workspaces/DAVE-4.4.2-64Bit/_PKDS_TSTS06_811_X47_V1_0/Libraries/XMCLib/inc\xmc_dac.h ****  * The copyright notices in the Software and this entire statement, including
  22:C:/Workspaces/DAVE-4.4.2-64Bit/_PKDS_TSTS06_811_X47_V1_0/Libraries/XMCLib/inc\xmc_dac.h ****  * the above license grant, this restriction and the following disclaimer,
  23:C:/Workspaces/DAVE-4.4.2-64Bit/_PKDS_TSTS06_811_X47_V1_0/Libraries/XMCLib/inc\xmc_dac.h ****  * must be included in all copies of the Software, in whole or in part, and
  24:C:/Workspaces/DAVE-4.4.2-64Bit/_PKDS_TSTS06_811_X47_V1_0/Libraries/XMCLib/inc\xmc_dac.h ****  * all derivative works of the Software, unless such copies or derivative
  25:C:/Workspaces/DAVE-4.4.2-64Bit/_PKDS_TSTS06_811_X47_V1_0/Libraries/XMCLib/inc\xmc_dac.h ****  * works are solely in the form of machine-executable object code generated by
  26:C:/Workspaces/DAVE-4.4.2-64Bit/_PKDS_TSTS06_811_X47_V1_0/Libraries/XMCLib/inc\xmc_dac.h ****  * a source language processor.
  27:C:/Workspaces/DAVE-4.4.2-64Bit/_PKDS_TSTS06_811_X47_V1_0/Libraries/XMCLib/inc\xmc_dac.h ****  *
  28:C:/Workspaces/DAVE-4.4.2-64Bit/_PKDS_TSTS06_811_X47_V1_0/Libraries/XMCLib/inc\xmc_dac.h ****  * THE SOFTWARE IS PROVIDED "AS IS", WITHOUT WARRANTY OF ANY KIND, EXPRESS OR
  29:C:/Workspaces/DAVE-4.4.2-64Bit/_PKDS_TSTS06_811_X47_V1_0/Libraries/XMCLib/inc\xmc_dac.h ****  * IMPLIED, INCLUDING BUT NOT LIMITED TO THE WARRANTIES OF MERCHANTABILITY,
  30:C:/Workspaces/DAVE-4.4.2-64Bit/_PKDS_TSTS06_811_X47_V1_0/Libraries/XMCLib/inc\xmc_dac.h ****  * FITNESS FOR A PARTICULAR PURPOSE, TITLE AND NON-INFRINGEMENT. IN NO EVENT
  31:C:/Workspaces/DAVE-4.4.2-64Bit/_PKDS_TSTS06_811_X47_V1_0/Libraries/XMCLib/inc\xmc_dac.h ****  * SHALL THE COPYRIGHT HOLDERS OR ANYONE DISTRIBUTING THE SOFTWARE BE LIABLE
  32:C:/Workspaces/DAVE-4.4.2-64Bit/_PKDS_TSTS06_811_X47_V1_0/Libraries/XMCLib/inc\xmc_dac.h ****  * FOR ANY DAMAGES OR OTHER LIABILITY, WHETHER IN CONTRACT, TORT OR OTHERWISE,
  33:C:/Workspaces/DAVE-4.4.2-64Bit/_PKDS_TSTS06_811_X47_V1_0/Libraries/XMCLib/inc\xmc_dac.h ****  * ARISING FROM, OUT OF OR IN CONNECTION WITH THE SOFTWARE OR THE USE OR OTHER
  34:C:/Workspaces/DAVE-4.4.2-64Bit/_PKDS_TSTS06_811_X47_V1_0/Libraries/XMCLib/inc\xmc_dac.h ****  * DEALINGS IN THE SOFTWARE.
  35:C:/Workspaces/DAVE-4.4.2-64Bit/_PKDS_TSTS06_811_X47_V1_0/Libraries/XMCLib/inc\xmc_dac.h ****  *
  36:C:/Workspaces/DAVE-4.4.2-64Bit/_PKDS_TSTS06_811_X47_V1_0/Libraries/XMCLib/inc\xmc_dac.h ****  * To improve the quality of the software, users are encouraged to share
  37:C:/Workspaces/DAVE-4.4.2-64Bit/_PKDS_TSTS06_811_X47_V1_0/Libraries/XMCLib/inc\xmc_dac.h ****  * modifications, enhancements or bug fixes with Infineon Technologies AG
  38:C:/Workspaces/DAVE-4.4.2-64Bit/_PKDS_TSTS06_811_X47_V1_0/Libraries/XMCLib/inc\xmc_dac.h ****  * at XMCSupport@infineon.com.
  39:C:/Workspaces/DAVE-4.4.2-64Bit/_PKDS_TSTS06_811_X47_V1_0/Libraries/XMCLib/inc\xmc_dac.h ****  *****************************************************************************
  40:C:/Workspaces/DAVE-4.4.2-64Bit/_PKDS_TSTS06_811_X47_V1_0/Libraries/XMCLib/inc\xmc_dac.h ****  *
  41:C:/Workspaces/DAVE-4.4.2-64Bit/_PKDS_TSTS06_811_X47_V1_0/Libraries/XMCLib/inc\xmc_dac.h ****  * Change History
  42:C:/Workspaces/DAVE-4.4.2-64Bit/_PKDS_TSTS06_811_X47_V1_0/Libraries/XMCLib/inc\xmc_dac.h ****  * --------------
  43:C:/Workspaces/DAVE-4.4.2-64Bit/_PKDS_TSTS06_811_X47_V1_0/Libraries/XMCLib/inc\xmc_dac.h ****  *
  44:C:/Workspaces/DAVE-4.4.2-64Bit/_PKDS_TSTS06_811_X47_V1_0/Libraries/XMCLib/inc\xmc_dac.h ****  * 2015-02-18:
  45:C:/Workspaces/DAVE-4.4.2-64Bit/_PKDS_TSTS06_811_X47_V1_0/Libraries/XMCLib/inc\xmc_dac.h ****  *     - Initial version
  46:C:/Workspaces/DAVE-4.4.2-64Bit/_PKDS_TSTS06_811_X47_V1_0/Libraries/XMCLib/inc\xmc_dac.h ****  *
  47:C:/Workspaces/DAVE-4.4.2-64Bit/_PKDS_TSTS06_811_X47_V1_0/Libraries/XMCLib/inc\xmc_dac.h ****  * 2015-02-20:
  48:C:/Workspaces/DAVE-4.4.2-64Bit/_PKDS_TSTS06_811_X47_V1_0/Libraries/XMCLib/inc\xmc_dac.h ****  *     - Driver description added
  49:C:/Workspaces/DAVE-4.4.2-64Bit/_PKDS_TSTS06_811_X47_V1_0/Libraries/XMCLib/inc\xmc_dac.h ****  *
  50:C:/Workspaces/DAVE-4.4.2-64Bit/_PKDS_TSTS06_811_X47_V1_0/Libraries/XMCLib/inc\xmc_dac.h ****  * 2015-06-19:
  51:C:/Workspaces/DAVE-4.4.2-64Bit/_PKDS_TSTS06_811_X47_V1_0/Libraries/XMCLib/inc\xmc_dac.h ****  *     - Removed version macros and declaration of GetDriverVersion API
  52:C:/Workspaces/DAVE-4.4.2-64Bit/_PKDS_TSTS06_811_X47_V1_0/Libraries/XMCLib/inc\xmc_dac.h ****  *
  53:C:/Workspaces/DAVE-4.4.2-64Bit/_PKDS_TSTS06_811_X47_V1_0/Libraries/XMCLib/inc\xmc_dac.h ****  * 2015-08-31:
  54:C:/Workspaces/DAVE-4.4.2-64Bit/_PKDS_TSTS06_811_X47_V1_0/Libraries/XMCLib/inc\xmc_dac.h ****  *     - Help document updated
  55:C:/Workspaces/DAVE-4.4.2-64Bit/_PKDS_TSTS06_811_X47_V1_0/Libraries/XMCLib/inc\xmc_dac.h ****  *
  56:C:/Workspaces/DAVE-4.4.2-64Bit/_PKDS_TSTS06_811_X47_V1_0/Libraries/XMCLib/inc\xmc_dac.h ****  * 2019-12-16:
  57:C:/Workspaces/DAVE-4.4.2-64Bit/_PKDS_TSTS06_811_X47_V1_0/Libraries/XMCLib/inc\xmc_dac.h ****  *     - Fix including xmc_common.h following the convention: angle brackets are used for standard 
  58:C:/Workspaces/DAVE-4.4.2-64Bit/_PKDS_TSTS06_811_X47_V1_0/Libraries/XMCLib/inc\xmc_dac.h ****  *
  59:C:/Workspaces/DAVE-4.4.2-64Bit/_PKDS_TSTS06_811_X47_V1_0/Libraries/XMCLib/inc\xmc_dac.h ****  * @endcond
  60:C:/Workspaces/DAVE-4.4.2-64Bit/_PKDS_TSTS06_811_X47_V1_0/Libraries/XMCLib/inc\xmc_dac.h ****  *
  61:C:/Workspaces/DAVE-4.4.2-64Bit/_PKDS_TSTS06_811_X47_V1_0/Libraries/XMCLib/inc\xmc_dac.h ****  */
  62:C:/Workspaces/DAVE-4.4.2-64Bit/_PKDS_TSTS06_811_X47_V1_0/Libraries/XMCLib/inc\xmc_dac.h **** 
  63:C:/Workspaces/DAVE-4.4.2-64Bit/_PKDS_TSTS06_811_X47_V1_0/Libraries/XMCLib/inc\xmc_dac.h **** #ifndef XMC_DAC_H
  64:C:/Workspaces/DAVE-4.4.2-64Bit/_PKDS_TSTS06_811_X47_V1_0/Libraries/XMCLib/inc\xmc_dac.h **** #define XMC_DAC_H
  65:C:/Workspaces/DAVE-4.4.2-64Bit/_PKDS_TSTS06_811_X47_V1_0/Libraries/XMCLib/inc\xmc_dac.h **** 
  66:C:/Workspaces/DAVE-4.4.2-64Bit/_PKDS_TSTS06_811_X47_V1_0/Libraries/XMCLib/inc\xmc_dac.h **** /*******************************************************************************
  67:C:/Workspaces/DAVE-4.4.2-64Bit/_PKDS_TSTS06_811_X47_V1_0/Libraries/XMCLib/inc\xmc_dac.h ****  * HEADER FILES
  68:C:/Workspaces/DAVE-4.4.2-64Bit/_PKDS_TSTS06_811_X47_V1_0/Libraries/XMCLib/inc\xmc_dac.h ****  *******************************************************************************/
  69:C:/Workspaces/DAVE-4.4.2-64Bit/_PKDS_TSTS06_811_X47_V1_0/Libraries/XMCLib/inc\xmc_dac.h **** 
  70:C:/Workspaces/DAVE-4.4.2-64Bit/_PKDS_TSTS06_811_X47_V1_0/Libraries/XMCLib/inc\xmc_dac.h **** #include "xmc_common.h"
  71:C:/Workspaces/DAVE-4.4.2-64Bit/_PKDS_TSTS06_811_X47_V1_0/Libraries/XMCLib/inc\xmc_dac.h **** 
  72:C:/Workspaces/DAVE-4.4.2-64Bit/_PKDS_TSTS06_811_X47_V1_0/Libraries/XMCLib/inc\xmc_dac.h **** /* DAC peripheral is not available on XMC1X devices. */
  73:C:/Workspaces/DAVE-4.4.2-64Bit/_PKDS_TSTS06_811_X47_V1_0/Libraries/XMCLib/inc\xmc_dac.h **** #if defined(DAC)
  74:C:/Workspaces/DAVE-4.4.2-64Bit/_PKDS_TSTS06_811_X47_V1_0/Libraries/XMCLib/inc\xmc_dac.h **** 
  75:C:/Workspaces/DAVE-4.4.2-64Bit/_PKDS_TSTS06_811_X47_V1_0/Libraries/XMCLib/inc\xmc_dac.h **** /**
  76:C:/Workspaces/DAVE-4.4.2-64Bit/_PKDS_TSTS06_811_X47_V1_0/Libraries/XMCLib/inc\xmc_dac.h ****  * @addtogroup XMClib
  77:C:/Workspaces/DAVE-4.4.2-64Bit/_PKDS_TSTS06_811_X47_V1_0/Libraries/XMCLib/inc\xmc_dac.h ****  * @{
  78:C:/Workspaces/DAVE-4.4.2-64Bit/_PKDS_TSTS06_811_X47_V1_0/Libraries/XMCLib/inc\xmc_dac.h ****  */
  79:C:/Workspaces/DAVE-4.4.2-64Bit/_PKDS_TSTS06_811_X47_V1_0/Libraries/XMCLib/inc\xmc_dac.h **** 
  80:C:/Workspaces/DAVE-4.4.2-64Bit/_PKDS_TSTS06_811_X47_V1_0/Libraries/XMCLib/inc\xmc_dac.h **** /**
  81:C:/Workspaces/DAVE-4.4.2-64Bit/_PKDS_TSTS06_811_X47_V1_0/Libraries/XMCLib/inc\xmc_dac.h ****  * @addtogroup DAC
  82:C:/Workspaces/DAVE-4.4.2-64Bit/_PKDS_TSTS06_811_X47_V1_0/Libraries/XMCLib/inc\xmc_dac.h ****  * @{
  83:C:/Workspaces/DAVE-4.4.2-64Bit/_PKDS_TSTS06_811_X47_V1_0/Libraries/XMCLib/inc\xmc_dac.h ****  *
  84:C:/Workspaces/DAVE-4.4.2-64Bit/_PKDS_TSTS06_811_X47_V1_0/Libraries/XMCLib/inc\xmc_dac.h ****  * @brief Digital to Analog Converter (DAC) driver for XMC 4000 microcontroller family. <br>
  85:C:/Workspaces/DAVE-4.4.2-64Bit/_PKDS_TSTS06_811_X47_V1_0/Libraries/XMCLib/inc\xmc_dac.h ****  *
  86:C:/Workspaces/DAVE-4.4.2-64Bit/_PKDS_TSTS06_811_X47_V1_0/Libraries/XMCLib/inc\xmc_dac.h ****  * DAC driver uses DAC peripheral to convert digital value to analog value. XMC4000 microcontroller
  87:C:/Workspaces/DAVE-4.4.2-64Bit/_PKDS_TSTS06_811_X47_V1_0/Libraries/XMCLib/inc\xmc_dac.h ****  * and maximum conversion rate of 2MHz with full accuracy and 5MHz with reduced accuracy.
  88:C:/Workspaces/DAVE-4.4.2-64Bit/_PKDS_TSTS06_811_X47_V1_0/Libraries/XMCLib/inc\xmc_dac.h ****  * It consists of inbuilt pattern generator, ramp generator and noise generator modes. Additionally
  89:C:/Workspaces/DAVE-4.4.2-64Bit/_PKDS_TSTS06_811_X47_V1_0/Libraries/XMCLib/inc\xmc_dac.h ****  * in single value mode and in data mode.
  90:C:/Workspaces/DAVE-4.4.2-64Bit/_PKDS_TSTS06_811_X47_V1_0/Libraries/XMCLib/inc\xmc_dac.h ****  * It has DMA handling capability to generate custom waveforms in data mode without CPU interventio
  91:C:/Workspaces/DAVE-4.4.2-64Bit/_PKDS_TSTS06_811_X47_V1_0/Libraries/XMCLib/inc\xmc_dac.h ****  *
  92:C:/Workspaces/DAVE-4.4.2-64Bit/_PKDS_TSTS06_811_X47_V1_0/Libraries/XMCLib/inc\xmc_dac.h ****  * DAC driver features:
  93:C:/Workspaces/DAVE-4.4.2-64Bit/_PKDS_TSTS06_811_X47_V1_0/Libraries/XMCLib/inc\xmc_dac.h ****  * -#  Configuration structure XMC_DAC_CH_CONFIG_t and initialization function XMC_DAC_CH_Init() to
  94:C:/Workspaces/DAVE-4.4.2-64Bit/_PKDS_TSTS06_811_X47_V1_0/Libraries/XMCLib/inc\xmc_dac.h ****  * -#  Pattern Generator Mode:
  95:C:/Workspaces/DAVE-4.4.2-64Bit/_PKDS_TSTS06_811_X47_V1_0/Libraries/XMCLib/inc\xmc_dac.h ****  * 	- DAC is configured in pattern generator mode using XMC_DAC_CH_StartPatternMode()
  96:C:/Workspaces/DAVE-4.4.2-64Bit/_PKDS_TSTS06_811_X47_V1_0/Libraries/XMCLib/inc\xmc_dac.h ****  * 	- XMC_DAC_CH_SetPattern() is used to set the waveform pattern values in pattern register for on
  97:C:/Workspaces/DAVE-4.4.2-64Bit/_PKDS_TSTS06_811_X47_V1_0/Libraries/XMCLib/inc\xmc_dac.h ****  * 	- Allows to change the trigger frequency using XMC_DAC_CH_SetPatternFrequency()
  98:C:/Workspaces/DAVE-4.4.2-64Bit/_PKDS_TSTS06_811_X47_V1_0/Libraries/XMCLib/inc\xmc_dac.h ****  * -#  Single Value Mode:
  99:C:/Workspaces/DAVE-4.4.2-64Bit/_PKDS_TSTS06_811_X47_V1_0/Libraries/XMCLib/inc\xmc_dac.h ****  * 	- DAC is configured in single value mode using XMC_DAC_CH_StartSingleValueMode()
 100:C:/Workspaces/DAVE-4.4.2-64Bit/_PKDS_TSTS06_811_X47_V1_0/Libraries/XMCLib/inc\xmc_dac.h ****  * 	- Allows to change the trigger frequency using XMC_DAC_CH_SetFrequency()
 101:C:/Workspaces/DAVE-4.4.2-64Bit/_PKDS_TSTS06_811_X47_V1_0/Libraries/XMCLib/inc\xmc_dac.h ****  * -# Data Mode:
 102:C:/Workspaces/DAVE-4.4.2-64Bit/_PKDS_TSTS06_811_X47_V1_0/Libraries/XMCLib/inc\xmc_dac.h ****  * 	- DAC is configured in data mode using XMC_DAC_CH_StartDataMode()
 103:C:/Workspaces/DAVE-4.4.2-64Bit/_PKDS_TSTS06_811_X47_V1_0/Libraries/XMCLib/inc\xmc_dac.h ****  * 	- Allows to change the trigger frequency using XMC_DAC_CH_SetFrequency()
 104:C:/Workspaces/DAVE-4.4.2-64Bit/_PKDS_TSTS06_811_X47_V1_0/Libraries/XMCLib/inc\xmc_dac.h ****  * -# Ramp Mode:
 105:C:/Workspaces/DAVE-4.4.2-64Bit/_PKDS_TSTS06_811_X47_V1_0/Libraries/XMCLib/inc\xmc_dac.h ****  *  - DAC is configured in ramp generator mode using XMC_DAC_CH_StartRampMode()
 106:C:/Workspaces/DAVE-4.4.2-64Bit/_PKDS_TSTS06_811_X47_V1_0/Libraries/XMCLib/inc\xmc_dac.h ****  *  - Allows to change the trigger frequency using XMC_DAC_CH_SetRampFrequency()
 107:C:/Workspaces/DAVE-4.4.2-64Bit/_PKDS_TSTS06_811_X47_V1_0/Libraries/XMCLib/inc\xmc_dac.h ****  *  - Allows to set the start and stop values of the ramp using XMC_DAC_CH_SetRampStart() and XMC_D
 108:C:/Workspaces/DAVE-4.4.2-64Bit/_PKDS_TSTS06_811_X47_V1_0/Libraries/XMCLib/inc\xmc_dac.h ****  * -# Noise Mode:
 109:C:/Workspaces/DAVE-4.4.2-64Bit/_PKDS_TSTS06_811_X47_V1_0/Libraries/XMCLib/inc\xmc_dac.h ****  * 	- DAC is configured in noise mode using XMC_DAC_CH_StartNoiseMode()
 110:C:/Workspaces/DAVE-4.4.2-64Bit/_PKDS_TSTS06_811_X47_V1_0/Libraries/XMCLib/inc\xmc_dac.h ****  * 	- Allows to change the trigger frequency using XMC_DAC_CH_SetFrequency()
 111:C:/Workspaces/DAVE-4.4.2-64Bit/_PKDS_TSTS06_811_X47_V1_0/Libraries/XMCLib/inc\xmc_dac.h ****  * -# Allows to change the scale, offset dynamically using XMC_DAC_CH_SetOutputScale() and XMC_DAC_
 112:C:/Workspaces/DAVE-4.4.2-64Bit/_PKDS_TSTS06_811_X47_V1_0/Libraries/XMCLib/inc\xmc_dac.h ****  * -# Allows to select one of the eight possible trigger sources using XMC_DAC_CH_SetTrigger()
 113:C:/Workspaces/DAVE-4.4.2-64Bit/_PKDS_TSTS06_811_X47_V1_0/Libraries/XMCLib/inc\xmc_dac.h ****  * -# 2 DAC channels can be used in synchronization in single value mode and data mode to generate 
 114:C:/Workspaces/DAVE-4.4.2-64Bit/_PKDS_TSTS06_811_X47_V1_0/Libraries/XMCLib/inc\xmc_dac.h ****  */
 115:C:/Workspaces/DAVE-4.4.2-64Bit/_PKDS_TSTS06_811_X47_V1_0/Libraries/XMCLib/inc\xmc_dac.h **** 
 116:C:/Workspaces/DAVE-4.4.2-64Bit/_PKDS_TSTS06_811_X47_V1_0/Libraries/XMCLib/inc\xmc_dac.h **** /*******************************************************************************
 117:C:/Workspaces/DAVE-4.4.2-64Bit/_PKDS_TSTS06_811_X47_V1_0/Libraries/XMCLib/inc\xmc_dac.h ****  * MACROS
 118:C:/Workspaces/DAVE-4.4.2-64Bit/_PKDS_TSTS06_811_X47_V1_0/Libraries/XMCLib/inc\xmc_dac.h ****  *******************************************************************************/
 119:C:/Workspaces/DAVE-4.4.2-64Bit/_PKDS_TSTS06_811_X47_V1_0/Libraries/XMCLib/inc\xmc_dac.h **** 
 120:C:/Workspaces/DAVE-4.4.2-64Bit/_PKDS_TSTS06_811_X47_V1_0/Libraries/XMCLib/inc\xmc_dac.h **** #define XMC_DAC0 ((XMC_DAC_t *)DAC_BASE)         /**< DAC module register base */
 121:C:/Workspaces/DAVE-4.4.2-64Bit/_PKDS_TSTS06_811_X47_V1_0/Libraries/XMCLib/inc\xmc_dac.h **** 
 122:C:/Workspaces/DAVE-4.4.2-64Bit/_PKDS_TSTS06_811_X47_V1_0/Libraries/XMCLib/inc\xmc_dac.h **** #define XMC_DAC_DACCFG_NEGATE_Msk (0x10000000UL) /*< DAC negation enable mask in XMC44 device */
 123:C:/Workspaces/DAVE-4.4.2-64Bit/_PKDS_TSTS06_811_X47_V1_0/Libraries/XMCLib/inc\xmc_dac.h **** #define XMC_DAC_NO_CHANNELS (2U)                 /**< DAC maximum channels */
 124:C:/Workspaces/DAVE-4.4.2-64Bit/_PKDS_TSTS06_811_X47_V1_0/Libraries/XMCLib/inc\xmc_dac.h **** #define XMC_DAC_SAMPLES_PER_PERIOD (32U)         /**< DAC samples per period in pattern mode */
 125:C:/Workspaces/DAVE-4.4.2-64Bit/_PKDS_TSTS06_811_X47_V1_0/Libraries/XMCLib/inc\xmc_dac.h **** 
 126:C:/Workspaces/DAVE-4.4.2-64Bit/_PKDS_TSTS06_811_X47_V1_0/Libraries/XMCLib/inc\xmc_dac.h **** #define XMC_DAC_PATTERN_TRIANGLE  {0U, 4U, 8U, 12U, 16U, 19U, 23U, 27U, 31U} /**< First quarter Tri
 127:C:/Workspaces/DAVE-4.4.2-64Bit/_PKDS_TSTS06_811_X47_V1_0/Libraries/XMCLib/inc\xmc_dac.h **** #define XMC_DAC_PATTERN_SINE      {0U, 6U, 12U, 17U, 22U, 26U, 29U, 30U, 31U} /**< First quarter Si
 128:C:/Workspaces/DAVE-4.4.2-64Bit/_PKDS_TSTS06_811_X47_V1_0/Libraries/XMCLib/inc\xmc_dac.h **** #define XMC_DAC_PATTERN_RECTANGLE {31U, 31U, 31U, 31U, 31U, 31U, 31U, 31U, 31U} /**< First quarter 
 129:C:/Workspaces/DAVE-4.4.2-64Bit/_PKDS_TSTS06_811_X47_V1_0/Libraries/XMCLib/inc\xmc_dac.h **** 
 130:C:/Workspaces/DAVE-4.4.2-64Bit/_PKDS_TSTS06_811_X47_V1_0/Libraries/XMCLib/inc\xmc_dac.h **** #define XMC_DAC_IS_DAC_VALID(PTR)            ((PTR) == XMC_DAC0)
 131:C:/Workspaces/DAVE-4.4.2-64Bit/_PKDS_TSTS06_811_X47_V1_0/Libraries/XMCLib/inc\xmc_dac.h **** #define XMC_DAC_IS_CHANNEL_VALID(CH)         (CH < XMC_DAC_NO_CHANNELS)
 132:C:/Workspaces/DAVE-4.4.2-64Bit/_PKDS_TSTS06_811_X47_V1_0/Libraries/XMCLib/inc\xmc_dac.h **** #define XMC_DAC_IS_TRIGGER_VALID(TRIGGER)    ((TRIGGER == XMC_DAC_CH_TRIGGER_INTERNAL) ||\
 133:C:/Workspaces/DAVE-4.4.2-64Bit/_PKDS_TSTS06_811_X47_V1_0/Libraries/XMCLib/inc\xmc_dac.h ****                                               (TRIGGER == XMC_DAC_CH_TRIGGER_EXTERNAL_CCU80_SR1) ||
 134:C:/Workspaces/DAVE-4.4.2-64Bit/_PKDS_TSTS06_811_X47_V1_0/Libraries/XMCLib/inc\xmc_dac.h ****                                               (TRIGGER == XMC_DAC_CH_TRIGGER_EXTERNAL_CCU40_SR1) ||
 135:C:/Workspaces/DAVE-4.4.2-64Bit/_PKDS_TSTS06_811_X47_V1_0/Libraries/XMCLib/inc\xmc_dac.h ****                                               (TRIGGER == XMC_DAC_CH_TRIGGER_EXTERNAL_CCU41_SR1) ||
 136:C:/Workspaces/DAVE-4.4.2-64Bit/_PKDS_TSTS06_811_X47_V1_0/Libraries/XMCLib/inc\xmc_dac.h ****                                               (TRIGGER == XMC_DAC_CH_TRIGGER_EXTERNAL_P2_9) ||\
 137:C:/Workspaces/DAVE-4.4.2-64Bit/_PKDS_TSTS06_811_X47_V1_0/Libraries/XMCLib/inc\xmc_dac.h ****                                               (TRIGGER == XMC_DAC_CH_TRIGGER_EXTERNAL_P2_8) ||\
 138:C:/Workspaces/DAVE-4.4.2-64Bit/_PKDS_TSTS06_811_X47_V1_0/Libraries/XMCLib/inc\xmc_dac.h ****                                               (TRIGGER == XMC_DAC_CH_TRIGGER_EXTERNAL_U0C0_DX1INS) 
 139:C:/Workspaces/DAVE-4.4.2-64Bit/_PKDS_TSTS06_811_X47_V1_0/Libraries/XMCLib/inc\xmc_dac.h ****                                               (TRIGGER == XMC_DAC_CH_TRIGGER_EXTERNAL_U1C0_DX1INS) 
 140:C:/Workspaces/DAVE-4.4.2-64Bit/_PKDS_TSTS06_811_X47_V1_0/Libraries/XMCLib/inc\xmc_dac.h ****                                               (TRIGGER == XMC_DAC_CH_TRIGGER_SOFTWARE))
 141:C:/Workspaces/DAVE-4.4.2-64Bit/_PKDS_TSTS06_811_X47_V1_0/Libraries/XMCLib/inc\xmc_dac.h **** #define XMC_DAC_IS_MODE_VALID(MODE)          ((MODE == XMC_DAC_CH_MODE_IDLE) ||\
 142:C:/Workspaces/DAVE-4.4.2-64Bit/_PKDS_TSTS06_811_X47_V1_0/Libraries/XMCLib/inc\xmc_dac.h ****                                               (MODE == XMC_DAC_CH_MODE_SINGLE) ||\
 143:C:/Workspaces/DAVE-4.4.2-64Bit/_PKDS_TSTS06_811_X47_V1_0/Libraries/XMCLib/inc\xmc_dac.h ****                                               (MODE == XMC_DAC_CH_MODE_DATA) ||\
 144:C:/Workspaces/DAVE-4.4.2-64Bit/_PKDS_TSTS06_811_X47_V1_0/Libraries/XMCLib/inc\xmc_dac.h ****                                               (MODE == XMC_DAC_CH_MODE_PATTERN) ||\
 145:C:/Workspaces/DAVE-4.4.2-64Bit/_PKDS_TSTS06_811_X47_V1_0/Libraries/XMCLib/inc\xmc_dac.h ****                                               (MODE == XMC_DAC_CH_MODE_NOISE) ||\
 146:C:/Workspaces/DAVE-4.4.2-64Bit/_PKDS_TSTS06_811_X47_V1_0/Libraries/XMCLib/inc\xmc_dac.h ****                                               (MODE == XMC_DAC_CH_MODE_RAMP))
 147:C:/Workspaces/DAVE-4.4.2-64Bit/_PKDS_TSTS06_811_X47_V1_0/Libraries/XMCLib/inc\xmc_dac.h **** #define XMC_DAC_IS_OUTPUT_SCALE_VALID(SCALE) ((SCALE == XMC_DAC_CH_OUTPUT_SCALE_NONE) ||\
 148:C:/Workspaces/DAVE-4.4.2-64Bit/_PKDS_TSTS06_811_X47_V1_0/Libraries/XMCLib/inc\xmc_dac.h ****                                               (SCALE == XMC_DAC_CH_OUTPUT_SCALE_MUL_2) ||\
 149:C:/Workspaces/DAVE-4.4.2-64Bit/_PKDS_TSTS06_811_X47_V1_0/Libraries/XMCLib/inc\xmc_dac.h ****                                               (SCALE == XMC_DAC_CH_OUTPUT_SCALE_MUL_4) ||\
 150:C:/Workspaces/DAVE-4.4.2-64Bit/_PKDS_TSTS06_811_X47_V1_0/Libraries/XMCLib/inc\xmc_dac.h ****                                               (SCALE == XMC_DAC_CH_OUTPUT_SCALE_MUL_8) ||\
 151:C:/Workspaces/DAVE-4.4.2-64Bit/_PKDS_TSTS06_811_X47_V1_0/Libraries/XMCLib/inc\xmc_dac.h ****                                               (SCALE == XMC_DAC_CH_OUTPUT_SCALE_MUL_16) ||\
 152:C:/Workspaces/DAVE-4.4.2-64Bit/_PKDS_TSTS06_811_X47_V1_0/Libraries/XMCLib/inc\xmc_dac.h ****                                               (SCALE == XMC_DAC_CH_OUTPUT_SCALE_MUL_32) ||\
 153:C:/Workspaces/DAVE-4.4.2-64Bit/_PKDS_TSTS06_811_X47_V1_0/Libraries/XMCLib/inc\xmc_dac.h ****                                               (SCALE == XMC_DAC_CH_OUTPUT_SCALE_MUL_64) ||\
 154:C:/Workspaces/DAVE-4.4.2-64Bit/_PKDS_TSTS06_811_X47_V1_0/Libraries/XMCLib/inc\xmc_dac.h ****                                               (SCALE == XMC_DAC_CH_OUTPUT_SCALE_MUL_128) ||\
 155:C:/Workspaces/DAVE-4.4.2-64Bit/_PKDS_TSTS06_811_X47_V1_0/Libraries/XMCLib/inc\xmc_dac.h ****                                               (SCALE == XMC_DAC_CH_OUTPUT_SCALE_DIV_2) ||\
 156:C:/Workspaces/DAVE-4.4.2-64Bit/_PKDS_TSTS06_811_X47_V1_0/Libraries/XMCLib/inc\xmc_dac.h ****                                               (SCALE == XMC_DAC_CH_OUTPUT_SCALE_DIV_4) ||\
 157:C:/Workspaces/DAVE-4.4.2-64Bit/_PKDS_TSTS06_811_X47_V1_0/Libraries/XMCLib/inc\xmc_dac.h ****                                               (SCALE == XMC_DAC_CH_OUTPUT_SCALE_DIV_8) ||\
 158:C:/Workspaces/DAVE-4.4.2-64Bit/_PKDS_TSTS06_811_X47_V1_0/Libraries/XMCLib/inc\xmc_dac.h ****                                               (SCALE == XMC_DAC_CH_OUTPUT_SCALE_DIV_16) ||\
 159:C:/Workspaces/DAVE-4.4.2-64Bit/_PKDS_TSTS06_811_X47_V1_0/Libraries/XMCLib/inc\xmc_dac.h ****                                               (SCALE == XMC_DAC_CH_OUTPUT_SCALE_DIV_32) ||\
 160:C:/Workspaces/DAVE-4.4.2-64Bit/_PKDS_TSTS06_811_X47_V1_0/Libraries/XMCLib/inc\xmc_dac.h ****                                               (SCALE == XMC_DAC_CH_OUTPUT_SCALE_DIV_64) ||\
 161:C:/Workspaces/DAVE-4.4.2-64Bit/_PKDS_TSTS06_811_X47_V1_0/Libraries/XMCLib/inc\xmc_dac.h ****                                               (SCALE == XMC_DAC_CH_OUTPUT_SCALE_DIV_128))
 162:C:/Workspaces/DAVE-4.4.2-64Bit/_PKDS_TSTS06_811_X47_V1_0/Libraries/XMCLib/inc\xmc_dac.h **** 
 163:C:/Workspaces/DAVE-4.4.2-64Bit/_PKDS_TSTS06_811_X47_V1_0/Libraries/XMCLib/inc\xmc_dac.h **** 
 164:C:/Workspaces/DAVE-4.4.2-64Bit/_PKDS_TSTS06_811_X47_V1_0/Libraries/XMCLib/inc\xmc_dac.h **** /*******************************************************************************
 165:C:/Workspaces/DAVE-4.4.2-64Bit/_PKDS_TSTS06_811_X47_V1_0/Libraries/XMCLib/inc\xmc_dac.h ****  * ENUMS
 166:C:/Workspaces/DAVE-4.4.2-64Bit/_PKDS_TSTS06_811_X47_V1_0/Libraries/XMCLib/inc\xmc_dac.h ****  *******************************************************************************/
 167:C:/Workspaces/DAVE-4.4.2-64Bit/_PKDS_TSTS06_811_X47_V1_0/Libraries/XMCLib/inc\xmc_dac.h **** 
 168:C:/Workspaces/DAVE-4.4.2-64Bit/_PKDS_TSTS06_811_X47_V1_0/Libraries/XMCLib/inc\xmc_dac.h **** /**
 169:C:/Workspaces/DAVE-4.4.2-64Bit/_PKDS_TSTS06_811_X47_V1_0/Libraries/XMCLib/inc\xmc_dac.h ****  * Return types of the API's
 170:C:/Workspaces/DAVE-4.4.2-64Bit/_PKDS_TSTS06_811_X47_V1_0/Libraries/XMCLib/inc\xmc_dac.h ****  */
 171:C:/Workspaces/DAVE-4.4.2-64Bit/_PKDS_TSTS06_811_X47_V1_0/Libraries/XMCLib/inc\xmc_dac.h **** typedef enum XMC_DAC_CH_STATUS
 172:C:/Workspaces/DAVE-4.4.2-64Bit/_PKDS_TSTS06_811_X47_V1_0/Libraries/XMCLib/inc\xmc_dac.h **** {
 173:C:/Workspaces/DAVE-4.4.2-64Bit/_PKDS_TSTS06_811_X47_V1_0/Libraries/XMCLib/inc\xmc_dac.h ****   XMC_DAC_CH_STATUS_OK              = 0U, /**< Status is ok, no error detected */
 174:C:/Workspaces/DAVE-4.4.2-64Bit/_PKDS_TSTS06_811_X47_V1_0/Libraries/XMCLib/inc\xmc_dac.h ****   XMC_DAC_CH_STATUS_ERROR           = 1U, /**< Error detected */
 175:C:/Workspaces/DAVE-4.4.2-64Bit/_PKDS_TSTS06_811_X47_V1_0/Libraries/XMCLib/inc\xmc_dac.h ****   XMC_DAC_CH_STATUS_BUSY            = 2U, /**< DAC is busy */
 176:C:/Workspaces/DAVE-4.4.2-64Bit/_PKDS_TSTS06_811_X47_V1_0/Libraries/XMCLib/inc\xmc_dac.h ****   XMC_DAC_CH_STATUS_ERROR_FREQ2LOW  = 3U, /**< Frequency can't be configured. Frequency is to low. 
 177:C:/Workspaces/DAVE-4.4.2-64Bit/_PKDS_TSTS06_811_X47_V1_0/Libraries/XMCLib/inc\xmc_dac.h ****   XMC_DAC_CH_STATUS_ERROR_FREQ2HIGH = 4U  /**< Frequency can't be configured. Frequency is to high.
 178:C:/Workspaces/DAVE-4.4.2-64Bit/_PKDS_TSTS06_811_X47_V1_0/Libraries/XMCLib/inc\xmc_dac.h **** } XMC_DAC_CH_STATUS_t;
 179:C:/Workspaces/DAVE-4.4.2-64Bit/_PKDS_TSTS06_811_X47_V1_0/Libraries/XMCLib/inc\xmc_dac.h **** 
 180:C:/Workspaces/DAVE-4.4.2-64Bit/_PKDS_TSTS06_811_X47_V1_0/Libraries/XMCLib/inc\xmc_dac.h **** /**
 181:C:/Workspaces/DAVE-4.4.2-64Bit/_PKDS_TSTS06_811_X47_V1_0/Libraries/XMCLib/inc\xmc_dac.h ****  * Operating modes of DAC
 182:C:/Workspaces/DAVE-4.4.2-64Bit/_PKDS_TSTS06_811_X47_V1_0/Libraries/XMCLib/inc\xmc_dac.h ****  */
 183:C:/Workspaces/DAVE-4.4.2-64Bit/_PKDS_TSTS06_811_X47_V1_0/Libraries/XMCLib/inc\xmc_dac.h **** typedef enum XMC_DAC_CH_MODE
 184:C:/Workspaces/DAVE-4.4.2-64Bit/_PKDS_TSTS06_811_X47_V1_0/Libraries/XMCLib/inc\xmc_dac.h **** {
 185:C:/Workspaces/DAVE-4.4.2-64Bit/_PKDS_TSTS06_811_X47_V1_0/Libraries/XMCLib/inc\xmc_dac.h ****   XMC_DAC_CH_MODE_IDLE    = 0x0U << DAC_DAC0CFG0_MODE_Pos,    /**< DAC is disabled */
 186:C:/Workspaces/DAVE-4.4.2-64Bit/_PKDS_TSTS06_811_X47_V1_0/Libraries/XMCLib/inc\xmc_dac.h ****   XMC_DAC_CH_MODE_SINGLE  = 0x1U << DAC_DAC0CFG0_MODE_Pos,    /**< Single value mode - single data 
 187:C:/Workspaces/DAVE-4.4.2-64Bit/_PKDS_TSTS06_811_X47_V1_0/Libraries/XMCLib/inc\xmc_dac.h ****   XMC_DAC_CH_MODE_DATA    = 0x2U << DAC_DAC0CFG0_MODE_Pos,    /**< Data mode - continuous data proc
 188:C:/Workspaces/DAVE-4.4.2-64Bit/_PKDS_TSTS06_811_X47_V1_0/Libraries/XMCLib/inc\xmc_dac.h ****   XMC_DAC_CH_MODE_PATTERN = 0x3U << DAC_DAC0CFG0_MODE_Pos,    /**< Pattern mode - inbuilt pattern w
 189:C:/Workspaces/DAVE-4.4.2-64Bit/_PKDS_TSTS06_811_X47_V1_0/Libraries/XMCLib/inc\xmc_dac.h ****                                                                    Sine, Triangle, Rectangle */
 190:C:/Workspaces/DAVE-4.4.2-64Bit/_PKDS_TSTS06_811_X47_V1_0/Libraries/XMCLib/inc\xmc_dac.h ****   XMC_DAC_CH_MODE_NOISE   = 0x4U << DAC_DAC0CFG0_MODE_Pos,    /**< Noise mode - pseudo-random noise
 191:C:/Workspaces/DAVE-4.4.2-64Bit/_PKDS_TSTS06_811_X47_V1_0/Libraries/XMCLib/inc\xmc_dac.h ****   XMC_DAC_CH_MODE_RAMP    = 0x5U << DAC_DAC0CFG0_MODE_Pos     /**< Ramp mode - ramp generation */
 192:C:/Workspaces/DAVE-4.4.2-64Bit/_PKDS_TSTS06_811_X47_V1_0/Libraries/XMCLib/inc\xmc_dac.h **** } XMC_DAC_CH_MODE_t;
 193:C:/Workspaces/DAVE-4.4.2-64Bit/_PKDS_TSTS06_811_X47_V1_0/Libraries/XMCLib/inc\xmc_dac.h **** 
 194:C:/Workspaces/DAVE-4.4.2-64Bit/_PKDS_TSTS06_811_X47_V1_0/Libraries/XMCLib/inc\xmc_dac.h **** /**
 195:C:/Workspaces/DAVE-4.4.2-64Bit/_PKDS_TSTS06_811_X47_V1_0/Libraries/XMCLib/inc\xmc_dac.h ****  * Trigger sources for the data update
 196:C:/Workspaces/DAVE-4.4.2-64Bit/_PKDS_TSTS06_811_X47_V1_0/Libraries/XMCLib/inc\xmc_dac.h ****  */
 197:C:/Workspaces/DAVE-4.4.2-64Bit/_PKDS_TSTS06_811_X47_V1_0/Libraries/XMCLib/inc\xmc_dac.h **** typedef enum XMC_DAC_CH_TRIGGER
 198:C:/Workspaces/DAVE-4.4.2-64Bit/_PKDS_TSTS06_811_X47_V1_0/Libraries/XMCLib/inc\xmc_dac.h **** {
 199:C:/Workspaces/DAVE-4.4.2-64Bit/_PKDS_TSTS06_811_X47_V1_0/Libraries/XMCLib/inc\xmc_dac.h ****   XMC_DAC_CH_TRIGGER_INTERNAL =
 200:C:/Workspaces/DAVE-4.4.2-64Bit/_PKDS_TSTS06_811_X47_V1_0/Libraries/XMCLib/inc\xmc_dac.h ****     (0x0U << DAC_DAC0CFG1_TRIGMOD_Pos),                                      /**< Internal trigger 
 201:C:/Workspaces/DAVE-4.4.2-64Bit/_PKDS_TSTS06_811_X47_V1_0/Libraries/XMCLib/inc\xmc_dac.h ****   XMC_DAC_CH_TRIGGER_EXTERNAL_CCU80_SR1 =
 202:C:/Workspaces/DAVE-4.4.2-64Bit/_PKDS_TSTS06_811_X47_V1_0/Libraries/XMCLib/inc\xmc_dac.h ****     (0x1U << DAC_DAC0CFG1_TRIGMOD_Pos) | 0x0U,                               /**< External trigger 
 203:C:/Workspaces/DAVE-4.4.2-64Bit/_PKDS_TSTS06_811_X47_V1_0/Libraries/XMCLib/inc\xmc_dac.h ****   XMC_DAC_CH_TRIGGER_EXTERNAL_CCU40_SR1 =
 204:C:/Workspaces/DAVE-4.4.2-64Bit/_PKDS_TSTS06_811_X47_V1_0/Libraries/XMCLib/inc\xmc_dac.h ****     (0x1U << DAC_DAC0CFG1_TRIGMOD_Pos) | (0x2U << DAC_DAC0CFG1_TRIGSEL_Pos), /**< External trigger 
 205:C:/Workspaces/DAVE-4.4.2-64Bit/_PKDS_TSTS06_811_X47_V1_0/Libraries/XMCLib/inc\xmc_dac.h ****   XMC_DAC_CH_TRIGGER_EXTERNAL_CCU41_SR1 =
 206:C:/Workspaces/DAVE-4.4.2-64Bit/_PKDS_TSTS06_811_X47_V1_0/Libraries/XMCLib/inc\xmc_dac.h ****     (0x1U << DAC_DAC0CFG1_TRIGMOD_Pos) | (0x3U << DAC_DAC0CFG1_TRIGSEL_Pos), /**< External trigger 
 207:C:/Workspaces/DAVE-4.4.2-64Bit/_PKDS_TSTS06_811_X47_V1_0/Libraries/XMCLib/inc\xmc_dac.h ****   XMC_DAC_CH_TRIGGER_EXTERNAL_P2_9 =
 208:C:/Workspaces/DAVE-4.4.2-64Bit/_PKDS_TSTS06_811_X47_V1_0/Libraries/XMCLib/inc\xmc_dac.h ****     (0x1U << DAC_DAC0CFG1_TRIGMOD_Pos) | (0x4U << DAC_DAC0CFG1_TRIGSEL_Pos), /**< External trigger 
 209:C:/Workspaces/DAVE-4.4.2-64Bit/_PKDS_TSTS06_811_X47_V1_0/Libraries/XMCLib/inc\xmc_dac.h ****   XMC_DAC_CH_TRIGGER_EXTERNAL_P2_8 =
 210:C:/Workspaces/DAVE-4.4.2-64Bit/_PKDS_TSTS06_811_X47_V1_0/Libraries/XMCLib/inc\xmc_dac.h ****     (0x1U << DAC_DAC0CFG1_TRIGMOD_Pos) | (0x5U << DAC_DAC0CFG1_TRIGSEL_Pos), /**< External trigger 
 211:C:/Workspaces/DAVE-4.4.2-64Bit/_PKDS_TSTS06_811_X47_V1_0/Libraries/XMCLib/inc\xmc_dac.h ****   XMC_DAC_CH_TRIGGER_EXTERNAL_U0C0_DX1INS =
 212:C:/Workspaces/DAVE-4.4.2-64Bit/_PKDS_TSTS06_811_X47_V1_0/Libraries/XMCLib/inc\xmc_dac.h ****     (0x1U << DAC_DAC0CFG1_TRIGMOD_Pos) | (0x6U << DAC_DAC0CFG1_TRIGSEL_Pos), /**< External trigger 
 213:C:/Workspaces/DAVE-4.4.2-64Bit/_PKDS_TSTS06_811_X47_V1_0/Libraries/XMCLib/inc\xmc_dac.h ****   XMC_DAC_CH_TRIGGER_EXTERNAL_U1C0_DX1INS =
 214:C:/Workspaces/DAVE-4.4.2-64Bit/_PKDS_TSTS06_811_X47_V1_0/Libraries/XMCLib/inc\xmc_dac.h ****     (0x1U << DAC_DAC0CFG1_TRIGMOD_Pos) | (0x7U << DAC_DAC0CFG1_TRIGSEL_Pos), /**< External trigger 
 215:C:/Workspaces/DAVE-4.4.2-64Bit/_PKDS_TSTS06_811_X47_V1_0/Libraries/XMCLib/inc\xmc_dac.h ****   XMC_DAC_CH_TRIGGER_SOFTWARE =
 216:C:/Workspaces/DAVE-4.4.2-64Bit/_PKDS_TSTS06_811_X47_V1_0/Libraries/XMCLib/inc\xmc_dac.h ****     (0x2U << DAC_DAC0CFG1_TRIGMOD_Pos)                                       /**< Software trigger 
 217:C:/Workspaces/DAVE-4.4.2-64Bit/_PKDS_TSTS06_811_X47_V1_0/Libraries/XMCLib/inc\xmc_dac.h **** } XMC_DAC_CH_TRIGGER_t;
 218:C:/Workspaces/DAVE-4.4.2-64Bit/_PKDS_TSTS06_811_X47_V1_0/Libraries/XMCLib/inc\xmc_dac.h **** 
 219:C:/Workspaces/DAVE-4.4.2-64Bit/_PKDS_TSTS06_811_X47_V1_0/Libraries/XMCLib/inc\xmc_dac.h **** /**
 220:C:/Workspaces/DAVE-4.4.2-64Bit/_PKDS_TSTS06_811_X47_V1_0/Libraries/XMCLib/inc\xmc_dac.h ****  * Data type of the input data
 221:C:/Workspaces/DAVE-4.4.2-64Bit/_PKDS_TSTS06_811_X47_V1_0/Libraries/XMCLib/inc\xmc_dac.h ****  */
 222:C:/Workspaces/DAVE-4.4.2-64Bit/_PKDS_TSTS06_811_X47_V1_0/Libraries/XMCLib/inc\xmc_dac.h **** typedef enum XMC_DAC_CH_DATA_TYPE
 223:C:/Workspaces/DAVE-4.4.2-64Bit/_PKDS_TSTS06_811_X47_V1_0/Libraries/XMCLib/inc\xmc_dac.h **** {
 224:C:/Workspaces/DAVE-4.4.2-64Bit/_PKDS_TSTS06_811_X47_V1_0/Libraries/XMCLib/inc\xmc_dac.h ****   XMC_DAC_CH_DATA_TYPE_UNSIGNED = 0U,  /**< input data is unsigned */
 225:C:/Workspaces/DAVE-4.4.2-64Bit/_PKDS_TSTS06_811_X47_V1_0/Libraries/XMCLib/inc\xmc_dac.h ****   XMC_DAC_CH_DATA_TYPE_SIGNED = 1U     /**< input data is signed */
 226:C:/Workspaces/DAVE-4.4.2-64Bit/_PKDS_TSTS06_811_X47_V1_0/Libraries/XMCLib/inc\xmc_dac.h **** } XMC_DAC_CH_DATA_TYPE_t;
 227:C:/Workspaces/DAVE-4.4.2-64Bit/_PKDS_TSTS06_811_X47_V1_0/Libraries/XMCLib/inc\xmc_dac.h **** 
 228:C:/Workspaces/DAVE-4.4.2-64Bit/_PKDS_TSTS06_811_X47_V1_0/Libraries/XMCLib/inc\xmc_dac.h **** /**
 229:C:/Workspaces/DAVE-4.4.2-64Bit/_PKDS_TSTS06_811_X47_V1_0/Libraries/XMCLib/inc\xmc_dac.h ****  * Scaling of the input data
 230:C:/Workspaces/DAVE-4.4.2-64Bit/_PKDS_TSTS06_811_X47_V1_0/Libraries/XMCLib/inc\xmc_dac.h ****  */
 231:C:/Workspaces/DAVE-4.4.2-64Bit/_PKDS_TSTS06_811_X47_V1_0/Libraries/XMCLib/inc\xmc_dac.h **** typedef enum XMC_DAC_CH_OUTPUT_SCALE
 232:C:/Workspaces/DAVE-4.4.2-64Bit/_PKDS_TSTS06_811_X47_V1_0/Libraries/XMCLib/inc\xmc_dac.h **** {
 233:C:/Workspaces/DAVE-4.4.2-64Bit/_PKDS_TSTS06_811_X47_V1_0/Libraries/XMCLib/inc\xmc_dac.h ****   XMC_DAC_CH_OUTPUT_SCALE_NONE =
 234:C:/Workspaces/DAVE-4.4.2-64Bit/_PKDS_TSTS06_811_X47_V1_0/Libraries/XMCLib/inc\xmc_dac.h ****     0x0U,                                                                   /**< No scaling */
 235:C:/Workspaces/DAVE-4.4.2-64Bit/_PKDS_TSTS06_811_X47_V1_0/Libraries/XMCLib/inc\xmc_dac.h ****   XMC_DAC_CH_OUTPUT_SCALE_MUL_2 =
 236:C:/Workspaces/DAVE-4.4.2-64Bit/_PKDS_TSTS06_811_X47_V1_0/Libraries/XMCLib/inc\xmc_dac.h ****     (0x1U << DAC_DAC0CFG1_MULDIV_Pos) | (0x1U << DAC_DAC0CFG1_SCALE_Pos),   /**< multiplied by 2 */
 237:C:/Workspaces/DAVE-4.4.2-64Bit/_PKDS_TSTS06_811_X47_V1_0/Libraries/XMCLib/inc\xmc_dac.h ****   XMC_DAC_CH_OUTPUT_SCALE_MUL_4 =
 238:C:/Workspaces/DAVE-4.4.2-64Bit/_PKDS_TSTS06_811_X47_V1_0/Libraries/XMCLib/inc\xmc_dac.h ****     (0x1U << DAC_DAC0CFG1_MULDIV_Pos) | (0x2U << DAC_DAC0CFG1_SCALE_Pos),   /**< multiplied by 4 */
 239:C:/Workspaces/DAVE-4.4.2-64Bit/_PKDS_TSTS06_811_X47_V1_0/Libraries/XMCLib/inc\xmc_dac.h ****   XMC_DAC_CH_OUTPUT_SCALE_MUL_8 =
 240:C:/Workspaces/DAVE-4.4.2-64Bit/_PKDS_TSTS06_811_X47_V1_0/Libraries/XMCLib/inc\xmc_dac.h ****     (0x1U << DAC_DAC0CFG1_MULDIV_Pos) | (0x3U << DAC_DAC0CFG1_SCALE_Pos),   /**< multiplied by 8 */
 241:C:/Workspaces/DAVE-4.4.2-64Bit/_PKDS_TSTS06_811_X47_V1_0/Libraries/XMCLib/inc\xmc_dac.h ****   XMC_DAC_CH_OUTPUT_SCALE_MUL_16 =
 242:C:/Workspaces/DAVE-4.4.2-64Bit/_PKDS_TSTS06_811_X47_V1_0/Libraries/XMCLib/inc\xmc_dac.h ****     (0x1U << DAC_DAC0CFG1_MULDIV_Pos) | (0x4U << DAC_DAC0CFG1_SCALE_Pos),   /**< multiplied by 16 *
 243:C:/Workspaces/DAVE-4.4.2-64Bit/_PKDS_TSTS06_811_X47_V1_0/Libraries/XMCLib/inc\xmc_dac.h ****   XMC_DAC_CH_OUTPUT_SCALE_MUL_32 =
 244:C:/Workspaces/DAVE-4.4.2-64Bit/_PKDS_TSTS06_811_X47_V1_0/Libraries/XMCLib/inc\xmc_dac.h ****     (0x1U << DAC_DAC0CFG1_MULDIV_Pos) | (0x5U << DAC_DAC0CFG1_SCALE_Pos),   /**< multiplied by 32 *
 245:C:/Workspaces/DAVE-4.4.2-64Bit/_PKDS_TSTS06_811_X47_V1_0/Libraries/XMCLib/inc\xmc_dac.h ****   XMC_DAC_CH_OUTPUT_SCALE_MUL_64 =
 246:C:/Workspaces/DAVE-4.4.2-64Bit/_PKDS_TSTS06_811_X47_V1_0/Libraries/XMCLib/inc\xmc_dac.h ****     (0x1U << DAC_DAC0CFG1_MULDIV_Pos) | (0x6U << DAC_DAC0CFG1_SCALE_Pos),   /**< multiplied by 64 *
 247:C:/Workspaces/DAVE-4.4.2-64Bit/_PKDS_TSTS06_811_X47_V1_0/Libraries/XMCLib/inc\xmc_dac.h ****   XMC_DAC_CH_OUTPUT_SCALE_MUL_128 =
 248:C:/Workspaces/DAVE-4.4.2-64Bit/_PKDS_TSTS06_811_X47_V1_0/Libraries/XMCLib/inc\xmc_dac.h ****     (0x1U << DAC_DAC0CFG1_MULDIV_Pos) | (0x7U << DAC_DAC0CFG1_SCALE_Pos),   /**< multiplied by 128 
 249:C:/Workspaces/DAVE-4.4.2-64Bit/_PKDS_TSTS06_811_X47_V1_0/Libraries/XMCLib/inc\xmc_dac.h ****   XMC_DAC_CH_OUTPUT_SCALE_DIV_2 =
 250:C:/Workspaces/DAVE-4.4.2-64Bit/_PKDS_TSTS06_811_X47_V1_0/Libraries/XMCLib/inc\xmc_dac.h ****     0x1U << DAC_DAC0CFG1_SCALE_Pos,                                         /**< divided by 2 */
 251:C:/Workspaces/DAVE-4.4.2-64Bit/_PKDS_TSTS06_811_X47_V1_0/Libraries/XMCLib/inc\xmc_dac.h ****   XMC_DAC_CH_OUTPUT_SCALE_DIV_4 =
 252:C:/Workspaces/DAVE-4.4.2-64Bit/_PKDS_TSTS06_811_X47_V1_0/Libraries/XMCLib/inc\xmc_dac.h ****     0x2U << DAC_DAC0CFG1_SCALE_Pos,                                         /**< divided by 4 */
 253:C:/Workspaces/DAVE-4.4.2-64Bit/_PKDS_TSTS06_811_X47_V1_0/Libraries/XMCLib/inc\xmc_dac.h ****   XMC_DAC_CH_OUTPUT_SCALE_DIV_8 =
 254:C:/Workspaces/DAVE-4.4.2-64Bit/_PKDS_TSTS06_811_X47_V1_0/Libraries/XMCLib/inc\xmc_dac.h ****     0x3U << DAC_DAC0CFG1_SCALE_Pos,                                         /**< divided by 8 */
 255:C:/Workspaces/DAVE-4.4.2-64Bit/_PKDS_TSTS06_811_X47_V1_0/Libraries/XMCLib/inc\xmc_dac.h ****   XMC_DAC_CH_OUTPUT_SCALE_DIV_16 =
 256:C:/Workspaces/DAVE-4.4.2-64Bit/_PKDS_TSTS06_811_X47_V1_0/Libraries/XMCLib/inc\xmc_dac.h ****     0x4U << DAC_DAC0CFG1_SCALE_Pos,                                         /**< divided by 16 */
 257:C:/Workspaces/DAVE-4.4.2-64Bit/_PKDS_TSTS06_811_X47_V1_0/Libraries/XMCLib/inc\xmc_dac.h ****   XMC_DAC_CH_OUTPUT_SCALE_DIV_32 =
 258:C:/Workspaces/DAVE-4.4.2-64Bit/_PKDS_TSTS06_811_X47_V1_0/Libraries/XMCLib/inc\xmc_dac.h ****     0x5U << DAC_DAC0CFG1_SCALE_Pos,                                         /**< divided by 32 */
 259:C:/Workspaces/DAVE-4.4.2-64Bit/_PKDS_TSTS06_811_X47_V1_0/Libraries/XMCLib/inc\xmc_dac.h ****   XMC_DAC_CH_OUTPUT_SCALE_DIV_64 =
 260:C:/Workspaces/DAVE-4.4.2-64Bit/_PKDS_TSTS06_811_X47_V1_0/Libraries/XMCLib/inc\xmc_dac.h ****     0x6U << DAC_DAC0CFG1_SCALE_Pos,                                         /**< divided by 64 */
 261:C:/Workspaces/DAVE-4.4.2-64Bit/_PKDS_TSTS06_811_X47_V1_0/Libraries/XMCLib/inc\xmc_dac.h ****   XMC_DAC_CH_OUTPUT_SCALE_DIV_128 =
 262:C:/Workspaces/DAVE-4.4.2-64Bit/_PKDS_TSTS06_811_X47_V1_0/Libraries/XMCLib/inc\xmc_dac.h ****     0x7U << DAC_DAC0CFG1_SCALE_Pos                                          /**< divided by 128 */
 263:C:/Workspaces/DAVE-4.4.2-64Bit/_PKDS_TSTS06_811_X47_V1_0/Libraries/XMCLib/inc\xmc_dac.h **** } XMC_DAC_CH_OUTPUT_SCALE_t;
 264:C:/Workspaces/DAVE-4.4.2-64Bit/_PKDS_TSTS06_811_X47_V1_0/Libraries/XMCLib/inc\xmc_dac.h **** 
 265:C:/Workspaces/DAVE-4.4.2-64Bit/_PKDS_TSTS06_811_X47_V1_0/Libraries/XMCLib/inc\xmc_dac.h **** /**
 266:C:/Workspaces/DAVE-4.4.2-64Bit/_PKDS_TSTS06_811_X47_V1_0/Libraries/XMCLib/inc\xmc_dac.h ****  * Negation of input data (applicable only for XMC44 device)
 267:C:/Workspaces/DAVE-4.4.2-64Bit/_PKDS_TSTS06_811_X47_V1_0/Libraries/XMCLib/inc\xmc_dac.h ****  */
 268:C:/Workspaces/DAVE-4.4.2-64Bit/_PKDS_TSTS06_811_X47_V1_0/Libraries/XMCLib/inc\xmc_dac.h **** typedef enum XMC_DAC_CH_OUTPUT_NEGATION
 269:C:/Workspaces/DAVE-4.4.2-64Bit/_PKDS_TSTS06_811_X47_V1_0/Libraries/XMCLib/inc\xmc_dac.h **** {
 270:C:/Workspaces/DAVE-4.4.2-64Bit/_PKDS_TSTS06_811_X47_V1_0/Libraries/XMCLib/inc\xmc_dac.h ****   XMC_DAC_CH_OUTPUT_NEGATION_DISABLED = 0U,                   /**< XMC_DAC_CH_OUTPUT_NEGATION_DISAB
 271:C:/Workspaces/DAVE-4.4.2-64Bit/_PKDS_TSTS06_811_X47_V1_0/Libraries/XMCLib/inc\xmc_dac.h ****   XMC_DAC_CH_OUTPUT_NEGATION_ENABLED = 1U                     /**< XMC_DAC_CH_OUTPUT_NEGATION_ENABL
 272:C:/Workspaces/DAVE-4.4.2-64Bit/_PKDS_TSTS06_811_X47_V1_0/Libraries/XMCLib/inc\xmc_dac.h **** } XMC_DAC_CH_OUTPUT_NEGATION_t;
 273:C:/Workspaces/DAVE-4.4.2-64Bit/_PKDS_TSTS06_811_X47_V1_0/Libraries/XMCLib/inc\xmc_dac.h **** 
 274:C:/Workspaces/DAVE-4.4.2-64Bit/_PKDS_TSTS06_811_X47_V1_0/Libraries/XMCLib/inc\xmc_dac.h **** /**
 275:C:/Workspaces/DAVE-4.4.2-64Bit/_PKDS_TSTS06_811_X47_V1_0/Libraries/XMCLib/inc\xmc_dac.h ****  * Output sign signal for the Pattern Generation Mode
 276:C:/Workspaces/DAVE-4.4.2-64Bit/_PKDS_TSTS06_811_X47_V1_0/Libraries/XMCLib/inc\xmc_dac.h ****  */
 277:C:/Workspaces/DAVE-4.4.2-64Bit/_PKDS_TSTS06_811_X47_V1_0/Libraries/XMCLib/inc\xmc_dac.h **** typedef enum XMC_DAC_CH_PATTERN_SIGN_OUTPUT
 278:C:/Workspaces/DAVE-4.4.2-64Bit/_PKDS_TSTS06_811_X47_V1_0/Libraries/XMCLib/inc\xmc_dac.h **** {
 279:C:/Workspaces/DAVE-4.4.2-64Bit/_PKDS_TSTS06_811_X47_V1_0/Libraries/XMCLib/inc\xmc_dac.h ****   XMC_DAC_CH_PATTERN_SIGN_OUTPUT_DISABLED = 0U,  /**< Sign output signal generation is disabled */
 280:C:/Workspaces/DAVE-4.4.2-64Bit/_PKDS_TSTS06_811_X47_V1_0/Libraries/XMCLib/inc\xmc_dac.h ****   XMC_DAC_CH_PATTERN_SIGN_OUTPUT_ENABLED = 1U    /**< Sign output signal generation is enabled */
 281:C:/Workspaces/DAVE-4.4.2-64Bit/_PKDS_TSTS06_811_X47_V1_0/Libraries/XMCLib/inc\xmc_dac.h **** } XMC_DAC_CH_PATTERN_SIGN_OUTPUT_t;
 282:C:/Workspaces/DAVE-4.4.2-64Bit/_PKDS_TSTS06_811_X47_V1_0/Libraries/XMCLib/inc\xmc_dac.h **** 
 283:C:/Workspaces/DAVE-4.4.2-64Bit/_PKDS_TSTS06_811_X47_V1_0/Libraries/XMCLib/inc\xmc_dac.h **** /*******************************************************************************
 284:C:/Workspaces/DAVE-4.4.2-64Bit/_PKDS_TSTS06_811_X47_V1_0/Libraries/XMCLib/inc\xmc_dac.h ****  * DATA STRUCTURES
 285:C:/Workspaces/DAVE-4.4.2-64Bit/_PKDS_TSTS06_811_X47_V1_0/Libraries/XMCLib/inc\xmc_dac.h ****  *******************************************************************************/
 286:C:/Workspaces/DAVE-4.4.2-64Bit/_PKDS_TSTS06_811_X47_V1_0/Libraries/XMCLib/inc\xmc_dac.h **** /**
 287:C:/Workspaces/DAVE-4.4.2-64Bit/_PKDS_TSTS06_811_X47_V1_0/Libraries/XMCLib/inc\xmc_dac.h ****  * DAC peripheral registers configuration.
 288:C:/Workspaces/DAVE-4.4.2-64Bit/_PKDS_TSTS06_811_X47_V1_0/Libraries/XMCLib/inc\xmc_dac.h ****  */
 289:C:/Workspaces/DAVE-4.4.2-64Bit/_PKDS_TSTS06_811_X47_V1_0/Libraries/XMCLib/inc\xmc_dac.h **** typedef struct
 290:C:/Workspaces/DAVE-4.4.2-64Bit/_PKDS_TSTS06_811_X47_V1_0/Libraries/XMCLib/inc\xmc_dac.h **** {
 291:C:/Workspaces/DAVE-4.4.2-64Bit/_PKDS_TSTS06_811_X47_V1_0/Libraries/XMCLib/inc\xmc_dac.h ****   __I  uint32_t  ID;
 292:C:/Workspaces/DAVE-4.4.2-64Bit/_PKDS_TSTS06_811_X47_V1_0/Libraries/XMCLib/inc\xmc_dac.h **** 
 293:C:/Workspaces/DAVE-4.4.2-64Bit/_PKDS_TSTS06_811_X47_V1_0/Libraries/XMCLib/inc\xmc_dac.h ****   struct
 294:C:/Workspaces/DAVE-4.4.2-64Bit/_PKDS_TSTS06_811_X47_V1_0/Libraries/XMCLib/inc\xmc_dac.h ****   {
 295:C:/Workspaces/DAVE-4.4.2-64Bit/_PKDS_TSTS06_811_X47_V1_0/Libraries/XMCLib/inc\xmc_dac.h ****     __IO uint32_t low;
 296:C:/Workspaces/DAVE-4.4.2-64Bit/_PKDS_TSTS06_811_X47_V1_0/Libraries/XMCLib/inc\xmc_dac.h ****     __IO uint32_t high;
 297:C:/Workspaces/DAVE-4.4.2-64Bit/_PKDS_TSTS06_811_X47_V1_0/Libraries/XMCLib/inc\xmc_dac.h ****   } DACCFG[XMC_DAC_NO_CHANNELS];
 298:C:/Workspaces/DAVE-4.4.2-64Bit/_PKDS_TSTS06_811_X47_V1_0/Libraries/XMCLib/inc\xmc_dac.h **** 
 299:C:/Workspaces/DAVE-4.4.2-64Bit/_PKDS_TSTS06_811_X47_V1_0/Libraries/XMCLib/inc\xmc_dac.h ****   __IO uint32_t DACDATA[XMC_DAC_NO_CHANNELS];
 300:C:/Workspaces/DAVE-4.4.2-64Bit/_PKDS_TSTS06_811_X47_V1_0/Libraries/XMCLib/inc\xmc_dac.h ****   __IO uint32_t DAC01DATA;
 301:C:/Workspaces/DAVE-4.4.2-64Bit/_PKDS_TSTS06_811_X47_V1_0/Libraries/XMCLib/inc\xmc_dac.h **** 
 302:C:/Workspaces/DAVE-4.4.2-64Bit/_PKDS_TSTS06_811_X47_V1_0/Libraries/XMCLib/inc\xmc_dac.h ****   struct
 303:C:/Workspaces/DAVE-4.4.2-64Bit/_PKDS_TSTS06_811_X47_V1_0/Libraries/XMCLib/inc\xmc_dac.h ****   {
 304:C:/Workspaces/DAVE-4.4.2-64Bit/_PKDS_TSTS06_811_X47_V1_0/Libraries/XMCLib/inc\xmc_dac.h ****     __IO uint32_t low;
 305:C:/Workspaces/DAVE-4.4.2-64Bit/_PKDS_TSTS06_811_X47_V1_0/Libraries/XMCLib/inc\xmc_dac.h ****     __IO uint32_t high;
 306:C:/Workspaces/DAVE-4.4.2-64Bit/_PKDS_TSTS06_811_X47_V1_0/Libraries/XMCLib/inc\xmc_dac.h ****   } DACPAT[XMC_DAC_NO_CHANNELS];
 307:C:/Workspaces/DAVE-4.4.2-64Bit/_PKDS_TSTS06_811_X47_V1_0/Libraries/XMCLib/inc\xmc_dac.h **** 
 308:C:/Workspaces/DAVE-4.4.2-64Bit/_PKDS_TSTS06_811_X47_V1_0/Libraries/XMCLib/inc\xmc_dac.h **** } XMC_DAC_t;
 309:C:/Workspaces/DAVE-4.4.2-64Bit/_PKDS_TSTS06_811_X47_V1_0/Libraries/XMCLib/inc\xmc_dac.h **** 
 310:C:/Workspaces/DAVE-4.4.2-64Bit/_PKDS_TSTS06_811_X47_V1_0/Libraries/XMCLib/inc\xmc_dac.h **** /*Anonymous structure/union guard start*/
 311:C:/Workspaces/DAVE-4.4.2-64Bit/_PKDS_TSTS06_811_X47_V1_0/Libraries/XMCLib/inc\xmc_dac.h **** #if defined(__CC_ARM)
 312:C:/Workspaces/DAVE-4.4.2-64Bit/_PKDS_TSTS06_811_X47_V1_0/Libraries/XMCLib/inc\xmc_dac.h **** #pragma push
 313:C:/Workspaces/DAVE-4.4.2-64Bit/_PKDS_TSTS06_811_X47_V1_0/Libraries/XMCLib/inc\xmc_dac.h **** #pragma anon_unions
 314:C:/Workspaces/DAVE-4.4.2-64Bit/_PKDS_TSTS06_811_X47_V1_0/Libraries/XMCLib/inc\xmc_dac.h **** #elif defined(__TASKING__)
 315:C:/Workspaces/DAVE-4.4.2-64Bit/_PKDS_TSTS06_811_X47_V1_0/Libraries/XMCLib/inc\xmc_dac.h **** #pragma warning 586
 316:C:/Workspaces/DAVE-4.4.2-64Bit/_PKDS_TSTS06_811_X47_V1_0/Libraries/XMCLib/inc\xmc_dac.h **** #endif
 317:C:/Workspaces/DAVE-4.4.2-64Bit/_PKDS_TSTS06_811_X47_V1_0/Libraries/XMCLib/inc\xmc_dac.h **** 
 318:C:/Workspaces/DAVE-4.4.2-64Bit/_PKDS_TSTS06_811_X47_V1_0/Libraries/XMCLib/inc\xmc_dac.h **** /**
 319:C:/Workspaces/DAVE-4.4.2-64Bit/_PKDS_TSTS06_811_X47_V1_0/Libraries/XMCLib/inc\xmc_dac.h ****  * Channel related configuration
 320:C:/Workspaces/DAVE-4.4.2-64Bit/_PKDS_TSTS06_811_X47_V1_0/Libraries/XMCLib/inc\xmc_dac.h ****  */
 321:C:/Workspaces/DAVE-4.4.2-64Bit/_PKDS_TSTS06_811_X47_V1_0/Libraries/XMCLib/inc\xmc_dac.h **** typedef struct XMC_DAC_CH_CONFIG
 322:C:/Workspaces/DAVE-4.4.2-64Bit/_PKDS_TSTS06_811_X47_V1_0/Libraries/XMCLib/inc\xmc_dac.h **** {
 323:C:/Workspaces/DAVE-4.4.2-64Bit/_PKDS_TSTS06_811_X47_V1_0/Libraries/XMCLib/inc\xmc_dac.h ****   union
 324:C:/Workspaces/DAVE-4.4.2-64Bit/_PKDS_TSTS06_811_X47_V1_0/Libraries/XMCLib/inc\xmc_dac.h ****   {
 325:C:/Workspaces/DAVE-4.4.2-64Bit/_PKDS_TSTS06_811_X47_V1_0/Libraries/XMCLib/inc\xmc_dac.h ****     struct
 326:C:/Workspaces/DAVE-4.4.2-64Bit/_PKDS_TSTS06_811_X47_V1_0/Libraries/XMCLib/inc\xmc_dac.h ****     {
 327:C:/Workspaces/DAVE-4.4.2-64Bit/_PKDS_TSTS06_811_X47_V1_0/Libraries/XMCLib/inc\xmc_dac.h ****       uint32_t : 23;               /**< Not used bits */
 328:C:/Workspaces/DAVE-4.4.2-64Bit/_PKDS_TSTS06_811_X47_V1_0/Libraries/XMCLib/inc\xmc_dac.h ****       uint32_t data_type: 1;       /**< input data type - unsigned / signed */
 329:C:/Workspaces/DAVE-4.4.2-64Bit/_PKDS_TSTS06_811_X47_V1_0/Libraries/XMCLib/inc\xmc_dac.h ****       uint32_t : 4;                /**< Not used bits */
 330:C:/Workspaces/DAVE-4.4.2-64Bit/_PKDS_TSTS06_811_X47_V1_0/Libraries/XMCLib/inc\xmc_dac.h ****       uint32_t output_negation: 1; /**< Negation of the output waveform enabled/disabled */
 331:C:/Workspaces/DAVE-4.4.2-64Bit/_PKDS_TSTS06_811_X47_V1_0/Libraries/XMCLib/inc\xmc_dac.h ****       uint32_t : 3;
 332:C:/Workspaces/DAVE-4.4.2-64Bit/_PKDS_TSTS06_811_X47_V1_0/Libraries/XMCLib/inc\xmc_dac.h ****     };
 333:C:/Workspaces/DAVE-4.4.2-64Bit/_PKDS_TSTS06_811_X47_V1_0/Libraries/XMCLib/inc\xmc_dac.h ****     uint32_t cfg0;
 334:C:/Workspaces/DAVE-4.4.2-64Bit/_PKDS_TSTS06_811_X47_V1_0/Libraries/XMCLib/inc\xmc_dac.h ****   };
 335:C:/Workspaces/DAVE-4.4.2-64Bit/_PKDS_TSTS06_811_X47_V1_0/Libraries/XMCLib/inc\xmc_dac.h ****   union
 336:C:/Workspaces/DAVE-4.4.2-64Bit/_PKDS_TSTS06_811_X47_V1_0/Libraries/XMCLib/inc\xmc_dac.h ****   {
 337:C:/Workspaces/DAVE-4.4.2-64Bit/_PKDS_TSTS06_811_X47_V1_0/Libraries/XMCLib/inc\xmc_dac.h ****     struct
 338:C:/Workspaces/DAVE-4.4.2-64Bit/_PKDS_TSTS06_811_X47_V1_0/Libraries/XMCLib/inc\xmc_dac.h ****     {
 339:C:/Workspaces/DAVE-4.4.2-64Bit/_PKDS_TSTS06_811_X47_V1_0/Libraries/XMCLib/inc\xmc_dac.h ****       uint32_t output_scale: 4; /**< Scale value of type XMC_DAC_CH_OUTPUT_SCALE_t. It includes sca
 340:C:/Workspaces/DAVE-4.4.2-64Bit/_PKDS_TSTS06_811_X47_V1_0/Libraries/XMCLib/inc\xmc_dac.h ****       uint32_t output_offset: 8; /**< offset value */
 341:C:/Workspaces/DAVE-4.4.2-64Bit/_PKDS_TSTS06_811_X47_V1_0/Libraries/XMCLib/inc\xmc_dac.h ****       uint32_t : 20;
 342:C:/Workspaces/DAVE-4.4.2-64Bit/_PKDS_TSTS06_811_X47_V1_0/Libraries/XMCLib/inc\xmc_dac.h ****     };
 343:C:/Workspaces/DAVE-4.4.2-64Bit/_PKDS_TSTS06_811_X47_V1_0/Libraries/XMCLib/inc\xmc_dac.h ****     uint32_t cfg1;
 344:C:/Workspaces/DAVE-4.4.2-64Bit/_PKDS_TSTS06_811_X47_V1_0/Libraries/XMCLib/inc\xmc_dac.h ****   };
 345:C:/Workspaces/DAVE-4.4.2-64Bit/_PKDS_TSTS06_811_X47_V1_0/Libraries/XMCLib/inc\xmc_dac.h **** } XMC_DAC_CH_CONFIG_t;
 346:C:/Workspaces/DAVE-4.4.2-64Bit/_PKDS_TSTS06_811_X47_V1_0/Libraries/XMCLib/inc\xmc_dac.h **** /*Anonymous structure/union guard end*/
 347:C:/Workspaces/DAVE-4.4.2-64Bit/_PKDS_TSTS06_811_X47_V1_0/Libraries/XMCLib/inc\xmc_dac.h **** #if defined(__CC_ARM)
 348:C:/Workspaces/DAVE-4.4.2-64Bit/_PKDS_TSTS06_811_X47_V1_0/Libraries/XMCLib/inc\xmc_dac.h **** #pragma pop
 349:C:/Workspaces/DAVE-4.4.2-64Bit/_PKDS_TSTS06_811_X47_V1_0/Libraries/XMCLib/inc\xmc_dac.h **** #elif defined(__TASKING__)
 350:C:/Workspaces/DAVE-4.4.2-64Bit/_PKDS_TSTS06_811_X47_V1_0/Libraries/XMCLib/inc\xmc_dac.h **** #pragma warning restore
 351:C:/Workspaces/DAVE-4.4.2-64Bit/_PKDS_TSTS06_811_X47_V1_0/Libraries/XMCLib/inc\xmc_dac.h **** #endif
 352:C:/Workspaces/DAVE-4.4.2-64Bit/_PKDS_TSTS06_811_X47_V1_0/Libraries/XMCLib/inc\xmc_dac.h **** /*******************************************************************************
 353:C:/Workspaces/DAVE-4.4.2-64Bit/_PKDS_TSTS06_811_X47_V1_0/Libraries/XMCLib/inc\xmc_dac.h ****  * API PROTOTYPES
 354:C:/Workspaces/DAVE-4.4.2-64Bit/_PKDS_TSTS06_811_X47_V1_0/Libraries/XMCLib/inc\xmc_dac.h ****  *******************************************************************************/
 355:C:/Workspaces/DAVE-4.4.2-64Bit/_PKDS_TSTS06_811_X47_V1_0/Libraries/XMCLib/inc\xmc_dac.h **** 
 356:C:/Workspaces/DAVE-4.4.2-64Bit/_PKDS_TSTS06_811_X47_V1_0/Libraries/XMCLib/inc\xmc_dac.h **** #ifdef __cplusplus
 357:C:/Workspaces/DAVE-4.4.2-64Bit/_PKDS_TSTS06_811_X47_V1_0/Libraries/XMCLib/inc\xmc_dac.h **** extern "C" {
 358:C:/Workspaces/DAVE-4.4.2-64Bit/_PKDS_TSTS06_811_X47_V1_0/Libraries/XMCLib/inc\xmc_dac.h **** #endif
 359:C:/Workspaces/DAVE-4.4.2-64Bit/_PKDS_TSTS06_811_X47_V1_0/Libraries/XMCLib/inc\xmc_dac.h **** 
 360:C:/Workspaces/DAVE-4.4.2-64Bit/_PKDS_TSTS06_811_X47_V1_0/Libraries/XMCLib/inc\xmc_dac.h **** /**
 361:C:/Workspaces/DAVE-4.4.2-64Bit/_PKDS_TSTS06_811_X47_V1_0/Libraries/XMCLib/inc\xmc_dac.h ****  * @param dac Pointer to an instance of DAC module
 362:C:/Workspaces/DAVE-4.4.2-64Bit/_PKDS_TSTS06_811_X47_V1_0/Libraries/XMCLib/inc\xmc_dac.h ****  *
 363:C:/Workspaces/DAVE-4.4.2-64Bit/_PKDS_TSTS06_811_X47_V1_0/Libraries/XMCLib/inc\xmc_dac.h ****  * @return None
 364:C:/Workspaces/DAVE-4.4.2-64Bit/_PKDS_TSTS06_811_X47_V1_0/Libraries/XMCLib/inc\xmc_dac.h ****  *
 365:C:/Workspaces/DAVE-4.4.2-64Bit/_PKDS_TSTS06_811_X47_V1_0/Libraries/XMCLib/inc\xmc_dac.h ****  * \par<b>Description:</b><br>
 366:C:/Workspaces/DAVE-4.4.2-64Bit/_PKDS_TSTS06_811_X47_V1_0/Libraries/XMCLib/inc\xmc_dac.h ****  * Enables DAC clock and releases DAC reset.<br>
 367:C:/Workspaces/DAVE-4.4.2-64Bit/_PKDS_TSTS06_811_X47_V1_0/Libraries/XMCLib/inc\xmc_dac.h ****  *
 368:C:/Workspaces/DAVE-4.4.2-64Bit/_PKDS_TSTS06_811_X47_V1_0/Libraries/XMCLib/inc\xmc_dac.h ****  * \par
 369:C:/Workspaces/DAVE-4.4.2-64Bit/_PKDS_TSTS06_811_X47_V1_0/Libraries/XMCLib/inc\xmc_dac.h ****  * Enabling DAC is the first step of DAC initialisation. This API is called by XMC_DAC_CH_Init().
 370:C:/Workspaces/DAVE-4.4.2-64Bit/_PKDS_TSTS06_811_X47_V1_0/Libraries/XMCLib/inc\xmc_dac.h ****  * DAC clock is enabled by setting \a DAC bit of \a CGATCLR1 register. DAC reset is released by set
 371:C:/Workspaces/DAVE-4.4.2-64Bit/_PKDS_TSTS06_811_X47_V1_0/Libraries/XMCLib/inc\xmc_dac.h ****  *
 372:C:/Workspaces/DAVE-4.4.2-64Bit/_PKDS_TSTS06_811_X47_V1_0/Libraries/XMCLib/inc\xmc_dac.h ****  *
 373:C:/Workspaces/DAVE-4.4.2-64Bit/_PKDS_TSTS06_811_X47_V1_0/Libraries/XMCLib/inc\xmc_dac.h ****  * \par<b>Related APIs:</b><BR>
 374:C:/Workspaces/DAVE-4.4.2-64Bit/_PKDS_TSTS06_811_X47_V1_0/Libraries/XMCLib/inc\xmc_dac.h ****  * XMC_DAC_IsEnabled(), XMC_DAC_Disable(), XMC_DAC_CH_Init()\n\n\n
 375:C:/Workspaces/DAVE-4.4.2-64Bit/_PKDS_TSTS06_811_X47_V1_0/Libraries/XMCLib/inc\xmc_dac.h ****  *
 376:C:/Workspaces/DAVE-4.4.2-64Bit/_PKDS_TSTS06_811_X47_V1_0/Libraries/XMCLib/inc\xmc_dac.h ****  */
 377:C:/Workspaces/DAVE-4.4.2-64Bit/_PKDS_TSTS06_811_X47_V1_0/Libraries/XMCLib/inc\xmc_dac.h **** void XMC_DAC_Enable(XMC_DAC_t *const dac);
 378:C:/Workspaces/DAVE-4.4.2-64Bit/_PKDS_TSTS06_811_X47_V1_0/Libraries/XMCLib/inc\xmc_dac.h **** 
 379:C:/Workspaces/DAVE-4.4.2-64Bit/_PKDS_TSTS06_811_X47_V1_0/Libraries/XMCLib/inc\xmc_dac.h **** /**
 380:C:/Workspaces/DAVE-4.4.2-64Bit/_PKDS_TSTS06_811_X47_V1_0/Libraries/XMCLib/inc\xmc_dac.h ****  * @param dac Pointer to an instance of DAC module
 381:C:/Workspaces/DAVE-4.4.2-64Bit/_PKDS_TSTS06_811_X47_V1_0/Libraries/XMCLib/inc\xmc_dac.h ****  *
 382:C:/Workspaces/DAVE-4.4.2-64Bit/_PKDS_TSTS06_811_X47_V1_0/Libraries/XMCLib/inc\xmc_dac.h ****  * @return None
 383:C:/Workspaces/DAVE-4.4.2-64Bit/_PKDS_TSTS06_811_X47_V1_0/Libraries/XMCLib/inc\xmc_dac.h ****  *
 384:C:/Workspaces/DAVE-4.4.2-64Bit/_PKDS_TSTS06_811_X47_V1_0/Libraries/XMCLib/inc\xmc_dac.h ****  * \par<b>Description:</b><br>
 385:C:/Workspaces/DAVE-4.4.2-64Bit/_PKDS_TSTS06_811_X47_V1_0/Libraries/XMCLib/inc\xmc_dac.h ****  * Disables DAC clock and resets DAC.
 386:C:/Workspaces/DAVE-4.4.2-64Bit/_PKDS_TSTS06_811_X47_V1_0/Libraries/XMCLib/inc\xmc_dac.h ****  *
 387:C:/Workspaces/DAVE-4.4.2-64Bit/_PKDS_TSTS06_811_X47_V1_0/Libraries/XMCLib/inc\xmc_dac.h ****  * \par
 388:C:/Workspaces/DAVE-4.4.2-64Bit/_PKDS_TSTS06_811_X47_V1_0/Libraries/XMCLib/inc\xmc_dac.h ****  * DAC clock is disabled by setting \a DAC bit of \a CGATSET1 register. DAC is reset by setting \a 
 389:C:/Workspaces/DAVE-4.4.2-64Bit/_PKDS_TSTS06_811_X47_V1_0/Libraries/XMCLib/inc\xmc_dac.h ****  *
 390:C:/Workspaces/DAVE-4.4.2-64Bit/_PKDS_TSTS06_811_X47_V1_0/Libraries/XMCLib/inc\xmc_dac.h ****  * \par<b>Related APIs:</b><BR>
 391:C:/Workspaces/DAVE-4.4.2-64Bit/_PKDS_TSTS06_811_X47_V1_0/Libraries/XMCLib/inc\xmc_dac.h ****  * XMC_DAC_IsEnabled(), XMC_DAC_Enable()\n\n\n
 392:C:/Workspaces/DAVE-4.4.2-64Bit/_PKDS_TSTS06_811_X47_V1_0/Libraries/XMCLib/inc\xmc_dac.h ****  *
 393:C:/Workspaces/DAVE-4.4.2-64Bit/_PKDS_TSTS06_811_X47_V1_0/Libraries/XMCLib/inc\xmc_dac.h ****  */
 394:C:/Workspaces/DAVE-4.4.2-64Bit/_PKDS_TSTS06_811_X47_V1_0/Libraries/XMCLib/inc\xmc_dac.h **** void XMC_DAC_Disable(XMC_DAC_t *const dac);
 395:C:/Workspaces/DAVE-4.4.2-64Bit/_PKDS_TSTS06_811_X47_V1_0/Libraries/XMCLib/inc\xmc_dac.h **** 
 396:C:/Workspaces/DAVE-4.4.2-64Bit/_PKDS_TSTS06_811_X47_V1_0/Libraries/XMCLib/inc\xmc_dac.h **** /**
 397:C:/Workspaces/DAVE-4.4.2-64Bit/_PKDS_TSTS06_811_X47_V1_0/Libraries/XMCLib/inc\xmc_dac.h ****  * @param dac Pointer to an instance of DAC module
 398:C:/Workspaces/DAVE-4.4.2-64Bit/_PKDS_TSTS06_811_X47_V1_0/Libraries/XMCLib/inc\xmc_dac.h ****  *
 399:C:/Workspaces/DAVE-4.4.2-64Bit/_PKDS_TSTS06_811_X47_V1_0/Libraries/XMCLib/inc\xmc_dac.h ****  * @return bool<br>
 400:C:/Workspaces/DAVE-4.4.2-64Bit/_PKDS_TSTS06_811_X47_V1_0/Libraries/XMCLib/inc\xmc_dac.h ****  * true  - if DAC is enabled<br>
 401:C:/Workspaces/DAVE-4.4.2-64Bit/_PKDS_TSTS06_811_X47_V1_0/Libraries/XMCLib/inc\xmc_dac.h ****  * false - if DAC is disabled
 402:C:/Workspaces/DAVE-4.4.2-64Bit/_PKDS_TSTS06_811_X47_V1_0/Libraries/XMCLib/inc\xmc_dac.h ****  *
 403:C:/Workspaces/DAVE-4.4.2-64Bit/_PKDS_TSTS06_811_X47_V1_0/Libraries/XMCLib/inc\xmc_dac.h ****  * \par<b>Description:</b><br>
 404:C:/Workspaces/DAVE-4.4.2-64Bit/_PKDS_TSTS06_811_X47_V1_0/Libraries/XMCLib/inc\xmc_dac.h ****  * Returns the state of the DAC.
 405:C:/Workspaces/DAVE-4.4.2-64Bit/_PKDS_TSTS06_811_X47_V1_0/Libraries/XMCLib/inc\xmc_dac.h ****  *
 406:C:/Workspaces/DAVE-4.4.2-64Bit/_PKDS_TSTS06_811_X47_V1_0/Libraries/XMCLib/inc\xmc_dac.h ****  * \par
 407:C:/Workspaces/DAVE-4.4.2-64Bit/_PKDS_TSTS06_811_X47_V1_0/Libraries/XMCLib/inc\xmc_dac.h ****  * DAC enabled status is determined by referring to \a DACRS bit of \a PRSTAT1 register.
 408:C:/Workspaces/DAVE-4.4.2-64Bit/_PKDS_TSTS06_811_X47_V1_0/Libraries/XMCLib/inc\xmc_dac.h ****  *
 409:C:/Workspaces/DAVE-4.4.2-64Bit/_PKDS_TSTS06_811_X47_V1_0/Libraries/XMCLib/inc\xmc_dac.h ****  * \par<b>Related APIs:</b><BR>
 410:C:/Workspaces/DAVE-4.4.2-64Bit/_PKDS_TSTS06_811_X47_V1_0/Libraries/XMCLib/inc\xmc_dac.h ****  * XMC_DAC_Enable(), XMC_DAC_Disable()\n\n\n
 411:C:/Workspaces/DAVE-4.4.2-64Bit/_PKDS_TSTS06_811_X47_V1_0/Libraries/XMCLib/inc\xmc_dac.h ****  *
 412:C:/Workspaces/DAVE-4.4.2-64Bit/_PKDS_TSTS06_811_X47_V1_0/Libraries/XMCLib/inc\xmc_dac.h ****  */
 413:C:/Workspaces/DAVE-4.4.2-64Bit/_PKDS_TSTS06_811_X47_V1_0/Libraries/XMCLib/inc\xmc_dac.h **** bool XMC_DAC_IsEnabled(const XMC_DAC_t *const dac);
 414:C:/Workspaces/DAVE-4.4.2-64Bit/_PKDS_TSTS06_811_X47_V1_0/Libraries/XMCLib/inc\xmc_dac.h **** 
 415:C:/Workspaces/DAVE-4.4.2-64Bit/_PKDS_TSTS06_811_X47_V1_0/Libraries/XMCLib/inc\xmc_dac.h **** /**
 416:C:/Workspaces/DAVE-4.4.2-64Bit/_PKDS_TSTS06_811_X47_V1_0/Libraries/XMCLib/inc\xmc_dac.h ****  * @param dac Pointer to an instance of DAC module
 417:C:/Workspaces/DAVE-4.4.2-64Bit/_PKDS_TSTS06_811_X47_V1_0/Libraries/XMCLib/inc\xmc_dac.h ****  *
 418:C:/Workspaces/DAVE-4.4.2-64Bit/_PKDS_TSTS06_811_X47_V1_0/Libraries/XMCLib/inc\xmc_dac.h ****  * @return None
 419:C:/Workspaces/DAVE-4.4.2-64Bit/_PKDS_TSTS06_811_X47_V1_0/Libraries/XMCLib/inc\xmc_dac.h ****  *
 420:C:/Workspaces/DAVE-4.4.2-64Bit/_PKDS_TSTS06_811_X47_V1_0/Libraries/XMCLib/inc\xmc_dac.h ****  * \par<b>Description:</b><br>
 421:C:/Workspaces/DAVE-4.4.2-64Bit/_PKDS_TSTS06_811_X47_V1_0/Libraries/XMCLib/inc\xmc_dac.h ****  * DAC switches to Simultaneous data mode from Independent data mode.
 422:C:/Workspaces/DAVE-4.4.2-64Bit/_PKDS_TSTS06_811_X47_V1_0/Libraries/XMCLib/inc\xmc_dac.h ****  *
 423:C:/Workspaces/DAVE-4.4.2-64Bit/_PKDS_TSTS06_811_X47_V1_0/Libraries/XMCLib/inc\xmc_dac.h ****  * \par
 424:C:/Workspaces/DAVE-4.4.2-64Bit/_PKDS_TSTS06_811_X47_V1_0/Libraries/XMCLib/inc\xmc_dac.h ****  * Independent data mode is the default data mode.
 425:C:/Workspaces/DAVE-4.4.2-64Bit/_PKDS_TSTS06_811_X47_V1_0/Libraries/XMCLib/inc\xmc_dac.h ****  * Simultaneous data mode is enabled by setting \a DATMOD bit of \a DAC0CFG1 register.
 426:C:/Workspaces/DAVE-4.4.2-64Bit/_PKDS_TSTS06_811_X47_V1_0/Libraries/XMCLib/inc\xmc_dac.h ****  *
 427:C:/Workspaces/DAVE-4.4.2-64Bit/_PKDS_TSTS06_811_X47_V1_0/Libraries/XMCLib/inc\xmc_dac.h ****  * \par<b>Note:</b><br>
 428:C:/Workspaces/DAVE-4.4.2-64Bit/_PKDS_TSTS06_811_X47_V1_0/Libraries/XMCLib/inc\xmc_dac.h ****  * Set channel 0 and channel 1 to Data mode before calling this API.
 429:C:/Workspaces/DAVE-4.4.2-64Bit/_PKDS_TSTS06_811_X47_V1_0/Libraries/XMCLib/inc\xmc_dac.h ****  *
 430:C:/Workspaces/DAVE-4.4.2-64Bit/_PKDS_TSTS06_811_X47_V1_0/Libraries/XMCLib/inc\xmc_dac.h ****  * \par<b>Related APIs:</b><BR>
 431:C:/Workspaces/DAVE-4.4.2-64Bit/_PKDS_TSTS06_811_X47_V1_0/Libraries/XMCLib/inc\xmc_dac.h ****  * XMC_DAC_CH_StartSingleValueMode(), XMC_DAC_CH_StartDataMode(), XMC_DAC_SimultaneousWrite(), XMC_
 432:C:/Workspaces/DAVE-4.4.2-64Bit/_PKDS_TSTS06_811_X47_V1_0/Libraries/XMCLib/inc\xmc_dac.h ****  *
 433:C:/Workspaces/DAVE-4.4.2-64Bit/_PKDS_TSTS06_811_X47_V1_0/Libraries/XMCLib/inc\xmc_dac.h ****  */
 434:C:/Workspaces/DAVE-4.4.2-64Bit/_PKDS_TSTS06_811_X47_V1_0/Libraries/XMCLib/inc\xmc_dac.h **** __STATIC_INLINE void XMC_DAC_EnableSimultaneousDataMode(XMC_DAC_t *const dac)
 435:C:/Workspaces/DAVE-4.4.2-64Bit/_PKDS_TSTS06_811_X47_V1_0/Libraries/XMCLib/inc\xmc_dac.h **** {
 436:C:/Workspaces/DAVE-4.4.2-64Bit/_PKDS_TSTS06_811_X47_V1_0/Libraries/XMCLib/inc\xmc_dac.h ****   XMC_ASSERT("XMC_DAC_EnableSimultaneousDataMode: dac parameter not valid\n", XMC_DAC_IS_DAC_VALID(
 437:C:/Workspaces/DAVE-4.4.2-64Bit/_PKDS_TSTS06_811_X47_V1_0/Libraries/XMCLib/inc\xmc_dac.h **** 
 438:C:/Workspaces/DAVE-4.4.2-64Bit/_PKDS_TSTS06_811_X47_V1_0/Libraries/XMCLib/inc\xmc_dac.h ****   dac->DACCFG[0].high |= DAC_DAC0CFG1_DATMOD_Msk;
 439:C:/Workspaces/DAVE-4.4.2-64Bit/_PKDS_TSTS06_811_X47_V1_0/Libraries/XMCLib/inc\xmc_dac.h **** }
 440:C:/Workspaces/DAVE-4.4.2-64Bit/_PKDS_TSTS06_811_X47_V1_0/Libraries/XMCLib/inc\xmc_dac.h **** 
 441:C:/Workspaces/DAVE-4.4.2-64Bit/_PKDS_TSTS06_811_X47_V1_0/Libraries/XMCLib/inc\xmc_dac.h **** /**
 442:C:/Workspaces/DAVE-4.4.2-64Bit/_PKDS_TSTS06_811_X47_V1_0/Libraries/XMCLib/inc\xmc_dac.h ****  * @param dac Pointer to an instance of DAC module
 443:C:/Workspaces/DAVE-4.4.2-64Bit/_PKDS_TSTS06_811_X47_V1_0/Libraries/XMCLib/inc\xmc_dac.h ****  *
 444:C:/Workspaces/DAVE-4.4.2-64Bit/_PKDS_TSTS06_811_X47_V1_0/Libraries/XMCLib/inc\xmc_dac.h ****  * @return None
 445:C:/Workspaces/DAVE-4.4.2-64Bit/_PKDS_TSTS06_811_X47_V1_0/Libraries/XMCLib/inc\xmc_dac.h ****  *
 446:C:/Workspaces/DAVE-4.4.2-64Bit/_PKDS_TSTS06_811_X47_V1_0/Libraries/XMCLib/inc\xmc_dac.h ****  * \par<b>Description:</b><br>
 447:C:/Workspaces/DAVE-4.4.2-64Bit/_PKDS_TSTS06_811_X47_V1_0/Libraries/XMCLib/inc\xmc_dac.h ****  * DAC switches to independent data mode from simultaneous Data mode.
 448:C:/Workspaces/DAVE-4.4.2-64Bit/_PKDS_TSTS06_811_X47_V1_0/Libraries/XMCLib/inc\xmc_dac.h ****  *
 449:C:/Workspaces/DAVE-4.4.2-64Bit/_PKDS_TSTS06_811_X47_V1_0/Libraries/XMCLib/inc\xmc_dac.h ****  * \par
 450:C:/Workspaces/DAVE-4.4.2-64Bit/_PKDS_TSTS06_811_X47_V1_0/Libraries/XMCLib/inc\xmc_dac.h ****  * Independent data mode is the default data mode.
 451:C:/Workspaces/DAVE-4.4.2-64Bit/_PKDS_TSTS06_811_X47_V1_0/Libraries/XMCLib/inc\xmc_dac.h ****  * Simultaneous data mode is disabled by clearing \a DATMOD bit of \a DAC0CFG1 register.
 452:C:/Workspaces/DAVE-4.4.2-64Bit/_PKDS_TSTS06_811_X47_V1_0/Libraries/XMCLib/inc\xmc_dac.h ****  *
 453:C:/Workspaces/DAVE-4.4.2-64Bit/_PKDS_TSTS06_811_X47_V1_0/Libraries/XMCLib/inc\xmc_dac.h ****  * \par<b>Related APIs:</b><BR>
 454:C:/Workspaces/DAVE-4.4.2-64Bit/_PKDS_TSTS06_811_X47_V1_0/Libraries/XMCLib/inc\xmc_dac.h ****  * XMC_DAC_CH_StartDataMode(), XMC_DAC_EnableSimultaneousDataMode()\n\n\n
 455:C:/Workspaces/DAVE-4.4.2-64Bit/_PKDS_TSTS06_811_X47_V1_0/Libraries/XMCLib/inc\xmc_dac.h ****  *
 456:C:/Workspaces/DAVE-4.4.2-64Bit/_PKDS_TSTS06_811_X47_V1_0/Libraries/XMCLib/inc\xmc_dac.h ****  */
 457:C:/Workspaces/DAVE-4.4.2-64Bit/_PKDS_TSTS06_811_X47_V1_0/Libraries/XMCLib/inc\xmc_dac.h **** __STATIC_INLINE void XMC_DAC_DisableSimultaneousDataMode(XMC_DAC_t *const dac)
 458:C:/Workspaces/DAVE-4.4.2-64Bit/_PKDS_TSTS06_811_X47_V1_0/Libraries/XMCLib/inc\xmc_dac.h **** {
 459:C:/Workspaces/DAVE-4.4.2-64Bit/_PKDS_TSTS06_811_X47_V1_0/Libraries/XMCLib/inc\xmc_dac.h ****   XMC_ASSERT("XMC_DAC_DisableSimultaneousDataMode: dac parameter not valid\n", XMC_DAC_IS_DAC_VALID
 460:C:/Workspaces/DAVE-4.4.2-64Bit/_PKDS_TSTS06_811_X47_V1_0/Libraries/XMCLib/inc\xmc_dac.h **** 
 461:C:/Workspaces/DAVE-4.4.2-64Bit/_PKDS_TSTS06_811_X47_V1_0/Libraries/XMCLib/inc\xmc_dac.h ****   dac->DACCFG[0].high &= ~DAC_DAC0CFG1_DATMOD_Msk;
 462:C:/Workspaces/DAVE-4.4.2-64Bit/_PKDS_TSTS06_811_X47_V1_0/Libraries/XMCLib/inc\xmc_dac.h **** }
 463:C:/Workspaces/DAVE-4.4.2-64Bit/_PKDS_TSTS06_811_X47_V1_0/Libraries/XMCLib/inc\xmc_dac.h **** 
 464:C:/Workspaces/DAVE-4.4.2-64Bit/_PKDS_TSTS06_811_X47_V1_0/Libraries/XMCLib/inc\xmc_dac.h **** /**
 465:C:/Workspaces/DAVE-4.4.2-64Bit/_PKDS_TSTS06_811_X47_V1_0/Libraries/XMCLib/inc\xmc_dac.h ****  * @param dac Pointer to an instance of DAC module
 466:C:/Workspaces/DAVE-4.4.2-64Bit/_PKDS_TSTS06_811_X47_V1_0/Libraries/XMCLib/inc\xmc_dac.h ****  * @param data0 Data for DAC channel 0 [0-4095]
 467:C:/Workspaces/DAVE-4.4.2-64Bit/_PKDS_TSTS06_811_X47_V1_0/Libraries/XMCLib/inc\xmc_dac.h ****  * @param data1 Data for DAC channel 1 [0-4095]
 468:C:/Workspaces/DAVE-4.4.2-64Bit/_PKDS_TSTS06_811_X47_V1_0/Libraries/XMCLib/inc\xmc_dac.h ****  *
 469:C:/Workspaces/DAVE-4.4.2-64Bit/_PKDS_TSTS06_811_X47_V1_0/Libraries/XMCLib/inc\xmc_dac.h ****  * @return None
 470:C:/Workspaces/DAVE-4.4.2-64Bit/_PKDS_TSTS06_811_X47_V1_0/Libraries/XMCLib/inc\xmc_dac.h ****  *
 471:C:/Workspaces/DAVE-4.4.2-64Bit/_PKDS_TSTS06_811_X47_V1_0/Libraries/XMCLib/inc\xmc_dac.h ****  * \par<b>Description:</b><br>
 472:C:/Workspaces/DAVE-4.4.2-64Bit/_PKDS_TSTS06_811_X47_V1_0/Libraries/XMCLib/inc\xmc_dac.h ****  * The data (\e data0 & \e data1) to be converted by channel 0 & channel 1 are updated to \a DATA1 
 473:C:/Workspaces/DAVE-4.4.2-64Bit/_PKDS_TSTS06_811_X47_V1_0/Libraries/XMCLib/inc\xmc_dac.h ****  * data0 and data1 have the range of [0-4095].
 474:C:/Workspaces/DAVE-4.4.2-64Bit/_PKDS_TSTS06_811_X47_V1_0/Libraries/XMCLib/inc\xmc_dac.h ****  *
 475:C:/Workspaces/DAVE-4.4.2-64Bit/_PKDS_TSTS06_811_X47_V1_0/Libraries/XMCLib/inc\xmc_dac.h ****  * \par<b>Note:</b><br>
 476:C:/Workspaces/DAVE-4.4.2-64Bit/_PKDS_TSTS06_811_X47_V1_0/Libraries/XMCLib/inc\xmc_dac.h ****  * Channel 0 and Channel 1 should be set to simultaneous data mode before calling this API.
 477:C:/Workspaces/DAVE-4.4.2-64Bit/_PKDS_TSTS06_811_X47_V1_0/Libraries/XMCLib/inc\xmc_dac.h ****  *
 478:C:/Workspaces/DAVE-4.4.2-64Bit/_PKDS_TSTS06_811_X47_V1_0/Libraries/XMCLib/inc\xmc_dac.h ****  * \par<b>Related APIs:</b><BR>
 479:C:/Workspaces/DAVE-4.4.2-64Bit/_PKDS_TSTS06_811_X47_V1_0/Libraries/XMCLib/inc\xmc_dac.h ****  * XMC_DAC_EnableSimultaneousDataMode()\n\n\n
 480:C:/Workspaces/DAVE-4.4.2-64Bit/_PKDS_TSTS06_811_X47_V1_0/Libraries/XMCLib/inc\xmc_dac.h ****  *
 481:C:/Workspaces/DAVE-4.4.2-64Bit/_PKDS_TSTS06_811_X47_V1_0/Libraries/XMCLib/inc\xmc_dac.h ****  */
 482:C:/Workspaces/DAVE-4.4.2-64Bit/_PKDS_TSTS06_811_X47_V1_0/Libraries/XMCLib/inc\xmc_dac.h **** __STATIC_INLINE void XMC_DAC_SimultaneousWrite(XMC_DAC_t *const dac, const uint16_t data0, const ui
 483:C:/Workspaces/DAVE-4.4.2-64Bit/_PKDS_TSTS06_811_X47_V1_0/Libraries/XMCLib/inc\xmc_dac.h **** {
 484:C:/Workspaces/DAVE-4.4.2-64Bit/_PKDS_TSTS06_811_X47_V1_0/Libraries/XMCLib/inc\xmc_dac.h ****   XMC_ASSERT("XMC_DAC_SimultaneousWrite: dac parameter not valid\n", XMC_DAC_IS_DAC_VALID(dac));
 485:C:/Workspaces/DAVE-4.4.2-64Bit/_PKDS_TSTS06_811_X47_V1_0/Libraries/XMCLib/inc\xmc_dac.h **** 
 486:C:/Workspaces/DAVE-4.4.2-64Bit/_PKDS_TSTS06_811_X47_V1_0/Libraries/XMCLib/inc\xmc_dac.h ****   dac->DAC01DATA = (data0 << DAC_DAC01DATA_DATA0_Pos) | (data1 << DAC_DAC01DATA_DATA1_Pos);
 487:C:/Workspaces/DAVE-4.4.2-64Bit/_PKDS_TSTS06_811_X47_V1_0/Libraries/XMCLib/inc\xmc_dac.h **** }
 488:C:/Workspaces/DAVE-4.4.2-64Bit/_PKDS_TSTS06_811_X47_V1_0/Libraries/XMCLib/inc\xmc_dac.h **** 
 489:C:/Workspaces/DAVE-4.4.2-64Bit/_PKDS_TSTS06_811_X47_V1_0/Libraries/XMCLib/inc\xmc_dac.h **** /**
 490:C:/Workspaces/DAVE-4.4.2-64Bit/_PKDS_TSTS06_811_X47_V1_0/Libraries/XMCLib/inc\xmc_dac.h ****  * @param dac Pointer to an instance of DAC module
 491:C:/Workspaces/DAVE-4.4.2-64Bit/_PKDS_TSTS06_811_X47_V1_0/Libraries/XMCLib/inc\xmc_dac.h ****  * @param channel DAC channel number
 492:C:/Workspaces/DAVE-4.4.2-64Bit/_PKDS_TSTS06_811_X47_V1_0/Libraries/XMCLib/inc\xmc_dac.h ****  * @param config Pointer to the DAC channel configuration structure
 493:C:/Workspaces/DAVE-4.4.2-64Bit/_PKDS_TSTS06_811_X47_V1_0/Libraries/XMCLib/inc\xmc_dac.h ****  *
 494:C:/Workspaces/DAVE-4.4.2-64Bit/_PKDS_TSTS06_811_X47_V1_0/Libraries/XMCLib/inc\xmc_dac.h ****  * @return None
 495:C:/Workspaces/DAVE-4.4.2-64Bit/_PKDS_TSTS06_811_X47_V1_0/Libraries/XMCLib/inc\xmc_dac.h ****  *
 496:C:/Workspaces/DAVE-4.4.2-64Bit/_PKDS_TSTS06_811_X47_V1_0/Libraries/XMCLib/inc\xmc_dac.h ****  * \par<b>Description:</b><br>
 497:C:/Workspaces/DAVE-4.4.2-64Bit/_PKDS_TSTS06_811_X47_V1_0/Libraries/XMCLib/inc\xmc_dac.h ****  * Initialises and configures the DAC \e channel with the configuration date pointed by \e config.
 498:C:/Workspaces/DAVE-4.4.2-64Bit/_PKDS_TSTS06_811_X47_V1_0/Libraries/XMCLib/inc\xmc_dac.h ****  *
 499:C:/Workspaces/DAVE-4.4.2-64Bit/_PKDS_TSTS06_811_X47_V1_0/Libraries/XMCLib/inc\xmc_dac.h ****  * \par
 500:C:/Workspaces/DAVE-4.4.2-64Bit/_PKDS_TSTS06_811_X47_V1_0/Libraries/XMCLib/inc\xmc_dac.h ****  * DAC channel is initialised by configuring the registers \a DAC0CFG0 and \a DAC0CFG1 registers (f
 501:C:/Workspaces/DAVE-4.4.2-64Bit/_PKDS_TSTS06_811_X47_V1_0/Libraries/XMCLib/inc\xmc_dac.h ****  * It enables the channel output by calling XMC_DAC_CH_EnableOutput().
 502:C:/Workspaces/DAVE-4.4.2-64Bit/_PKDS_TSTS06_811_X47_V1_0/Libraries/XMCLib/inc\xmc_dac.h ****  *
 503:C:/Workspaces/DAVE-4.4.2-64Bit/_PKDS_TSTS06_811_X47_V1_0/Libraries/XMCLib/inc\xmc_dac.h ****  */
 504:C:/Workspaces/DAVE-4.4.2-64Bit/_PKDS_TSTS06_811_X47_V1_0/Libraries/XMCLib/inc\xmc_dac.h **** void XMC_DAC_CH_Init(XMC_DAC_t *const dac, const uint8_t channel, const XMC_DAC_CH_CONFIG_t *const 
 505:C:/Workspaces/DAVE-4.4.2-64Bit/_PKDS_TSTS06_811_X47_V1_0/Libraries/XMCLib/inc\xmc_dac.h **** 
 506:C:/Workspaces/DAVE-4.4.2-64Bit/_PKDS_TSTS06_811_X47_V1_0/Libraries/XMCLib/inc\xmc_dac.h **** /**
 507:C:/Workspaces/DAVE-4.4.2-64Bit/_PKDS_TSTS06_811_X47_V1_0/Libraries/XMCLib/inc\xmc_dac.h ****  * @param dac Pointer to an instance of DAC module
 508:C:/Workspaces/DAVE-4.4.2-64Bit/_PKDS_TSTS06_811_X47_V1_0/Libraries/XMCLib/inc\xmc_dac.h ****  * @param channel DAC channel number
 509:C:/Workspaces/DAVE-4.4.2-64Bit/_PKDS_TSTS06_811_X47_V1_0/Libraries/XMCLib/inc\xmc_dac.h ****  *
 510:C:/Workspaces/DAVE-4.4.2-64Bit/_PKDS_TSTS06_811_X47_V1_0/Libraries/XMCLib/inc\xmc_dac.h ****  * @return None
 511:C:/Workspaces/DAVE-4.4.2-64Bit/_PKDS_TSTS06_811_X47_V1_0/Libraries/XMCLib/inc\xmc_dac.h ****  *
 512:C:/Workspaces/DAVE-4.4.2-64Bit/_PKDS_TSTS06_811_X47_V1_0/Libraries/XMCLib/inc\xmc_dac.h ****  * \par<b>Description:</b><br>
 513:C:/Workspaces/DAVE-4.4.2-64Bit/_PKDS_TSTS06_811_X47_V1_0/Libraries/XMCLib/inc\xmc_dac.h ****  * Channel \a channel output is enabled by setting the \a ANAEN bit of \a DAC0CFG1 register (for ch
 514:C:/Workspaces/DAVE-4.4.2-64Bit/_PKDS_TSTS06_811_X47_V1_0/Libraries/XMCLib/inc\xmc_dac.h ****  *
 515:C:/Workspaces/DAVE-4.4.2-64Bit/_PKDS_TSTS06_811_X47_V1_0/Libraries/XMCLib/inc\xmc_dac.h ****  * \par<b>Note:</b><BR>
 516:C:/Workspaces/DAVE-4.4.2-64Bit/_PKDS_TSTS06_811_X47_V1_0/Libraries/XMCLib/inc\xmc_dac.h ****  * \a tSTARTUP time for DAC analog output starts after the \a ANAEN bit is set to one.
 517:C:/Workspaces/DAVE-4.4.2-64Bit/_PKDS_TSTS06_811_X47_V1_0/Libraries/XMCLib/inc\xmc_dac.h ****  * After the expiry of the startup time the default value is driven to DAC output and a new value c
 518:C:/Workspaces/DAVE-4.4.2-64Bit/_PKDS_TSTS06_811_X47_V1_0/Libraries/XMCLib/inc\xmc_dac.h ****  *
 519:C:/Workspaces/DAVE-4.4.2-64Bit/_PKDS_TSTS06_811_X47_V1_0/Libraries/XMCLib/inc\xmc_dac.h ****  * \par<b>Related APIs:</b><BR>
 520:C:/Workspaces/DAVE-4.4.2-64Bit/_PKDS_TSTS06_811_X47_V1_0/Libraries/XMCLib/inc\xmc_dac.h ****  * XMC_DAC_CH_DisableOutput(), XMC_DAC_CH_IsOutputEnabled()\n\n\n
 521:C:/Workspaces/DAVE-4.4.2-64Bit/_PKDS_TSTS06_811_X47_V1_0/Libraries/XMCLib/inc\xmc_dac.h ****  *
 522:C:/Workspaces/DAVE-4.4.2-64Bit/_PKDS_TSTS06_811_X47_V1_0/Libraries/XMCLib/inc\xmc_dac.h ****  */
 523:C:/Workspaces/DAVE-4.4.2-64Bit/_PKDS_TSTS06_811_X47_V1_0/Libraries/XMCLib/inc\xmc_dac.h **** __STATIC_INLINE void XMC_DAC_CH_EnableOutput(XMC_DAC_t *const dac, const uint8_t channel)
 524:C:/Workspaces/DAVE-4.4.2-64Bit/_PKDS_TSTS06_811_X47_V1_0/Libraries/XMCLib/inc\xmc_dac.h **** {
  27              	 .loc 1 524 1
  28              	 .cfi_startproc
  29              	 
  30              	 
  31              	 
  32 0000 80B4     	 push {r7}
  33              	.LCFI0:
  34              	 .cfi_def_cfa_offset 4
  35              	 .cfi_offset 7,-4
  36 0002 83B0     	 sub sp,sp,#12
  37              	.LCFI1:
  38              	 .cfi_def_cfa_offset 16
  39 0004 00AF     	 add r7,sp,#0
  40              	.LCFI2:
  41              	 .cfi_def_cfa_register 7
  42 0006 7860     	 str r0,[r7,#4]
  43 0008 0B46     	 mov r3,r1
  44 000a FB70     	 strb r3,[r7,#3]
 525:C:/Workspaces/DAVE-4.4.2-64Bit/_PKDS_TSTS06_811_X47_V1_0/Libraries/XMCLib/inc\xmc_dac.h ****   XMC_ASSERT("XMC_DAC_CH_EnableOutput: dac parameter not valid\n", XMC_DAC_IS_DAC_VALID(dac));
 526:C:/Workspaces/DAVE-4.4.2-64Bit/_PKDS_TSTS06_811_X47_V1_0/Libraries/XMCLib/inc\xmc_dac.h ****   XMC_ASSERT("XMC_DAC_CH_EnableOutput: channel parameter not valid\n", XMC_DAC_IS_CHANNEL_VALID(cha
 527:C:/Workspaces/DAVE-4.4.2-64Bit/_PKDS_TSTS06_811_X47_V1_0/Libraries/XMCLib/inc\xmc_dac.h **** 
 528:C:/Workspaces/DAVE-4.4.2-64Bit/_PKDS_TSTS06_811_X47_V1_0/Libraries/XMCLib/inc\xmc_dac.h ****   dac->DACCFG[channel].high |= DAC_DAC0CFG1_ANAEN_Msk;
  45              	 .loc 1 528 29
  46 000c FB78     	 ldrb r3,[r7,#3]
  47 000e 7A68     	 ldr r2,[r7,#4]
  48 0010 DB00     	 lsls r3,r3,#3
  49 0012 1344     	 add r3,r3,r2
  50 0014 9A68     	 ldr r2,[r3,#8]
  51 0016 FB78     	 ldrb r3,[r7,#3]
  52 0018 42F08072 	 orr r2,r2,#16777216
  53 001c 7968     	 ldr r1,[r7,#4]
  54 001e DB00     	 lsls r3,r3,#3
  55 0020 0B44     	 add r3,r3,r1
  56 0022 9A60     	 str r2,[r3,#8]
 529:C:/Workspaces/DAVE-4.4.2-64Bit/_PKDS_TSTS06_811_X47_V1_0/Libraries/XMCLib/inc\xmc_dac.h **** }
  57              	 .loc 1 529 1
  58 0024 00BF     	 nop
  59 0026 0C37     	 adds r7,r7,#12
  60              	.LCFI3:
  61              	 .cfi_def_cfa_offset 4
  62 0028 BD46     	 mov sp,r7
  63              	.LCFI4:
  64              	 .cfi_def_cfa_register 13
  65              	 
  66 002a 5DF8047B 	 ldr r7,[sp],#4
  67              	.LCFI5:
  68              	 .cfi_restore 7
  69              	 .cfi_def_cfa_offset 0
  70 002e 7047     	 bx lr
  71              	 .cfi_endproc
  72              	.LFE136:
  74              	 .section .text.XMC_DAC_CH_EnablePatternSignOutput,"ax",%progbits
  75              	 .align 1
  76              	 .syntax unified
  77              	 .thumb
  78              	 .thumb_func
  79              	 .fpu fpv4-sp-d16
  81              	XMC_DAC_CH_EnablePatternSignOutput:
  82              	.LFB140:
 530:C:/Workspaces/DAVE-4.4.2-64Bit/_PKDS_TSTS06_811_X47_V1_0/Libraries/XMCLib/inc\xmc_dac.h **** 
 531:C:/Workspaces/DAVE-4.4.2-64Bit/_PKDS_TSTS06_811_X47_V1_0/Libraries/XMCLib/inc\xmc_dac.h **** /**
 532:C:/Workspaces/DAVE-4.4.2-64Bit/_PKDS_TSTS06_811_X47_V1_0/Libraries/XMCLib/inc\xmc_dac.h ****  * @param dac Pointer to an instance of DAC module
 533:C:/Workspaces/DAVE-4.4.2-64Bit/_PKDS_TSTS06_811_X47_V1_0/Libraries/XMCLib/inc\xmc_dac.h ****  * @param channel DAC channel number
 534:C:/Workspaces/DAVE-4.4.2-64Bit/_PKDS_TSTS06_811_X47_V1_0/Libraries/XMCLib/inc\xmc_dac.h ****  *
 535:C:/Workspaces/DAVE-4.4.2-64Bit/_PKDS_TSTS06_811_X47_V1_0/Libraries/XMCLib/inc\xmc_dac.h ****  * @return None
 536:C:/Workspaces/DAVE-4.4.2-64Bit/_PKDS_TSTS06_811_X47_V1_0/Libraries/XMCLib/inc\xmc_dac.h ****  *
 537:C:/Workspaces/DAVE-4.4.2-64Bit/_PKDS_TSTS06_811_X47_V1_0/Libraries/XMCLib/inc\xmc_dac.h ****  * \par<b>Description:</b><br>
 538:C:/Workspaces/DAVE-4.4.2-64Bit/_PKDS_TSTS06_811_X47_V1_0/Libraries/XMCLib/inc\xmc_dac.h ****  * Channel \a channel output is disabled by clearing the \a ANAEN bit of \a DAC0CFG1 register (for 
 539:C:/Workspaces/DAVE-4.4.2-64Bit/_PKDS_TSTS06_811_X47_V1_0/Libraries/XMCLib/inc\xmc_dac.h ****  *
 540:C:/Workspaces/DAVE-4.4.2-64Bit/_PKDS_TSTS06_811_X47_V1_0/Libraries/XMCLib/inc\xmc_dac.h ****  * \par
 541:C:/Workspaces/DAVE-4.4.2-64Bit/_PKDS_TSTS06_811_X47_V1_0/Libraries/XMCLib/inc\xmc_dac.h ****  * A call to this API stops driving the converted digital input to its output.
 542:C:/Workspaces/DAVE-4.4.2-64Bit/_PKDS_TSTS06_811_X47_V1_0/Libraries/XMCLib/inc\xmc_dac.h ****  *
 543:C:/Workspaces/DAVE-4.4.2-64Bit/_PKDS_TSTS06_811_X47_V1_0/Libraries/XMCLib/inc\xmc_dac.h ****  * \par<b>Related APIs:</b><BR>
 544:C:/Workspaces/DAVE-4.4.2-64Bit/_PKDS_TSTS06_811_X47_V1_0/Libraries/XMCLib/inc\xmc_dac.h ****  * XMC_DAC_CH_EnableOutput(), XMC_DAC_CH_IsOutputEnabled()\n\n\n
 545:C:/Workspaces/DAVE-4.4.2-64Bit/_PKDS_TSTS06_811_X47_V1_0/Libraries/XMCLib/inc\xmc_dac.h ****  *
 546:C:/Workspaces/DAVE-4.4.2-64Bit/_PKDS_TSTS06_811_X47_V1_0/Libraries/XMCLib/inc\xmc_dac.h ****  */
 547:C:/Workspaces/DAVE-4.4.2-64Bit/_PKDS_TSTS06_811_X47_V1_0/Libraries/XMCLib/inc\xmc_dac.h **** __STATIC_INLINE void XMC_DAC_CH_DisableOutput(XMC_DAC_t *const dac, const uint8_t channel)
 548:C:/Workspaces/DAVE-4.4.2-64Bit/_PKDS_TSTS06_811_X47_V1_0/Libraries/XMCLib/inc\xmc_dac.h **** {
 549:C:/Workspaces/DAVE-4.4.2-64Bit/_PKDS_TSTS06_811_X47_V1_0/Libraries/XMCLib/inc\xmc_dac.h ****   XMC_ASSERT("XMC_DAC_CH_DisableOutput: dac parameter not valid\n", XMC_DAC_IS_DAC_VALID(dac));
 550:C:/Workspaces/DAVE-4.4.2-64Bit/_PKDS_TSTS06_811_X47_V1_0/Libraries/XMCLib/inc\xmc_dac.h ****   XMC_ASSERT("XMC_DAC_CH_DisableOutput: channel parameter not valid\n", XMC_DAC_IS_CHANNEL_VALID(ch
 551:C:/Workspaces/DAVE-4.4.2-64Bit/_PKDS_TSTS06_811_X47_V1_0/Libraries/XMCLib/inc\xmc_dac.h **** 
 552:C:/Workspaces/DAVE-4.4.2-64Bit/_PKDS_TSTS06_811_X47_V1_0/Libraries/XMCLib/inc\xmc_dac.h ****   dac->DACCFG[channel].high &= ~DAC_DAC0CFG1_ANAEN_Msk;
 553:C:/Workspaces/DAVE-4.4.2-64Bit/_PKDS_TSTS06_811_X47_V1_0/Libraries/XMCLib/inc\xmc_dac.h **** }
 554:C:/Workspaces/DAVE-4.4.2-64Bit/_PKDS_TSTS06_811_X47_V1_0/Libraries/XMCLib/inc\xmc_dac.h **** 
 555:C:/Workspaces/DAVE-4.4.2-64Bit/_PKDS_TSTS06_811_X47_V1_0/Libraries/XMCLib/inc\xmc_dac.h **** /**
 556:C:/Workspaces/DAVE-4.4.2-64Bit/_PKDS_TSTS06_811_X47_V1_0/Libraries/XMCLib/inc\xmc_dac.h ****  * @param dac Pointer to an instance of DAC module
 557:C:/Workspaces/DAVE-4.4.2-64Bit/_PKDS_TSTS06_811_X47_V1_0/Libraries/XMCLib/inc\xmc_dac.h ****  * @param channel DAC channel number
 558:C:/Workspaces/DAVE-4.4.2-64Bit/_PKDS_TSTS06_811_X47_V1_0/Libraries/XMCLib/inc\xmc_dac.h ****  *
 559:C:/Workspaces/DAVE-4.4.2-64Bit/_PKDS_TSTS06_811_X47_V1_0/Libraries/XMCLib/inc\xmc_dac.h ****  * @return bool <BR>
 560:C:/Workspaces/DAVE-4.4.2-64Bit/_PKDS_TSTS06_811_X47_V1_0/Libraries/XMCLib/inc\xmc_dac.h ****  * true  - if analog output is enabled <BR>
 561:C:/Workspaces/DAVE-4.4.2-64Bit/_PKDS_TSTS06_811_X47_V1_0/Libraries/XMCLib/inc\xmc_dac.h ****  * false - if analog output is disabled <BR>
 562:C:/Workspaces/DAVE-4.4.2-64Bit/_PKDS_TSTS06_811_X47_V1_0/Libraries/XMCLib/inc\xmc_dac.h ****  *
 563:C:/Workspaces/DAVE-4.4.2-64Bit/_PKDS_TSTS06_811_X47_V1_0/Libraries/XMCLib/inc\xmc_dac.h ****  * \par<b>Description:</b><br>
 564:C:/Workspaces/DAVE-4.4.2-64Bit/_PKDS_TSTS06_811_X47_V1_0/Libraries/XMCLib/inc\xmc_dac.h ****  * Returns the status of DAC analog output.
 565:C:/Workspaces/DAVE-4.4.2-64Bit/_PKDS_TSTS06_811_X47_V1_0/Libraries/XMCLib/inc\xmc_dac.h ****  *
 566:C:/Workspaces/DAVE-4.4.2-64Bit/_PKDS_TSTS06_811_X47_V1_0/Libraries/XMCLib/inc\xmc_dac.h ****  * \par
 567:C:/Workspaces/DAVE-4.4.2-64Bit/_PKDS_TSTS06_811_X47_V1_0/Libraries/XMCLib/inc\xmc_dac.h ****  * Channel \a channel output enabled or disabled is determined by reading the \a ANAEN bit of \a DA
 568:C:/Workspaces/DAVE-4.4.2-64Bit/_PKDS_TSTS06_811_X47_V1_0/Libraries/XMCLib/inc\xmc_dac.h ****  *
 569:C:/Workspaces/DAVE-4.4.2-64Bit/_PKDS_TSTS06_811_X47_V1_0/Libraries/XMCLib/inc\xmc_dac.h ****  * \par<b>Related APIs:</b><BR>
 570:C:/Workspaces/DAVE-4.4.2-64Bit/_PKDS_TSTS06_811_X47_V1_0/Libraries/XMCLib/inc\xmc_dac.h ****  * XMC_DAC_CH_EnableOutput(), XMC_DAC_CH_DisableOutput()\n\n\n
 571:C:/Workspaces/DAVE-4.4.2-64Bit/_PKDS_TSTS06_811_X47_V1_0/Libraries/XMCLib/inc\xmc_dac.h ****  *
 572:C:/Workspaces/DAVE-4.4.2-64Bit/_PKDS_TSTS06_811_X47_V1_0/Libraries/XMCLib/inc\xmc_dac.h ****  */
 573:C:/Workspaces/DAVE-4.4.2-64Bit/_PKDS_TSTS06_811_X47_V1_0/Libraries/XMCLib/inc\xmc_dac.h **** __STATIC_INLINE bool XMC_DAC_CH_IsOutputEnabled(const XMC_DAC_t *const dac, const uint8_t channel)
 574:C:/Workspaces/DAVE-4.4.2-64Bit/_PKDS_TSTS06_811_X47_V1_0/Libraries/XMCLib/inc\xmc_dac.h **** {
 575:C:/Workspaces/DAVE-4.4.2-64Bit/_PKDS_TSTS06_811_X47_V1_0/Libraries/XMCLib/inc\xmc_dac.h ****   XMC_ASSERT("XMC_DAC_CH_IsOutputEnabled: dac parameter not valid\n", XMC_DAC_IS_DAC_VALID(dac));
 576:C:/Workspaces/DAVE-4.4.2-64Bit/_PKDS_TSTS06_811_X47_V1_0/Libraries/XMCLib/inc\xmc_dac.h ****   XMC_ASSERT("XMC_DAC_CH_IsOutputEnabled: channel parameter not valid\n", XMC_DAC_IS_CHANNEL_VALID(
 577:C:/Workspaces/DAVE-4.4.2-64Bit/_PKDS_TSTS06_811_X47_V1_0/Libraries/XMCLib/inc\xmc_dac.h **** 
 578:C:/Workspaces/DAVE-4.4.2-64Bit/_PKDS_TSTS06_811_X47_V1_0/Libraries/XMCLib/inc\xmc_dac.h ****   return (bool)(dac->DACCFG[channel].high & DAC_DAC0CFG1_ANAEN_Msk);
 579:C:/Workspaces/DAVE-4.4.2-64Bit/_PKDS_TSTS06_811_X47_V1_0/Libraries/XMCLib/inc\xmc_dac.h **** }
 580:C:/Workspaces/DAVE-4.4.2-64Bit/_PKDS_TSTS06_811_X47_V1_0/Libraries/XMCLib/inc\xmc_dac.h **** 
 581:C:/Workspaces/DAVE-4.4.2-64Bit/_PKDS_TSTS06_811_X47_V1_0/Libraries/XMCLib/inc\xmc_dac.h **** /**
 582:C:/Workspaces/DAVE-4.4.2-64Bit/_PKDS_TSTS06_811_X47_V1_0/Libraries/XMCLib/inc\xmc_dac.h ****  * @param dac Pointer to an instance of DAC module
 583:C:/Workspaces/DAVE-4.4.2-64Bit/_PKDS_TSTS06_811_X47_V1_0/Libraries/XMCLib/inc\xmc_dac.h ****  * @param channel DAC channel number
 584:C:/Workspaces/DAVE-4.4.2-64Bit/_PKDS_TSTS06_811_X47_V1_0/Libraries/XMCLib/inc\xmc_dac.h ****  * @param data Data to be written  [0-4095]
 585:C:/Workspaces/DAVE-4.4.2-64Bit/_PKDS_TSTS06_811_X47_V1_0/Libraries/XMCLib/inc\xmc_dac.h ****  *
 586:C:/Workspaces/DAVE-4.4.2-64Bit/_PKDS_TSTS06_811_X47_V1_0/Libraries/XMCLib/inc\xmc_dac.h ****  * @return None
 587:C:/Workspaces/DAVE-4.4.2-64Bit/_PKDS_TSTS06_811_X47_V1_0/Libraries/XMCLib/inc\xmc_dac.h ****  *
 588:C:/Workspaces/DAVE-4.4.2-64Bit/_PKDS_TSTS06_811_X47_V1_0/Libraries/XMCLib/inc\xmc_dac.h ****  * \par<b>Description:</b><br>
 589:C:/Workspaces/DAVE-4.4.2-64Bit/_PKDS_TSTS06_811_X47_V1_0/Libraries/XMCLib/inc\xmc_dac.h ****  * Writes the \e data to the \e channel's DATA register.
 590:C:/Workspaces/DAVE-4.4.2-64Bit/_PKDS_TSTS06_811_X47_V1_0/Libraries/XMCLib/inc\xmc_dac.h ****  *
 591:C:/Workspaces/DAVE-4.4.2-64Bit/_PKDS_TSTS06_811_X47_V1_0/Libraries/XMCLib/inc\xmc_dac.h ****  * \par
 592:C:/Workspaces/DAVE-4.4.2-64Bit/_PKDS_TSTS06_811_X47_V1_0/Libraries/XMCLib/inc\xmc_dac.h ****  * The \e data is then converted and driven to the output.
 593:C:/Workspaces/DAVE-4.4.2-64Bit/_PKDS_TSTS06_811_X47_V1_0/Libraries/XMCLib/inc\xmc_dac.h ****  * If the trigger is set, On a trigger event the data in DATA register is converted and driven to \
 594:C:/Workspaces/DAVE-4.4.2-64Bit/_PKDS_TSTS06_811_X47_V1_0/Libraries/XMCLib/inc\xmc_dac.h ****  * Data \a data is written to the \a channel by loading \a data to \a DATA0 bit-field of \a DAC0DAT
 595:C:/Workspaces/DAVE-4.4.2-64Bit/_PKDS_TSTS06_811_X47_V1_0/Libraries/XMCLib/inc\xmc_dac.h ****  * data has the range of [0-4095].
 596:C:/Workspaces/DAVE-4.4.2-64Bit/_PKDS_TSTS06_811_X47_V1_0/Libraries/XMCLib/inc\xmc_dac.h ****  *
 597:C:/Workspaces/DAVE-4.4.2-64Bit/_PKDS_TSTS06_811_X47_V1_0/Libraries/XMCLib/inc\xmc_dac.h ****  * \par<b>Note:</b><br>
 598:C:/Workspaces/DAVE-4.4.2-64Bit/_PKDS_TSTS06_811_X47_V1_0/Libraries/XMCLib/inc\xmc_dac.h ****  * The API can be used for Single Value Mode, Data Mode (Individual) & Ramp Mode.
 599:C:/Workspaces/DAVE-4.4.2-64Bit/_PKDS_TSTS06_811_X47_V1_0/Libraries/XMCLib/inc\xmc_dac.h ****  * Call XMC_DAC_CH_EnableOutput() API to enable analog output.
 600:C:/Workspaces/DAVE-4.4.2-64Bit/_PKDS_TSTS06_811_X47_V1_0/Libraries/XMCLib/inc\xmc_dac.h ****  *
 601:C:/Workspaces/DAVE-4.4.2-64Bit/_PKDS_TSTS06_811_X47_V1_0/Libraries/XMCLib/inc\xmc_dac.h ****  * \par<b>Related APIs:</b><BR>
 602:C:/Workspaces/DAVE-4.4.2-64Bit/_PKDS_TSTS06_811_X47_V1_0/Libraries/XMCLib/inc\xmc_dac.h ****  * XMC_DAC_CH_StartSingleValueMode(), XMC_DAC_CH_StartDataMode(), XMC_DAC_CH_StartRampMode()\n\n\n
 603:C:/Workspaces/DAVE-4.4.2-64Bit/_PKDS_TSTS06_811_X47_V1_0/Libraries/XMCLib/inc\xmc_dac.h ****  *
 604:C:/Workspaces/DAVE-4.4.2-64Bit/_PKDS_TSTS06_811_X47_V1_0/Libraries/XMCLib/inc\xmc_dac.h ****  */
 605:C:/Workspaces/DAVE-4.4.2-64Bit/_PKDS_TSTS06_811_X47_V1_0/Libraries/XMCLib/inc\xmc_dac.h **** __STATIC_INLINE void XMC_DAC_CH_Write(XMC_DAC_t *const dac, const uint8_t channel, const uint16_t d
 606:C:/Workspaces/DAVE-4.4.2-64Bit/_PKDS_TSTS06_811_X47_V1_0/Libraries/XMCLib/inc\xmc_dac.h **** {
 607:C:/Workspaces/DAVE-4.4.2-64Bit/_PKDS_TSTS06_811_X47_V1_0/Libraries/XMCLib/inc\xmc_dac.h ****   XMC_ASSERT("XMC_DAC_CH_Write: dac parameter not valid\n", XMC_DAC_IS_DAC_VALID(dac));
 608:C:/Workspaces/DAVE-4.4.2-64Bit/_PKDS_TSTS06_811_X47_V1_0/Libraries/XMCLib/inc\xmc_dac.h ****   XMC_ASSERT("XMC_DAC_CH_Write: channel parameter not valid\n", XMC_DAC_IS_CHANNEL_VALID(channel));
 609:C:/Workspaces/DAVE-4.4.2-64Bit/_PKDS_TSTS06_811_X47_V1_0/Libraries/XMCLib/inc\xmc_dac.h **** 
 610:C:/Workspaces/DAVE-4.4.2-64Bit/_PKDS_TSTS06_811_X47_V1_0/Libraries/XMCLib/inc\xmc_dac.h ****   dac->DACDATA[channel] = data;
 611:C:/Workspaces/DAVE-4.4.2-64Bit/_PKDS_TSTS06_811_X47_V1_0/Libraries/XMCLib/inc\xmc_dac.h **** }
 612:C:/Workspaces/DAVE-4.4.2-64Bit/_PKDS_TSTS06_811_X47_V1_0/Libraries/XMCLib/inc\xmc_dac.h **** 
 613:C:/Workspaces/DAVE-4.4.2-64Bit/_PKDS_TSTS06_811_X47_V1_0/Libraries/XMCLib/inc\xmc_dac.h **** /**
 614:C:/Workspaces/DAVE-4.4.2-64Bit/_PKDS_TSTS06_811_X47_V1_0/Libraries/XMCLib/inc\xmc_dac.h ****  * @param dac Pointer to an instance of DAC module
 615:C:/Workspaces/DAVE-4.4.2-64Bit/_PKDS_TSTS06_811_X47_V1_0/Libraries/XMCLib/inc\xmc_dac.h ****  * @param channel DAC channel number
 616:C:/Workspaces/DAVE-4.4.2-64Bit/_PKDS_TSTS06_811_X47_V1_0/Libraries/XMCLib/inc\xmc_dac.h ****  *
 617:C:/Workspaces/DAVE-4.4.2-64Bit/_PKDS_TSTS06_811_X47_V1_0/Libraries/XMCLib/inc\xmc_dac.h ****  * @return None
 618:C:/Workspaces/DAVE-4.4.2-64Bit/_PKDS_TSTS06_811_X47_V1_0/Libraries/XMCLib/inc\xmc_dac.h ****  *
 619:C:/Workspaces/DAVE-4.4.2-64Bit/_PKDS_TSTS06_811_X47_V1_0/Libraries/XMCLib/inc\xmc_dac.h ****  * \par<b>Description:</b><br>
 620:C:/Workspaces/DAVE-4.4.2-64Bit/_PKDS_TSTS06_811_X47_V1_0/Libraries/XMCLib/inc\xmc_dac.h ****  * Sets the \e channel to Single Value Mode by calling XMC_DAC_CH_SetMode().
 621:C:/Workspaces/DAVE-4.4.2-64Bit/_PKDS_TSTS06_811_X47_V1_0/Libraries/XMCLib/inc\xmc_dac.h ****  *
 622:C:/Workspaces/DAVE-4.4.2-64Bit/_PKDS_TSTS06_811_X47_V1_0/Libraries/XMCLib/inc\xmc_dac.h ****  * \par<b>Note:</b><br>
 623:C:/Workspaces/DAVE-4.4.2-64Bit/_PKDS_TSTS06_811_X47_V1_0/Libraries/XMCLib/inc\xmc_dac.h ****  * Call XMC_DAC_CH_Write() API to write the data.
 624:C:/Workspaces/DAVE-4.4.2-64Bit/_PKDS_TSTS06_811_X47_V1_0/Libraries/XMCLib/inc\xmc_dac.h ****  *
 625:C:/Workspaces/DAVE-4.4.2-64Bit/_PKDS_TSTS06_811_X47_V1_0/Libraries/XMCLib/inc\xmc_dac.h ****  * \par<b>Related APIs:</b><BR>
 626:C:/Workspaces/DAVE-4.4.2-64Bit/_PKDS_TSTS06_811_X47_V1_0/Libraries/XMCLib/inc\xmc_dac.h ****  * XMC_DAC_CH_Write()\n\n\n
 627:C:/Workspaces/DAVE-4.4.2-64Bit/_PKDS_TSTS06_811_X47_V1_0/Libraries/XMCLib/inc\xmc_dac.h ****  *
 628:C:/Workspaces/DAVE-4.4.2-64Bit/_PKDS_TSTS06_811_X47_V1_0/Libraries/XMCLib/inc\xmc_dac.h ****  */
 629:C:/Workspaces/DAVE-4.4.2-64Bit/_PKDS_TSTS06_811_X47_V1_0/Libraries/XMCLib/inc\xmc_dac.h **** XMC_DAC_CH_STATUS_t XMC_DAC_CH_StartSingleValueMode(XMC_DAC_t *const dac, const uint8_t channel);
 630:C:/Workspaces/DAVE-4.4.2-64Bit/_PKDS_TSTS06_811_X47_V1_0/Libraries/XMCLib/inc\xmc_dac.h **** 
 631:C:/Workspaces/DAVE-4.4.2-64Bit/_PKDS_TSTS06_811_X47_V1_0/Libraries/XMCLib/inc\xmc_dac.h **** /**
 632:C:/Workspaces/DAVE-4.4.2-64Bit/_PKDS_TSTS06_811_X47_V1_0/Libraries/XMCLib/inc\xmc_dac.h ****  * @param dac Pointer to an instance of DAC module
 633:C:/Workspaces/DAVE-4.4.2-64Bit/_PKDS_TSTS06_811_X47_V1_0/Libraries/XMCLib/inc\xmc_dac.h ****  * @param channel DAC channel number
 634:C:/Workspaces/DAVE-4.4.2-64Bit/_PKDS_TSTS06_811_X47_V1_0/Libraries/XMCLib/inc\xmc_dac.h ****  * @param trigger Data points update trigger
 635:C:/Workspaces/DAVE-4.4.2-64Bit/_PKDS_TSTS06_811_X47_V1_0/Libraries/XMCLib/inc\xmc_dac.h ****  * @param frequency Waveform frequency [Hz]
 636:C:/Workspaces/DAVE-4.4.2-64Bit/_PKDS_TSTS06_811_X47_V1_0/Libraries/XMCLib/inc\xmc_dac.h ****  *
 637:C:/Workspaces/DAVE-4.4.2-64Bit/_PKDS_TSTS06_811_X47_V1_0/Libraries/XMCLib/inc\xmc_dac.h ****  * @return XMC_DAC_CH_STATUS_t status
 638:C:/Workspaces/DAVE-4.4.2-64Bit/_PKDS_TSTS06_811_X47_V1_0/Libraries/XMCLib/inc\xmc_dac.h ****  *
 639:C:/Workspaces/DAVE-4.4.2-64Bit/_PKDS_TSTS06_811_X47_V1_0/Libraries/XMCLib/inc\xmc_dac.h ****  * \par<b>Description:</b><br>
 640:C:/Workspaces/DAVE-4.4.2-64Bit/_PKDS_TSTS06_811_X47_V1_0/Libraries/XMCLib/inc\xmc_dac.h ****  * Sets the \e channel to Data mode. Trigger and frequency are configured.
 641:C:/Workspaces/DAVE-4.4.2-64Bit/_PKDS_TSTS06_811_X47_V1_0/Libraries/XMCLib/inc\xmc_dac.h ****  *
 642:C:/Workspaces/DAVE-4.4.2-64Bit/_PKDS_TSTS06_811_X47_V1_0/Libraries/XMCLib/inc\xmc_dac.h ****  * \par<b>Note:</b><br>
 643:C:/Workspaces/DAVE-4.4.2-64Bit/_PKDS_TSTS06_811_X47_V1_0/Libraries/XMCLib/inc\xmc_dac.h ****  * Call XMC_DAC_CH_Write() API to write the data. Call XMC_DAC_EnableSimultaneousDataMode() to swit
 644:C:/Workspaces/DAVE-4.4.2-64Bit/_PKDS_TSTS06_811_X47_V1_0/Libraries/XMCLib/inc\xmc_dac.h ****  *
 645:C:/Workspaces/DAVE-4.4.2-64Bit/_PKDS_TSTS06_811_X47_V1_0/Libraries/XMCLib/inc\xmc_dac.h ****  * \par<b>Related APIs:</b><BR>
 646:C:/Workspaces/DAVE-4.4.2-64Bit/_PKDS_TSTS06_811_X47_V1_0/Libraries/XMCLib/inc\xmc_dac.h ****  * XMC_DAC_CH_Init(), XMC_DAC_CH_Write(), XMC_DAC_EnableSimultaneousDataMode() \n\n\n
 647:C:/Workspaces/DAVE-4.4.2-64Bit/_PKDS_TSTS06_811_X47_V1_0/Libraries/XMCLib/inc\xmc_dac.h ****  *
 648:C:/Workspaces/DAVE-4.4.2-64Bit/_PKDS_TSTS06_811_X47_V1_0/Libraries/XMCLib/inc\xmc_dac.h ****  */
 649:C:/Workspaces/DAVE-4.4.2-64Bit/_PKDS_TSTS06_811_X47_V1_0/Libraries/XMCLib/inc\xmc_dac.h **** XMC_DAC_CH_STATUS_t XMC_DAC_CH_StartDataMode(XMC_DAC_t *const dac,
 650:C:/Workspaces/DAVE-4.4.2-64Bit/_PKDS_TSTS06_811_X47_V1_0/Libraries/XMCLib/inc\xmc_dac.h ****     const uint8_t channel,
 651:C:/Workspaces/DAVE-4.4.2-64Bit/_PKDS_TSTS06_811_X47_V1_0/Libraries/XMCLib/inc\xmc_dac.h ****     const XMC_DAC_CH_TRIGGER_t trigger,
 652:C:/Workspaces/DAVE-4.4.2-64Bit/_PKDS_TSTS06_811_X47_V1_0/Libraries/XMCLib/inc\xmc_dac.h ****     const uint32_t frequency);
 653:C:/Workspaces/DAVE-4.4.2-64Bit/_PKDS_TSTS06_811_X47_V1_0/Libraries/XMCLib/inc\xmc_dac.h **** 
 654:C:/Workspaces/DAVE-4.4.2-64Bit/_PKDS_TSTS06_811_X47_V1_0/Libraries/XMCLib/inc\xmc_dac.h **** /**
 655:C:/Workspaces/DAVE-4.4.2-64Bit/_PKDS_TSTS06_811_X47_V1_0/Libraries/XMCLib/inc\xmc_dac.h ****  * @param dac Pointer to an instance of DAC module
 656:C:/Workspaces/DAVE-4.4.2-64Bit/_PKDS_TSTS06_811_X47_V1_0/Libraries/XMCLib/inc\xmc_dac.h ****  * @param channel DAC channel number
 657:C:/Workspaces/DAVE-4.4.2-64Bit/_PKDS_TSTS06_811_X47_V1_0/Libraries/XMCLib/inc\xmc_dac.h ****  * @param start Start point of the ramp [0-4095]
 658:C:/Workspaces/DAVE-4.4.2-64Bit/_PKDS_TSTS06_811_X47_V1_0/Libraries/XMCLib/inc\xmc_dac.h ****  * @param stop Stop point of the ramp [0-4095]
 659:C:/Workspaces/DAVE-4.4.2-64Bit/_PKDS_TSTS06_811_X47_V1_0/Libraries/XMCLib/inc\xmc_dac.h ****  * @param trigger Data points update trigger
 660:C:/Workspaces/DAVE-4.4.2-64Bit/_PKDS_TSTS06_811_X47_V1_0/Libraries/XMCLib/inc\xmc_dac.h ****  * @param frequency Ramp frequency in [Hz]
 661:C:/Workspaces/DAVE-4.4.2-64Bit/_PKDS_TSTS06_811_X47_V1_0/Libraries/XMCLib/inc\xmc_dac.h ****  *
 662:C:/Workspaces/DAVE-4.4.2-64Bit/_PKDS_TSTS06_811_X47_V1_0/Libraries/XMCLib/inc\xmc_dac.h ****  * @return XMC_DAC_CH_STATUS_t status
 663:C:/Workspaces/DAVE-4.4.2-64Bit/_PKDS_TSTS06_811_X47_V1_0/Libraries/XMCLib/inc\xmc_dac.h ****  *
 664:C:/Workspaces/DAVE-4.4.2-64Bit/_PKDS_TSTS06_811_X47_V1_0/Libraries/XMCLib/inc\xmc_dac.h ****  * \par<b>Description:</b><br>
 665:C:/Workspaces/DAVE-4.4.2-64Bit/_PKDS_TSTS06_811_X47_V1_0/Libraries/XMCLib/inc\xmc_dac.h ****  * Sets the \e channel to Ramp mode. Trigger, frequency, start and stop values are configured.
 666:C:/Workspaces/DAVE-4.4.2-64Bit/_PKDS_TSTS06_811_X47_V1_0/Libraries/XMCLib/inc\xmc_dac.h ****  * On a \e trigger ramp values are converted and driven to \e channel output.
 667:C:/Workspaces/DAVE-4.4.2-64Bit/_PKDS_TSTS06_811_X47_V1_0/Libraries/XMCLib/inc\xmc_dac.h ****  * Start and stop have the range of [0-4095]. Stop should be equal or greater than start.
 668:C:/Workspaces/DAVE-4.4.2-64Bit/_PKDS_TSTS06_811_X47_V1_0/Libraries/XMCLib/inc\xmc_dac.h ****  *
 669:C:/Workspaces/DAVE-4.4.2-64Bit/_PKDS_TSTS06_811_X47_V1_0/Libraries/XMCLib/inc\xmc_dac.h ****  * \par<b>Note:</b><br>
 670:C:/Workspaces/DAVE-4.4.2-64Bit/_PKDS_TSTS06_811_X47_V1_0/Libraries/XMCLib/inc\xmc_dac.h ****  * If the ramp counter reaches its \e stop value, it restarts from the \e start value with the next
 671:C:/Workspaces/DAVE-4.4.2-64Bit/_PKDS_TSTS06_811_X47_V1_0/Libraries/XMCLib/inc\xmc_dac.h ****  *
 672:C:/Workspaces/DAVE-4.4.2-64Bit/_PKDS_TSTS06_811_X47_V1_0/Libraries/XMCLib/inc\xmc_dac.h ****  * \par<b>Related APIs:</b><BR>
 673:C:/Workspaces/DAVE-4.4.2-64Bit/_PKDS_TSTS06_811_X47_V1_0/Libraries/XMCLib/inc\xmc_dac.h ****  * XMC_DAC_CH_Init(), XMC_DAC_CH_GetRampStart(), XMC_DAC_CH_GetRampStop() \n\n\n
 674:C:/Workspaces/DAVE-4.4.2-64Bit/_PKDS_TSTS06_811_X47_V1_0/Libraries/XMCLib/inc\xmc_dac.h ****  *
 675:C:/Workspaces/DAVE-4.4.2-64Bit/_PKDS_TSTS06_811_X47_V1_0/Libraries/XMCLib/inc\xmc_dac.h ****  */
 676:C:/Workspaces/DAVE-4.4.2-64Bit/_PKDS_TSTS06_811_X47_V1_0/Libraries/XMCLib/inc\xmc_dac.h **** XMC_DAC_CH_STATUS_t XMC_DAC_CH_StartRampMode(XMC_DAC_t *const dac,
 677:C:/Workspaces/DAVE-4.4.2-64Bit/_PKDS_TSTS06_811_X47_V1_0/Libraries/XMCLib/inc\xmc_dac.h ****     const uint8_t channel,
 678:C:/Workspaces/DAVE-4.4.2-64Bit/_PKDS_TSTS06_811_X47_V1_0/Libraries/XMCLib/inc\xmc_dac.h ****     const uint16_t start,
 679:C:/Workspaces/DAVE-4.4.2-64Bit/_PKDS_TSTS06_811_X47_V1_0/Libraries/XMCLib/inc\xmc_dac.h ****     const uint16_t stop,
 680:C:/Workspaces/DAVE-4.4.2-64Bit/_PKDS_TSTS06_811_X47_V1_0/Libraries/XMCLib/inc\xmc_dac.h ****     const XMC_DAC_CH_TRIGGER_t trigger,
 681:C:/Workspaces/DAVE-4.4.2-64Bit/_PKDS_TSTS06_811_X47_V1_0/Libraries/XMCLib/inc\xmc_dac.h ****     const uint32_t frequency);
 682:C:/Workspaces/DAVE-4.4.2-64Bit/_PKDS_TSTS06_811_X47_V1_0/Libraries/XMCLib/inc\xmc_dac.h **** 
 683:C:/Workspaces/DAVE-4.4.2-64Bit/_PKDS_TSTS06_811_X47_V1_0/Libraries/XMCLib/inc\xmc_dac.h **** /**
 684:C:/Workspaces/DAVE-4.4.2-64Bit/_PKDS_TSTS06_811_X47_V1_0/Libraries/XMCLib/inc\xmc_dac.h ****  * @param dac Pointer to an instance of DAC module
 685:C:/Workspaces/DAVE-4.4.2-64Bit/_PKDS_TSTS06_811_X47_V1_0/Libraries/XMCLib/inc\xmc_dac.h ****  * @param channel DAC channel number
 686:C:/Workspaces/DAVE-4.4.2-64Bit/_PKDS_TSTS06_811_X47_V1_0/Libraries/XMCLib/inc\xmc_dac.h ****  * @param pattern Data table of a pattern
 687:C:/Workspaces/DAVE-4.4.2-64Bit/_PKDS_TSTS06_811_X47_V1_0/Libraries/XMCLib/inc\xmc_dac.h ****  * @param sign_output Sign information of the waveform
 688:C:/Workspaces/DAVE-4.4.2-64Bit/_PKDS_TSTS06_811_X47_V1_0/Libraries/XMCLib/inc\xmc_dac.h ****  * @param trigger Data points update trigger
 689:C:/Workspaces/DAVE-4.4.2-64Bit/_PKDS_TSTS06_811_X47_V1_0/Libraries/XMCLib/inc\xmc_dac.h ****  * @param frequency Waveform frequency in [Hz]
 690:C:/Workspaces/DAVE-4.4.2-64Bit/_PKDS_TSTS06_811_X47_V1_0/Libraries/XMCLib/inc\xmc_dac.h ****  *
 691:C:/Workspaces/DAVE-4.4.2-64Bit/_PKDS_TSTS06_811_X47_V1_0/Libraries/XMCLib/inc\xmc_dac.h ****  * @return XMC_DAC_CH_STATUS_t status
 692:C:/Workspaces/DAVE-4.4.2-64Bit/_PKDS_TSTS06_811_X47_V1_0/Libraries/XMCLib/inc\xmc_dac.h ****  *
 693:C:/Workspaces/DAVE-4.4.2-64Bit/_PKDS_TSTS06_811_X47_V1_0/Libraries/XMCLib/inc\xmc_dac.h ****  * \par<b>Description:</b><br>
 694:C:/Workspaces/DAVE-4.4.2-64Bit/_PKDS_TSTS06_811_X47_V1_0/Libraries/XMCLib/inc\xmc_dac.h ****  * Sets the \e channel to Pattern mode. Trigger, frequency, sign output and data are configured.
 695:C:/Workspaces/DAVE-4.4.2-64Bit/_PKDS_TSTS06_811_X47_V1_0/Libraries/XMCLib/inc\xmc_dac.h ****  * On a \e trigger, the \e pattern values are converted and driven to \e channel output.
 696:C:/Workspaces/DAVE-4.4.2-64Bit/_PKDS_TSTS06_811_X47_V1_0/Libraries/XMCLib/inc\xmc_dac.h ****  *
 697:C:/Workspaces/DAVE-4.4.2-64Bit/_PKDS_TSTS06_811_X47_V1_0/Libraries/XMCLib/inc\xmc_dac.h ****  * \par<b>Related APIs:</b><BR>
 698:C:/Workspaces/DAVE-4.4.2-64Bit/_PKDS_TSTS06_811_X47_V1_0/Libraries/XMCLib/inc\xmc_dac.h ****  * XMC_DAC_CH_Init(), XMC_DAC_CH_DisablePatternSignOutput() \n\n\n
 699:C:/Workspaces/DAVE-4.4.2-64Bit/_PKDS_TSTS06_811_X47_V1_0/Libraries/XMCLib/inc\xmc_dac.h ****  *
 700:C:/Workspaces/DAVE-4.4.2-64Bit/_PKDS_TSTS06_811_X47_V1_0/Libraries/XMCLib/inc\xmc_dac.h ****  */
 701:C:/Workspaces/DAVE-4.4.2-64Bit/_PKDS_TSTS06_811_X47_V1_0/Libraries/XMCLib/inc\xmc_dac.h **** XMC_DAC_CH_STATUS_t XMC_DAC_CH_StartPatternMode(XMC_DAC_t *const dac,
 702:C:/Workspaces/DAVE-4.4.2-64Bit/_PKDS_TSTS06_811_X47_V1_0/Libraries/XMCLib/inc\xmc_dac.h ****     const uint8_t channel,
 703:C:/Workspaces/DAVE-4.4.2-64Bit/_PKDS_TSTS06_811_X47_V1_0/Libraries/XMCLib/inc\xmc_dac.h ****     const uint8_t *const pattern,
 704:C:/Workspaces/DAVE-4.4.2-64Bit/_PKDS_TSTS06_811_X47_V1_0/Libraries/XMCLib/inc\xmc_dac.h ****     const XMC_DAC_CH_PATTERN_SIGN_OUTPUT_t sign_output,
 705:C:/Workspaces/DAVE-4.4.2-64Bit/_PKDS_TSTS06_811_X47_V1_0/Libraries/XMCLib/inc\xmc_dac.h ****     const XMC_DAC_CH_TRIGGER_t trigger,
 706:C:/Workspaces/DAVE-4.4.2-64Bit/_PKDS_TSTS06_811_X47_V1_0/Libraries/XMCLib/inc\xmc_dac.h ****     const uint32_t frequency);
 707:C:/Workspaces/DAVE-4.4.2-64Bit/_PKDS_TSTS06_811_X47_V1_0/Libraries/XMCLib/inc\xmc_dac.h **** 
 708:C:/Workspaces/DAVE-4.4.2-64Bit/_PKDS_TSTS06_811_X47_V1_0/Libraries/XMCLib/inc\xmc_dac.h **** /**
 709:C:/Workspaces/DAVE-4.4.2-64Bit/_PKDS_TSTS06_811_X47_V1_0/Libraries/XMCLib/inc\xmc_dac.h ****  * @param dac Pointer to an instance of DAC module
 710:C:/Workspaces/DAVE-4.4.2-64Bit/_PKDS_TSTS06_811_X47_V1_0/Libraries/XMCLib/inc\xmc_dac.h ****  * @param channel DAC channel number
 711:C:/Workspaces/DAVE-4.4.2-64Bit/_PKDS_TSTS06_811_X47_V1_0/Libraries/XMCLib/inc\xmc_dac.h ****  * @param trigger Data points update trigger
 712:C:/Workspaces/DAVE-4.4.2-64Bit/_PKDS_TSTS06_811_X47_V1_0/Libraries/XMCLib/inc\xmc_dac.h ****  * @param frequency Waveform frequency in [Hz]
 713:C:/Workspaces/DAVE-4.4.2-64Bit/_PKDS_TSTS06_811_X47_V1_0/Libraries/XMCLib/inc\xmc_dac.h ****  *
 714:C:/Workspaces/DAVE-4.4.2-64Bit/_PKDS_TSTS06_811_X47_V1_0/Libraries/XMCLib/inc\xmc_dac.h ****  * @return XMC_DAC_CH_STATUS_t status
 715:C:/Workspaces/DAVE-4.4.2-64Bit/_PKDS_TSTS06_811_X47_V1_0/Libraries/XMCLib/inc\xmc_dac.h ****  *
 716:C:/Workspaces/DAVE-4.4.2-64Bit/_PKDS_TSTS06_811_X47_V1_0/Libraries/XMCLib/inc\xmc_dac.h ****  * \par<b>Description:</b><br>
 717:C:/Workspaces/DAVE-4.4.2-64Bit/_PKDS_TSTS06_811_X47_V1_0/Libraries/XMCLib/inc\xmc_dac.h ****  * Sets the \e channel to Noise mode. Trigger and frequency are configured.
 718:C:/Workspaces/DAVE-4.4.2-64Bit/_PKDS_TSTS06_811_X47_V1_0/Libraries/XMCLib/inc\xmc_dac.h ****  * On a \e trigger the DAC starts converting and drives to \e channel output.
 719:C:/Workspaces/DAVE-4.4.2-64Bit/_PKDS_TSTS06_811_X47_V1_0/Libraries/XMCLib/inc\xmc_dac.h ****  *
 720:C:/Workspaces/DAVE-4.4.2-64Bit/_PKDS_TSTS06_811_X47_V1_0/Libraries/XMCLib/inc\xmc_dac.h ****  * \par<b>Related APIs:</b><BR>
 721:C:/Workspaces/DAVE-4.4.2-64Bit/_PKDS_TSTS06_811_X47_V1_0/Libraries/XMCLib/inc\xmc_dac.h ****  * XMC_DAC_CH_Init()\n\n\n
 722:C:/Workspaces/DAVE-4.4.2-64Bit/_PKDS_TSTS06_811_X47_V1_0/Libraries/XMCLib/inc\xmc_dac.h ****  *
 723:C:/Workspaces/DAVE-4.4.2-64Bit/_PKDS_TSTS06_811_X47_V1_0/Libraries/XMCLib/inc\xmc_dac.h ****  */
 724:C:/Workspaces/DAVE-4.4.2-64Bit/_PKDS_TSTS06_811_X47_V1_0/Libraries/XMCLib/inc\xmc_dac.h **** XMC_DAC_CH_STATUS_t XMC_DAC_CH_StartNoiseMode(XMC_DAC_t *const dac,
 725:C:/Workspaces/DAVE-4.4.2-64Bit/_PKDS_TSTS06_811_X47_V1_0/Libraries/XMCLib/inc\xmc_dac.h ****     const uint8_t channel,
 726:C:/Workspaces/DAVE-4.4.2-64Bit/_PKDS_TSTS06_811_X47_V1_0/Libraries/XMCLib/inc\xmc_dac.h ****     const XMC_DAC_CH_TRIGGER_t trigger,
 727:C:/Workspaces/DAVE-4.4.2-64Bit/_PKDS_TSTS06_811_X47_V1_0/Libraries/XMCLib/inc\xmc_dac.h ****     const uint32_t frequency);
 728:C:/Workspaces/DAVE-4.4.2-64Bit/_PKDS_TSTS06_811_X47_V1_0/Libraries/XMCLib/inc\xmc_dac.h **** 
 729:C:/Workspaces/DAVE-4.4.2-64Bit/_PKDS_TSTS06_811_X47_V1_0/Libraries/XMCLib/inc\xmc_dac.h **** /**
 730:C:/Workspaces/DAVE-4.4.2-64Bit/_PKDS_TSTS06_811_X47_V1_0/Libraries/XMCLib/inc\xmc_dac.h ****  * @param dac Pointer to an instance of DAC module
 731:C:/Workspaces/DAVE-4.4.2-64Bit/_PKDS_TSTS06_811_X47_V1_0/Libraries/XMCLib/inc\xmc_dac.h ****  * @param channel DAC channel number
 732:C:/Workspaces/DAVE-4.4.2-64Bit/_PKDS_TSTS06_811_X47_V1_0/Libraries/XMCLib/inc\xmc_dac.h ****  * @param pattern Pointer to the data table
 733:C:/Workspaces/DAVE-4.4.2-64Bit/_PKDS_TSTS06_811_X47_V1_0/Libraries/XMCLib/inc\xmc_dac.h ****  *
 734:C:/Workspaces/DAVE-4.4.2-64Bit/_PKDS_TSTS06_811_X47_V1_0/Libraries/XMCLib/inc\xmc_dac.h ****  * @return None
 735:C:/Workspaces/DAVE-4.4.2-64Bit/_PKDS_TSTS06_811_X47_V1_0/Libraries/XMCLib/inc\xmc_dac.h ****  *
 736:C:/Workspaces/DAVE-4.4.2-64Bit/_PKDS_TSTS06_811_X47_V1_0/Libraries/XMCLib/inc\xmc_dac.h ****  * \par<b>Description:</b><br>
 737:C:/Workspaces/DAVE-4.4.2-64Bit/_PKDS_TSTS06_811_X47_V1_0/Libraries/XMCLib/inc\xmc_dac.h ****  * The data for the Pattern mode is written to the \a DAC0PATL and \a DAC0PATH registers.
 738:C:/Workspaces/DAVE-4.4.2-64Bit/_PKDS_TSTS06_811_X47_V1_0/Libraries/XMCLib/inc\xmc_dac.h ****  * The API is called by XMC_DAC_CH_StartPatternMode().
 739:C:/Workspaces/DAVE-4.4.2-64Bit/_PKDS_TSTS06_811_X47_V1_0/Libraries/XMCLib/inc\xmc_dac.h ****  *
 740:C:/Workspaces/DAVE-4.4.2-64Bit/_PKDS_TSTS06_811_X47_V1_0/Libraries/XMCLib/inc\xmc_dac.h ****  * \par<b>Note:</b><br>
 741:C:/Workspaces/DAVE-4.4.2-64Bit/_PKDS_TSTS06_811_X47_V1_0/Libraries/XMCLib/inc\xmc_dac.h ****  * Call this API if the \a channel is set to Pattern mode.
 742:C:/Workspaces/DAVE-4.4.2-64Bit/_PKDS_TSTS06_811_X47_V1_0/Libraries/XMCLib/inc\xmc_dac.h ****  *
 743:C:/Workspaces/DAVE-4.4.2-64Bit/_PKDS_TSTS06_811_X47_V1_0/Libraries/XMCLib/inc\xmc_dac.h ****  * \par<b>Related APIs:</b><BR>
 744:C:/Workspaces/DAVE-4.4.2-64Bit/_PKDS_TSTS06_811_X47_V1_0/Libraries/XMCLib/inc\xmc_dac.h ****  * XMC_DAC_CH_EnablePatternSignOutput(), XMC_DAC_CH_DisablePatternSignOutput()\n\n\n
 745:C:/Workspaces/DAVE-4.4.2-64Bit/_PKDS_TSTS06_811_X47_V1_0/Libraries/XMCLib/inc\xmc_dac.h ****  *
 746:C:/Workspaces/DAVE-4.4.2-64Bit/_PKDS_TSTS06_811_X47_V1_0/Libraries/XMCLib/inc\xmc_dac.h ****  */
 747:C:/Workspaces/DAVE-4.4.2-64Bit/_PKDS_TSTS06_811_X47_V1_0/Libraries/XMCLib/inc\xmc_dac.h **** void XMC_DAC_CH_SetPattern(XMC_DAC_t *const dac, const uint8_t channel, const uint8_t *const patter
 748:C:/Workspaces/DAVE-4.4.2-64Bit/_PKDS_TSTS06_811_X47_V1_0/Libraries/XMCLib/inc\xmc_dac.h **** 
 749:C:/Workspaces/DAVE-4.4.2-64Bit/_PKDS_TSTS06_811_X47_V1_0/Libraries/XMCLib/inc\xmc_dac.h **** /**
 750:C:/Workspaces/DAVE-4.4.2-64Bit/_PKDS_TSTS06_811_X47_V1_0/Libraries/XMCLib/inc\xmc_dac.h ****  * @param dac Pointer to an instance of DAC module
 751:C:/Workspaces/DAVE-4.4.2-64Bit/_PKDS_TSTS06_811_X47_V1_0/Libraries/XMCLib/inc\xmc_dac.h ****  * @param channel DAC channel number
 752:C:/Workspaces/DAVE-4.4.2-64Bit/_PKDS_TSTS06_811_X47_V1_0/Libraries/XMCLib/inc\xmc_dac.h ****  *
 753:C:/Workspaces/DAVE-4.4.2-64Bit/_PKDS_TSTS06_811_X47_V1_0/Libraries/XMCLib/inc\xmc_dac.h ****  * @return None
 754:C:/Workspaces/DAVE-4.4.2-64Bit/_PKDS_TSTS06_811_X47_V1_0/Libraries/XMCLib/inc\xmc_dac.h ****  *
 755:C:/Workspaces/DAVE-4.4.2-64Bit/_PKDS_TSTS06_811_X47_V1_0/Libraries/XMCLib/inc\xmc_dac.h ****  * \par<b>Description:</b><br>
 756:C:/Workspaces/DAVE-4.4.2-64Bit/_PKDS_TSTS06_811_X47_V1_0/Libraries/XMCLib/inc\xmc_dac.h ****  * Enables the output sign information for Pattern Mode.
 757:C:/Workspaces/DAVE-4.4.2-64Bit/_PKDS_TSTS06_811_X47_V1_0/Libraries/XMCLib/inc\xmc_dac.h ****  *
 758:C:/Workspaces/DAVE-4.4.2-64Bit/_PKDS_TSTS06_811_X47_V1_0/Libraries/XMCLib/inc\xmc_dac.h ****  * \par
 759:C:/Workspaces/DAVE-4.4.2-64Bit/_PKDS_TSTS06_811_X47_V1_0/Libraries/XMCLib/inc\xmc_dac.h ****  * Sign output is enabled by setting \a SIGNEN bit of \a DAC0CFG0 register (for channel 0) / DAC1CF
 760:C:/Workspaces/DAVE-4.4.2-64Bit/_PKDS_TSTS06_811_X47_V1_0/Libraries/XMCLib/inc\xmc_dac.h ****  *
 761:C:/Workspaces/DAVE-4.4.2-64Bit/_PKDS_TSTS06_811_X47_V1_0/Libraries/XMCLib/inc\xmc_dac.h ****  * \par<b>Note:</b><br>
 762:C:/Workspaces/DAVE-4.4.2-64Bit/_PKDS_TSTS06_811_X47_V1_0/Libraries/XMCLib/inc\xmc_dac.h ****  * Call this API if the \e channel is set to Pattern mode.
 763:C:/Workspaces/DAVE-4.4.2-64Bit/_PKDS_TSTS06_811_X47_V1_0/Libraries/XMCLib/inc\xmc_dac.h ****  *
 764:C:/Workspaces/DAVE-4.4.2-64Bit/_PKDS_TSTS06_811_X47_V1_0/Libraries/XMCLib/inc\xmc_dac.h ****  * \par<b>Related APIs:</b><BR>
 765:C:/Workspaces/DAVE-4.4.2-64Bit/_PKDS_TSTS06_811_X47_V1_0/Libraries/XMCLib/inc\xmc_dac.h ****  * XMC_DAC_CH_StartPatternMode(), XMC_DAC_CH_DisablePatternSignOutput()\n\n\n
 766:C:/Workspaces/DAVE-4.4.2-64Bit/_PKDS_TSTS06_811_X47_V1_0/Libraries/XMCLib/inc\xmc_dac.h ****  *
 767:C:/Workspaces/DAVE-4.4.2-64Bit/_PKDS_TSTS06_811_X47_V1_0/Libraries/XMCLib/inc\xmc_dac.h ****  */
 768:C:/Workspaces/DAVE-4.4.2-64Bit/_PKDS_TSTS06_811_X47_V1_0/Libraries/XMCLib/inc\xmc_dac.h **** __STATIC_INLINE void XMC_DAC_CH_EnablePatternSignOutput(XMC_DAC_t *const dac,
 769:C:/Workspaces/DAVE-4.4.2-64Bit/_PKDS_TSTS06_811_X47_V1_0/Libraries/XMCLib/inc\xmc_dac.h ****     const uint8_t channel)
 770:C:/Workspaces/DAVE-4.4.2-64Bit/_PKDS_TSTS06_811_X47_V1_0/Libraries/XMCLib/inc\xmc_dac.h **** {
  83              	 .loc 1 770 1
  84              	 .cfi_startproc
  85              	 
  86              	 
  87              	 
  88 0000 80B4     	 push {r7}
  89              	.LCFI6:
  90              	 .cfi_def_cfa_offset 4
  91              	 .cfi_offset 7,-4
  92 0002 83B0     	 sub sp,sp,#12
  93              	.LCFI7:
  94              	 .cfi_def_cfa_offset 16
  95 0004 00AF     	 add r7,sp,#0
  96              	.LCFI8:
  97              	 .cfi_def_cfa_register 7
  98 0006 7860     	 str r0,[r7,#4]
  99 0008 0B46     	 mov r3,r1
 100 000a FB70     	 strb r3,[r7,#3]
 771:C:/Workspaces/DAVE-4.4.2-64Bit/_PKDS_TSTS06_811_X47_V1_0/Libraries/XMCLib/inc\xmc_dac.h ****   XMC_ASSERT("XMC_DAC_CH_EnablePatternSignOutput: dac parameter not valid\n", XMC_DAC_IS_DAC_VALID(
 772:C:/Workspaces/DAVE-4.4.2-64Bit/_PKDS_TSTS06_811_X47_V1_0/Libraries/XMCLib/inc\xmc_dac.h ****   XMC_ASSERT("XMC_DAC_CH_EnablePatternSignOutput: channel parameter not valid\n", XMC_DAC_IS_CHANNE
 773:C:/Workspaces/DAVE-4.4.2-64Bit/_PKDS_TSTS06_811_X47_V1_0/Libraries/XMCLib/inc\xmc_dac.h **** 
 774:C:/Workspaces/DAVE-4.4.2-64Bit/_PKDS_TSTS06_811_X47_V1_0/Libraries/XMCLib/inc\xmc_dac.h ****   dac->DACCFG[channel].low |= DAC_DAC0CFG0_SIGNEN_Msk;
 101              	 .loc 1 774 28
 102 000c FB78     	 ldrb r3,[r7,#3]
 103 000e 7A68     	 ldr r2,[r7,#4]
 104 0010 DB00     	 lsls r3,r3,#3
 105 0012 1344     	 add r3,r3,r2
 106 0014 5A68     	 ldr r2,[r3,#4]
 107 0016 FB78     	 ldrb r3,[r7,#3]
 108 0018 42F00052 	 orr r2,r2,#536870912
 109 001c 7968     	 ldr r1,[r7,#4]
 110 001e DB00     	 lsls r3,r3,#3
 111 0020 0B44     	 add r3,r3,r1
 112 0022 5A60     	 str r2,[r3,#4]
 775:C:/Workspaces/DAVE-4.4.2-64Bit/_PKDS_TSTS06_811_X47_V1_0/Libraries/XMCLib/inc\xmc_dac.h **** }
 113              	 .loc 1 775 1
 114 0024 00BF     	 nop
 115 0026 0C37     	 adds r7,r7,#12
 116              	.LCFI9:
 117              	 .cfi_def_cfa_offset 4
 118 0028 BD46     	 mov sp,r7
 119              	.LCFI10:
 120              	 .cfi_def_cfa_register 13
 121              	 
 122 002a 5DF8047B 	 ldr r7,[sp],#4
 123              	.LCFI11:
 124              	 .cfi_restore 7
 125              	 .cfi_def_cfa_offset 0
 126 002e 7047     	 bx lr
 127              	 .cfi_endproc
 128              	.LFE140:
 130              	 .section .text.XMC_DAC_CH_DisablePatternSignOutput,"ax",%progbits
 131              	 .align 1
 132              	 .syntax unified
 133              	 .thumb
 134              	 .thumb_func
 135              	 .fpu fpv4-sp-d16
 137              	XMC_DAC_CH_DisablePatternSignOutput:
 138              	.LFB141:
 776:C:/Workspaces/DAVE-4.4.2-64Bit/_PKDS_TSTS06_811_X47_V1_0/Libraries/XMCLib/inc\xmc_dac.h **** 
 777:C:/Workspaces/DAVE-4.4.2-64Bit/_PKDS_TSTS06_811_X47_V1_0/Libraries/XMCLib/inc\xmc_dac.h **** /**
 778:C:/Workspaces/DAVE-4.4.2-64Bit/_PKDS_TSTS06_811_X47_V1_0/Libraries/XMCLib/inc\xmc_dac.h ****  * @param dac Pointer to an instance of DAC module
 779:C:/Workspaces/DAVE-4.4.2-64Bit/_PKDS_TSTS06_811_X47_V1_0/Libraries/XMCLib/inc\xmc_dac.h ****  * @param channel DAC channel number
 780:C:/Workspaces/DAVE-4.4.2-64Bit/_PKDS_TSTS06_811_X47_V1_0/Libraries/XMCLib/inc\xmc_dac.h ****  *
 781:C:/Workspaces/DAVE-4.4.2-64Bit/_PKDS_TSTS06_811_X47_V1_0/Libraries/XMCLib/inc\xmc_dac.h ****  * @return None
 782:C:/Workspaces/DAVE-4.4.2-64Bit/_PKDS_TSTS06_811_X47_V1_0/Libraries/XMCLib/inc\xmc_dac.h ****  *
 783:C:/Workspaces/DAVE-4.4.2-64Bit/_PKDS_TSTS06_811_X47_V1_0/Libraries/XMCLib/inc\xmc_dac.h ****  * \par<b>Description:</b><br>
 784:C:/Workspaces/DAVE-4.4.2-64Bit/_PKDS_TSTS06_811_X47_V1_0/Libraries/XMCLib/inc\xmc_dac.h ****  * Disables output sign information for Pattern Mode.
 785:C:/Workspaces/DAVE-4.4.2-64Bit/_PKDS_TSTS06_811_X47_V1_0/Libraries/XMCLib/inc\xmc_dac.h ****  *
 786:C:/Workspaces/DAVE-4.4.2-64Bit/_PKDS_TSTS06_811_X47_V1_0/Libraries/XMCLib/inc\xmc_dac.h ****  * \par
 787:C:/Workspaces/DAVE-4.4.2-64Bit/_PKDS_TSTS06_811_X47_V1_0/Libraries/XMCLib/inc\xmc_dac.h ****  * Sign output is disabled by clearing \a SIGNEN bit of \a DAC0CFG0 register (for channel 0) / DAC1
 788:C:/Workspaces/DAVE-4.4.2-64Bit/_PKDS_TSTS06_811_X47_V1_0/Libraries/XMCLib/inc\xmc_dac.h ****  *
 789:C:/Workspaces/DAVE-4.4.2-64Bit/_PKDS_TSTS06_811_X47_V1_0/Libraries/XMCLib/inc\xmc_dac.h ****  * \par<b>Note:</b><br>
 790:C:/Workspaces/DAVE-4.4.2-64Bit/_PKDS_TSTS06_811_X47_V1_0/Libraries/XMCLib/inc\xmc_dac.h ****  * Call this API if the \e channel is set to Pattern mode.
 791:C:/Workspaces/DAVE-4.4.2-64Bit/_PKDS_TSTS06_811_X47_V1_0/Libraries/XMCLib/inc\xmc_dac.h ****  *
 792:C:/Workspaces/DAVE-4.4.2-64Bit/_PKDS_TSTS06_811_X47_V1_0/Libraries/XMCLib/inc\xmc_dac.h ****  * \par<b>Related APIs:</b><BR>
 793:C:/Workspaces/DAVE-4.4.2-64Bit/_PKDS_TSTS06_811_X47_V1_0/Libraries/XMCLib/inc\xmc_dac.h ****  * XMC_DAC_CH_StartPatternMode(), XMC_DAC_CH_EnablePatternSignOutput()\n\n\n
 794:C:/Workspaces/DAVE-4.4.2-64Bit/_PKDS_TSTS06_811_X47_V1_0/Libraries/XMCLib/inc\xmc_dac.h ****  *
 795:C:/Workspaces/DAVE-4.4.2-64Bit/_PKDS_TSTS06_811_X47_V1_0/Libraries/XMCLib/inc\xmc_dac.h ****  */
 796:C:/Workspaces/DAVE-4.4.2-64Bit/_PKDS_TSTS06_811_X47_V1_0/Libraries/XMCLib/inc\xmc_dac.h **** __STATIC_INLINE void XMC_DAC_CH_DisablePatternSignOutput(XMC_DAC_t *const dac,
 797:C:/Workspaces/DAVE-4.4.2-64Bit/_PKDS_TSTS06_811_X47_V1_0/Libraries/XMCLib/inc\xmc_dac.h ****     const uint8_t channel)
 798:C:/Workspaces/DAVE-4.4.2-64Bit/_PKDS_TSTS06_811_X47_V1_0/Libraries/XMCLib/inc\xmc_dac.h **** {
 139              	 .loc 1 798 1
 140              	 .cfi_startproc
 141              	 
 142              	 
 143              	 
 144 0000 80B4     	 push {r7}
 145              	.LCFI12:
 146              	 .cfi_def_cfa_offset 4
 147              	 .cfi_offset 7,-4
 148 0002 83B0     	 sub sp,sp,#12
 149              	.LCFI13:
 150              	 .cfi_def_cfa_offset 16
 151 0004 00AF     	 add r7,sp,#0
 152              	.LCFI14:
 153              	 .cfi_def_cfa_register 7
 154 0006 7860     	 str r0,[r7,#4]
 155 0008 0B46     	 mov r3,r1
 156 000a FB70     	 strb r3,[r7,#3]
 799:C:/Workspaces/DAVE-4.4.2-64Bit/_PKDS_TSTS06_811_X47_V1_0/Libraries/XMCLib/inc\xmc_dac.h ****   XMC_ASSERT("XMC_DAC_CH_DisablePatternSignOutput: dac parameter not valid\n", XMC_DAC_IS_DAC_VALID
 800:C:/Workspaces/DAVE-4.4.2-64Bit/_PKDS_TSTS06_811_X47_V1_0/Libraries/XMCLib/inc\xmc_dac.h ****   XMC_ASSERT("XMC_DAC_CH_DisablePatternSignOutput: channel parameter not valid\n", XMC_DAC_IS_CHANN
 801:C:/Workspaces/DAVE-4.4.2-64Bit/_PKDS_TSTS06_811_X47_V1_0/Libraries/XMCLib/inc\xmc_dac.h **** 
 802:C:/Workspaces/DAVE-4.4.2-64Bit/_PKDS_TSTS06_811_X47_V1_0/Libraries/XMCLib/inc\xmc_dac.h ****   dac->DACCFG[channel].low &= ~DAC_DAC0CFG0_SIGNEN_Msk;
 157              	 .loc 1 802 28
 158 000c FB78     	 ldrb r3,[r7,#3]
 159 000e 7A68     	 ldr r2,[r7,#4]
 160 0010 DB00     	 lsls r3,r3,#3
 161 0012 1344     	 add r3,r3,r2
 162 0014 5A68     	 ldr r2,[r3,#4]
 163 0016 FB78     	 ldrb r3,[r7,#3]
 164 0018 22F00052 	 bic r2,r2,#536870912
 165 001c 7968     	 ldr r1,[r7,#4]
 166 001e DB00     	 lsls r3,r3,#3
 167 0020 0B44     	 add r3,r3,r1
 168 0022 5A60     	 str r2,[r3,#4]
 803:C:/Workspaces/DAVE-4.4.2-64Bit/_PKDS_TSTS06_811_X47_V1_0/Libraries/XMCLib/inc\xmc_dac.h **** }
 169              	 .loc 1 803 1
 170 0024 00BF     	 nop
 171 0026 0C37     	 adds r7,r7,#12
 172              	.LCFI15:
 173              	 .cfi_def_cfa_offset 4
 174 0028 BD46     	 mov sp,r7
 175              	.LCFI16:
 176              	 .cfi_def_cfa_register 13
 177              	 
 178 002a 5DF8047B 	 ldr r7,[sp],#4
 179              	.LCFI17:
 180              	 .cfi_restore 7
 181              	 .cfi_def_cfa_offset 0
 182 002e 7047     	 bx lr
 183              	 .cfi_endproc
 184              	.LFE141:
 186              	 .section .text.XMC_DAC_CH_SetRampStart,"ax",%progbits
 187              	 .align 1
 188              	 .syntax unified
 189              	 .thumb
 190              	 .thumb_func
 191              	 .fpu fpv4-sp-d16
 193              	XMC_DAC_CH_SetRampStart:
 194              	.LFB142:
 804:C:/Workspaces/DAVE-4.4.2-64Bit/_PKDS_TSTS06_811_X47_V1_0/Libraries/XMCLib/inc\xmc_dac.h **** 
 805:C:/Workspaces/DAVE-4.4.2-64Bit/_PKDS_TSTS06_811_X47_V1_0/Libraries/XMCLib/inc\xmc_dac.h **** /**
 806:C:/Workspaces/DAVE-4.4.2-64Bit/_PKDS_TSTS06_811_X47_V1_0/Libraries/XMCLib/inc\xmc_dac.h ****  * @param dac Pointer to an instance of DAC module
 807:C:/Workspaces/DAVE-4.4.2-64Bit/_PKDS_TSTS06_811_X47_V1_0/Libraries/XMCLib/inc\xmc_dac.h ****  * @param channel DAC channel number
 808:C:/Workspaces/DAVE-4.4.2-64Bit/_PKDS_TSTS06_811_X47_V1_0/Libraries/XMCLib/inc\xmc_dac.h ****  * @param start Ramp start point [0-4095]
 809:C:/Workspaces/DAVE-4.4.2-64Bit/_PKDS_TSTS06_811_X47_V1_0/Libraries/XMCLib/inc\xmc_dac.h ****  *
 810:C:/Workspaces/DAVE-4.4.2-64Bit/_PKDS_TSTS06_811_X47_V1_0/Libraries/XMCLib/inc\xmc_dac.h ****  * @return None
 811:C:/Workspaces/DAVE-4.4.2-64Bit/_PKDS_TSTS06_811_X47_V1_0/Libraries/XMCLib/inc\xmc_dac.h ****  *
 812:C:/Workspaces/DAVE-4.4.2-64Bit/_PKDS_TSTS06_811_X47_V1_0/Libraries/XMCLib/inc\xmc_dac.h ****  * \par<b>Description:</b><br>
 813:C:/Workspaces/DAVE-4.4.2-64Bit/_PKDS_TSTS06_811_X47_V1_0/Libraries/XMCLib/inc\xmc_dac.h ****  * Sets the ramp start value by writing to the register \a DAC0DATA (for \e channel 0) or \a DAC1DA
 814:C:/Workspaces/DAVE-4.4.2-64Bit/_PKDS_TSTS06_811_X47_V1_0/Libraries/XMCLib/inc\xmc_dac.h ****  * If the ramp counter reaches its stop value, it restarts from the \a start value with the next tr
 815:C:/Workspaces/DAVE-4.4.2-64Bit/_PKDS_TSTS06_811_X47_V1_0/Libraries/XMCLib/inc\xmc_dac.h ****  * Ensure \e start value is lower than the stop value.
 816:C:/Workspaces/DAVE-4.4.2-64Bit/_PKDS_TSTS06_811_X47_V1_0/Libraries/XMCLib/inc\xmc_dac.h ****  *
 817:C:/Workspaces/DAVE-4.4.2-64Bit/_PKDS_TSTS06_811_X47_V1_0/Libraries/XMCLib/inc\xmc_dac.h ****  * \par<b>Note:</b><br>
 818:C:/Workspaces/DAVE-4.4.2-64Bit/_PKDS_TSTS06_811_X47_V1_0/Libraries/XMCLib/inc\xmc_dac.h ****  * Call this API if the \a channel is set to Ramp mode.
 819:C:/Workspaces/DAVE-4.4.2-64Bit/_PKDS_TSTS06_811_X47_V1_0/Libraries/XMCLib/inc\xmc_dac.h ****  * Start value is a 12 bit data.
 820:C:/Workspaces/DAVE-4.4.2-64Bit/_PKDS_TSTS06_811_X47_V1_0/Libraries/XMCLib/inc\xmc_dac.h ****  *
 821:C:/Workspaces/DAVE-4.4.2-64Bit/_PKDS_TSTS06_811_X47_V1_0/Libraries/XMCLib/inc\xmc_dac.h ****  * \par<b>Related APIs:</b><BR>
 822:C:/Workspaces/DAVE-4.4.2-64Bit/_PKDS_TSTS06_811_X47_V1_0/Libraries/XMCLib/inc\xmc_dac.h ****  * XMC_DAC_CH_GetRampStart(), XMC_DAC_CH_GetRampStop(), XMC_DAC_CH_SetRampStop()\n\n\n
 823:C:/Workspaces/DAVE-4.4.2-64Bit/_PKDS_TSTS06_811_X47_V1_0/Libraries/XMCLib/inc\xmc_dac.h ****  *
 824:C:/Workspaces/DAVE-4.4.2-64Bit/_PKDS_TSTS06_811_X47_V1_0/Libraries/XMCLib/inc\xmc_dac.h ****  */
 825:C:/Workspaces/DAVE-4.4.2-64Bit/_PKDS_TSTS06_811_X47_V1_0/Libraries/XMCLib/inc\xmc_dac.h **** __STATIC_INLINE void XMC_DAC_CH_SetRampStart(XMC_DAC_t *const dac, const uint8_t channel, const uin
 826:C:/Workspaces/DAVE-4.4.2-64Bit/_PKDS_TSTS06_811_X47_V1_0/Libraries/XMCLib/inc\xmc_dac.h **** {
 195              	 .loc 1 826 1
 196              	 .cfi_startproc
 197              	 
 198              	 
 199              	 
 200 0000 80B4     	 push {r7}
 201              	.LCFI18:
 202              	 .cfi_def_cfa_offset 4
 203              	 .cfi_offset 7,-4
 204 0002 83B0     	 sub sp,sp,#12
 205              	.LCFI19:
 206              	 .cfi_def_cfa_offset 16
 207 0004 00AF     	 add r7,sp,#0
 208              	.LCFI20:
 209              	 .cfi_def_cfa_register 7
 210 0006 7860     	 str r0,[r7,#4]
 211 0008 0B46     	 mov r3,r1
 212 000a FB70     	 strb r3,[r7,#3]
 213 000c 1346     	 mov r3,r2
 214 000e 3B80     	 strh r3,[r7]
 827:C:/Workspaces/DAVE-4.4.2-64Bit/_PKDS_TSTS06_811_X47_V1_0/Libraries/XMCLib/inc\xmc_dac.h ****   XMC_ASSERT("XMC_DAC_CH_SetRampStart: dac parameter not valid\n", XMC_DAC_IS_DAC_VALID(dac));
 828:C:/Workspaces/DAVE-4.4.2-64Bit/_PKDS_TSTS06_811_X47_V1_0/Libraries/XMCLib/inc\xmc_dac.h ****   XMC_ASSERT("XMC_DAC_CH_SetRampStart: channel parameter not valid\n", XMC_DAC_IS_CHANNEL_VALID(cha
 829:C:/Workspaces/DAVE-4.4.2-64Bit/_PKDS_TSTS06_811_X47_V1_0/Libraries/XMCLib/inc\xmc_dac.h **** 
 830:C:/Workspaces/DAVE-4.4.2-64Bit/_PKDS_TSTS06_811_X47_V1_0/Libraries/XMCLib/inc\xmc_dac.h ****   dac->DACDATA[channel] = start;
 215              	 .loc 1 830 15
 216 0010 FB78     	 ldrb r3,[r7,#3]
 217              	 .loc 1 830 25
 218 0012 3A88     	 ldrh r2,[r7]
 219 0014 7968     	 ldr r1,[r7,#4]
 220 0016 0433     	 adds r3,r3,#4
 221 0018 9B00     	 lsls r3,r3,#2
 222 001a 0B44     	 add r3,r3,r1
 223 001c 5A60     	 str r2,[r3,#4]
 831:C:/Workspaces/DAVE-4.4.2-64Bit/_PKDS_TSTS06_811_X47_V1_0/Libraries/XMCLib/inc\xmc_dac.h **** }
 224              	 .loc 1 831 1
 225 001e 00BF     	 nop
 226 0020 0C37     	 adds r7,r7,#12
 227              	.LCFI21:
 228              	 .cfi_def_cfa_offset 4
 229 0022 BD46     	 mov sp,r7
 230              	.LCFI22:
 231              	 .cfi_def_cfa_register 13
 232              	 
 233 0024 5DF8047B 	 ldr r7,[sp],#4
 234              	.LCFI23:
 235              	 .cfi_restore 7
 236              	 .cfi_def_cfa_offset 0
 237 0028 7047     	 bx lr
 238              	 .cfi_endproc
 239              	.LFE142:
 241              	 .section .text.XMC_DAC_CH_SetRampStop,"ax",%progbits
 242              	 .align 1
 243              	 .syntax unified
 244              	 .thumb
 245              	 .thumb_func
 246              	 .fpu fpv4-sp-d16
 248              	XMC_DAC_CH_SetRampStop:
 249              	.LFB144:
 832:C:/Workspaces/DAVE-4.4.2-64Bit/_PKDS_TSTS06_811_X47_V1_0/Libraries/XMCLib/inc\xmc_dac.h **** 
 833:C:/Workspaces/DAVE-4.4.2-64Bit/_PKDS_TSTS06_811_X47_V1_0/Libraries/XMCLib/inc\xmc_dac.h **** /**
 834:C:/Workspaces/DAVE-4.4.2-64Bit/_PKDS_TSTS06_811_X47_V1_0/Libraries/XMCLib/inc\xmc_dac.h ****  * @param dac Pointer to an instance of DAC module
 835:C:/Workspaces/DAVE-4.4.2-64Bit/_PKDS_TSTS06_811_X47_V1_0/Libraries/XMCLib/inc\xmc_dac.h ****  * @param channel DAC channel number
 836:C:/Workspaces/DAVE-4.4.2-64Bit/_PKDS_TSTS06_811_X47_V1_0/Libraries/XMCLib/inc\xmc_dac.h ****  *
 837:C:/Workspaces/DAVE-4.4.2-64Bit/_PKDS_TSTS06_811_X47_V1_0/Libraries/XMCLib/inc\xmc_dac.h ****  * @return uint16_t
 838:C:/Workspaces/DAVE-4.4.2-64Bit/_PKDS_TSTS06_811_X47_V1_0/Libraries/XMCLib/inc\xmc_dac.h ****  *
 839:C:/Workspaces/DAVE-4.4.2-64Bit/_PKDS_TSTS06_811_X47_V1_0/Libraries/XMCLib/inc\xmc_dac.h ****  * \par<b>Description:</b><br>
 840:C:/Workspaces/DAVE-4.4.2-64Bit/_PKDS_TSTS06_811_X47_V1_0/Libraries/XMCLib/inc\xmc_dac.h ****  * Gets the ramp start value by reading \a DATA0 bit-field of \a DAC0DATA register (for channel 0) 
 841:C:/Workspaces/DAVE-4.4.2-64Bit/_PKDS_TSTS06_811_X47_V1_0/Libraries/XMCLib/inc\xmc_dac.h ****  * If the ramp counter reaches its stop value, it restarts from the start value with the next trigg
 842:C:/Workspaces/DAVE-4.4.2-64Bit/_PKDS_TSTS06_811_X47_V1_0/Libraries/XMCLib/inc\xmc_dac.h ****  *
 843:C:/Workspaces/DAVE-4.4.2-64Bit/_PKDS_TSTS06_811_X47_V1_0/Libraries/XMCLib/inc\xmc_dac.h ****  * \par<b>Note:</b><br>
 844:C:/Workspaces/DAVE-4.4.2-64Bit/_PKDS_TSTS06_811_X47_V1_0/Libraries/XMCLib/inc\xmc_dac.h ****  * Call this API if the \e channel is set to Ramp mode.
 845:C:/Workspaces/DAVE-4.4.2-64Bit/_PKDS_TSTS06_811_X47_V1_0/Libraries/XMCLib/inc\xmc_dac.h ****  *
 846:C:/Workspaces/DAVE-4.4.2-64Bit/_PKDS_TSTS06_811_X47_V1_0/Libraries/XMCLib/inc\xmc_dac.h ****  * \par<b>Related APIs:</b><BR>
 847:C:/Workspaces/DAVE-4.4.2-64Bit/_PKDS_TSTS06_811_X47_V1_0/Libraries/XMCLib/inc\xmc_dac.h ****  * XMC_DAC_CH_SetRampStart(), XMC_DAC_CH_StartRampMode(), XMC_DAC_CH_GetRampStop(), XMC_DAC_CH_SetR
 848:C:/Workspaces/DAVE-4.4.2-64Bit/_PKDS_TSTS06_811_X47_V1_0/Libraries/XMCLib/inc\xmc_dac.h ****  *
 849:C:/Workspaces/DAVE-4.4.2-64Bit/_PKDS_TSTS06_811_X47_V1_0/Libraries/XMCLib/inc\xmc_dac.h ****  */
 850:C:/Workspaces/DAVE-4.4.2-64Bit/_PKDS_TSTS06_811_X47_V1_0/Libraries/XMCLib/inc\xmc_dac.h **** __STATIC_INLINE uint16_t XMC_DAC_CH_GetRampStart(XMC_DAC_t *const dac, const uint8_t channel)
 851:C:/Workspaces/DAVE-4.4.2-64Bit/_PKDS_TSTS06_811_X47_V1_0/Libraries/XMCLib/inc\xmc_dac.h **** {
 852:C:/Workspaces/DAVE-4.4.2-64Bit/_PKDS_TSTS06_811_X47_V1_0/Libraries/XMCLib/inc\xmc_dac.h ****   XMC_ASSERT("XMC_DAC_CH_GetRampStart: dac parameter not valid\n", XMC_DAC_IS_DAC_VALID(dac));
 853:C:/Workspaces/DAVE-4.4.2-64Bit/_PKDS_TSTS06_811_X47_V1_0/Libraries/XMCLib/inc\xmc_dac.h ****   XMC_ASSERT("XMC_DAC_CH_GetRampStart: channel parameter not valid\n", XMC_DAC_IS_CHANNEL_VALID(cha
 854:C:/Workspaces/DAVE-4.4.2-64Bit/_PKDS_TSTS06_811_X47_V1_0/Libraries/XMCLib/inc\xmc_dac.h **** 
 855:C:/Workspaces/DAVE-4.4.2-64Bit/_PKDS_TSTS06_811_X47_V1_0/Libraries/XMCLib/inc\xmc_dac.h ****   return (uint16_t)(dac->DACDATA[channel]);
 856:C:/Workspaces/DAVE-4.4.2-64Bit/_PKDS_TSTS06_811_X47_V1_0/Libraries/XMCLib/inc\xmc_dac.h **** }
 857:C:/Workspaces/DAVE-4.4.2-64Bit/_PKDS_TSTS06_811_X47_V1_0/Libraries/XMCLib/inc\xmc_dac.h **** 
 858:C:/Workspaces/DAVE-4.4.2-64Bit/_PKDS_TSTS06_811_X47_V1_0/Libraries/XMCLib/inc\xmc_dac.h **** /**
 859:C:/Workspaces/DAVE-4.4.2-64Bit/_PKDS_TSTS06_811_X47_V1_0/Libraries/XMCLib/inc\xmc_dac.h ****  * @param dac Pointer to an instance of DAC module
 860:C:/Workspaces/DAVE-4.4.2-64Bit/_PKDS_TSTS06_811_X47_V1_0/Libraries/XMCLib/inc\xmc_dac.h ****  * @param channel DAC channel number
 861:C:/Workspaces/DAVE-4.4.2-64Bit/_PKDS_TSTS06_811_X47_V1_0/Libraries/XMCLib/inc\xmc_dac.h ****  * @param stop Ramp stop point [0-4095]
 862:C:/Workspaces/DAVE-4.4.2-64Bit/_PKDS_TSTS06_811_X47_V1_0/Libraries/XMCLib/inc\xmc_dac.h ****  *
 863:C:/Workspaces/DAVE-4.4.2-64Bit/_PKDS_TSTS06_811_X47_V1_0/Libraries/XMCLib/inc\xmc_dac.h ****  * @return None
 864:C:/Workspaces/DAVE-4.4.2-64Bit/_PKDS_TSTS06_811_X47_V1_0/Libraries/XMCLib/inc\xmc_dac.h ****  *
 865:C:/Workspaces/DAVE-4.4.2-64Bit/_PKDS_TSTS06_811_X47_V1_0/Libraries/XMCLib/inc\xmc_dac.h ****  * \par<b>Description:</b><br>
 866:C:/Workspaces/DAVE-4.4.2-64Bit/_PKDS_TSTS06_811_X47_V1_0/Libraries/XMCLib/inc\xmc_dac.h ****  * Sets the ramp stop value by writing to the bit-field \a DATA0 (for \e channel 0) or \a DATA1 (fo
 867:C:/Workspaces/DAVE-4.4.2-64Bit/_PKDS_TSTS06_811_X47_V1_0/Libraries/XMCLib/inc\xmc_dac.h ****  * If the ramp counter reaches its \a stop value, it restarts from the start value with the next tr
 868:C:/Workspaces/DAVE-4.4.2-64Bit/_PKDS_TSTS06_811_X47_V1_0/Libraries/XMCLib/inc\xmc_dac.h ****  * Ensure \e stop value is higher than the start value.
 869:C:/Workspaces/DAVE-4.4.2-64Bit/_PKDS_TSTS06_811_X47_V1_0/Libraries/XMCLib/inc\xmc_dac.h ****  *
 870:C:/Workspaces/DAVE-4.4.2-64Bit/_PKDS_TSTS06_811_X47_V1_0/Libraries/XMCLib/inc\xmc_dac.h ****  * \par<b>Note:</b><br>
 871:C:/Workspaces/DAVE-4.4.2-64Bit/_PKDS_TSTS06_811_X47_V1_0/Libraries/XMCLib/inc\xmc_dac.h ****  * Call this API if the \e channel is set to Ramp mode.
 872:C:/Workspaces/DAVE-4.4.2-64Bit/_PKDS_TSTS06_811_X47_V1_0/Libraries/XMCLib/inc\xmc_dac.h ****  * Stop value is a 12 bit data.
 873:C:/Workspaces/DAVE-4.4.2-64Bit/_PKDS_TSTS06_811_X47_V1_0/Libraries/XMCLib/inc\xmc_dac.h ****  *
 874:C:/Workspaces/DAVE-4.4.2-64Bit/_PKDS_TSTS06_811_X47_V1_0/Libraries/XMCLib/inc\xmc_dac.h ****  * \par<b>Related APIs:</b><BR>
 875:C:/Workspaces/DAVE-4.4.2-64Bit/_PKDS_TSTS06_811_X47_V1_0/Libraries/XMCLib/inc\xmc_dac.h ****  * XMC_DAC_CH_GetRampStop(), XMC_DAC_CH_SetRampStart()\n\n\n
 876:C:/Workspaces/DAVE-4.4.2-64Bit/_PKDS_TSTS06_811_X47_V1_0/Libraries/XMCLib/inc\xmc_dac.h ****  *
 877:C:/Workspaces/DAVE-4.4.2-64Bit/_PKDS_TSTS06_811_X47_V1_0/Libraries/XMCLib/inc\xmc_dac.h ****  */
 878:C:/Workspaces/DAVE-4.4.2-64Bit/_PKDS_TSTS06_811_X47_V1_0/Libraries/XMCLib/inc\xmc_dac.h **** __STATIC_INLINE void XMC_DAC_CH_SetRampStop(XMC_DAC_t *const dac, const uint8_t channel, const uint
 879:C:/Workspaces/DAVE-4.4.2-64Bit/_PKDS_TSTS06_811_X47_V1_0/Libraries/XMCLib/inc\xmc_dac.h **** {
 250              	 .loc 1 879 1
 251              	 .cfi_startproc
 252              	 
 253              	 
 254              	 
 255 0000 80B4     	 push {r7}
 256              	.LCFI24:
 257              	 .cfi_def_cfa_offset 4
 258              	 .cfi_offset 7,-4
 259 0002 83B0     	 sub sp,sp,#12
 260              	.LCFI25:
 261              	 .cfi_def_cfa_offset 16
 262 0004 00AF     	 add r7,sp,#0
 263              	.LCFI26:
 264              	 .cfi_def_cfa_register 7
 265 0006 7860     	 str r0,[r7,#4]
 266 0008 0B46     	 mov r3,r1
 267 000a FB70     	 strb r3,[r7,#3]
 268 000c 1346     	 mov r3,r2
 269 000e 3B80     	 strh r3,[r7]
 880:C:/Workspaces/DAVE-4.4.2-64Bit/_PKDS_TSTS06_811_X47_V1_0/Libraries/XMCLib/inc\xmc_dac.h ****   XMC_ASSERT("XMC_DAC_CH_SetRampStop: dac parameter not valid\n", XMC_DAC_IS_DAC_VALID(dac));
 881:C:/Workspaces/DAVE-4.4.2-64Bit/_PKDS_TSTS06_811_X47_V1_0/Libraries/XMCLib/inc\xmc_dac.h ****   XMC_ASSERT("XMC_DAC_CH_SetRampStop: channel parameter not valid\n", XMC_DAC_IS_CHANNEL_VALID(chan
 882:C:/Workspaces/DAVE-4.4.2-64Bit/_PKDS_TSTS06_811_X47_V1_0/Libraries/XMCLib/inc\xmc_dac.h **** 
 883:C:/Workspaces/DAVE-4.4.2-64Bit/_PKDS_TSTS06_811_X47_V1_0/Libraries/XMCLib/inc\xmc_dac.h ****   dac->DAC01DATA = (dac->DAC01DATA & ~(DAC_DAC01DATA_DATA0_Msk << (channel * DAC_DAC01DATA_DATA1_Po
 270              	 .loc 1 883 24
 271 0010 7B68     	 ldr r3,[r7,#4]
 272 0012 DA69     	 ldr r2,[r3,#28]
 273              	 .loc 1 883 76
 274 0014 FB78     	 ldrb r3,[r7,#3]
 275 0016 1B01     	 lsls r3,r3,#4
 276              	 .loc 1 883 64
 277 0018 40F6FF71 	 movw r1,#4095
 278 001c 01FA03F3 	 lsl r3,r1,r3
 279              	 .loc 1 883 38
 280 0020 DB43     	 mvns r3,r3
 281              	 .loc 1 883 36
 282 0022 1340     	 ands r3,r3,r2
 884:C:/Workspaces/DAVE-4.4.2-64Bit/_PKDS_TSTS06_811_X47_V1_0/Libraries/XMCLib/inc\xmc_dac.h ****                    (stop << (channel * DAC_DAC01DATA_DATA1_Pos));
 283              	 .loc 1 884 26
 284 0024 3988     	 ldrh r1,[r7]
 285              	 .loc 1 884 38
 286 0026 FA78     	 ldrb r2,[r7,#3]
 287 0028 1201     	 lsls r2,r2,#4
 288              	 .loc 1 884 26
 289 002a 01FA02F2 	 lsl r2,r1,r2
 883:C:/Workspaces/DAVE-4.4.2-64Bit/_PKDS_TSTS06_811_X47_V1_0/Libraries/XMCLib/inc\xmc_dac.h ****                    (stop << (channel * DAC_DAC01DATA_DATA1_Pos));
 290              	 .loc 1 883 105
 291 002e 1A43     	 orrs r2,r2,r3
 883:C:/Workspaces/DAVE-4.4.2-64Bit/_PKDS_TSTS06_811_X47_V1_0/Libraries/XMCLib/inc\xmc_dac.h ****                    (stop << (channel * DAC_DAC01DATA_DATA1_Pos));
 292              	 .loc 1 883 18
 293 0030 7B68     	 ldr r3,[r7,#4]
 294 0032 DA61     	 str r2,[r3,#28]
 885:C:/Workspaces/DAVE-4.4.2-64Bit/_PKDS_TSTS06_811_X47_V1_0/Libraries/XMCLib/inc\xmc_dac.h **** }
 295              	 .loc 1 885 1
 296 0034 00BF     	 nop
 297 0036 0C37     	 adds r7,r7,#12
 298              	.LCFI27:
 299              	 .cfi_def_cfa_offset 4
 300 0038 BD46     	 mov sp,r7
 301              	.LCFI28:
 302              	 .cfi_def_cfa_register 13
 303              	 
 304 003a 5DF8047B 	 ldr r7,[sp],#4
 305              	.LCFI29:
 306              	 .cfi_restore 7
 307              	 .cfi_def_cfa_offset 0
 308 003e 7047     	 bx lr
 309              	 .cfi_endproc
 310              	.LFE144:
 312              	 .section .text.XMC_DAC_CH_SetTrigger,"ax",%progbits
 313              	 .align 1
 314              	 .syntax unified
 315              	 .thumb
 316              	 .thumb_func
 317              	 .fpu fpv4-sp-d16
 319              	XMC_DAC_CH_SetTrigger:
 320              	.LFB146:
 886:C:/Workspaces/DAVE-4.4.2-64Bit/_PKDS_TSTS06_811_X47_V1_0/Libraries/XMCLib/inc\xmc_dac.h **** 
 887:C:/Workspaces/DAVE-4.4.2-64Bit/_PKDS_TSTS06_811_X47_V1_0/Libraries/XMCLib/inc\xmc_dac.h **** /**
 888:C:/Workspaces/DAVE-4.4.2-64Bit/_PKDS_TSTS06_811_X47_V1_0/Libraries/XMCLib/inc\xmc_dac.h ****  * @param dac Pointer to an instance of DAC module
 889:C:/Workspaces/DAVE-4.4.2-64Bit/_PKDS_TSTS06_811_X47_V1_0/Libraries/XMCLib/inc\xmc_dac.h ****  * @param channel DAC channel number
 890:C:/Workspaces/DAVE-4.4.2-64Bit/_PKDS_TSTS06_811_X47_V1_0/Libraries/XMCLib/inc\xmc_dac.h ****  *
 891:C:/Workspaces/DAVE-4.4.2-64Bit/_PKDS_TSTS06_811_X47_V1_0/Libraries/XMCLib/inc\xmc_dac.h ****  * @return uint16_t
 892:C:/Workspaces/DAVE-4.4.2-64Bit/_PKDS_TSTS06_811_X47_V1_0/Libraries/XMCLib/inc\xmc_dac.h ****  *
 893:C:/Workspaces/DAVE-4.4.2-64Bit/_PKDS_TSTS06_811_X47_V1_0/Libraries/XMCLib/inc\xmc_dac.h ****  * \par<b>Description:</b><br>
 894:C:/Workspaces/DAVE-4.4.2-64Bit/_PKDS_TSTS06_811_X47_V1_0/Libraries/XMCLib/inc\xmc_dac.h ****  * Gets the ramp stop value by reading \a DATA0 bit-field of \a DAC01DATA register (for channel 0) 
 895:C:/Workspaces/DAVE-4.4.2-64Bit/_PKDS_TSTS06_811_X47_V1_0/Libraries/XMCLib/inc\xmc_dac.h ****  * If the ramp counter reaches its stop value, it restarts from the start value with the next trigg
 896:C:/Workspaces/DAVE-4.4.2-64Bit/_PKDS_TSTS06_811_X47_V1_0/Libraries/XMCLib/inc\xmc_dac.h ****  *
 897:C:/Workspaces/DAVE-4.4.2-64Bit/_PKDS_TSTS06_811_X47_V1_0/Libraries/XMCLib/inc\xmc_dac.h ****  * \par<b>Note:</b><br>
 898:C:/Workspaces/DAVE-4.4.2-64Bit/_PKDS_TSTS06_811_X47_V1_0/Libraries/XMCLib/inc\xmc_dac.h ****  * Call this API if the \e channel is set to Ramp mode.
 899:C:/Workspaces/DAVE-4.4.2-64Bit/_PKDS_TSTS06_811_X47_V1_0/Libraries/XMCLib/inc\xmc_dac.h ****  *
 900:C:/Workspaces/DAVE-4.4.2-64Bit/_PKDS_TSTS06_811_X47_V1_0/Libraries/XMCLib/inc\xmc_dac.h ****  * \par<b>Related APIs:</b><BR>
 901:C:/Workspaces/DAVE-4.4.2-64Bit/_PKDS_TSTS06_811_X47_V1_0/Libraries/XMCLib/inc\xmc_dac.h ****  * XMC_DAC_CH_SetRampStop(), XMC_DAC_CH_StartRampMode(), XMC_DAC_CH_GetRampStart()\n\n\n
 902:C:/Workspaces/DAVE-4.4.2-64Bit/_PKDS_TSTS06_811_X47_V1_0/Libraries/XMCLib/inc\xmc_dac.h ****  *
 903:C:/Workspaces/DAVE-4.4.2-64Bit/_PKDS_TSTS06_811_X47_V1_0/Libraries/XMCLib/inc\xmc_dac.h ****  */
 904:C:/Workspaces/DAVE-4.4.2-64Bit/_PKDS_TSTS06_811_X47_V1_0/Libraries/XMCLib/inc\xmc_dac.h **** __STATIC_INLINE uint16_t XMC_DAC_CH_GetRampStop(XMC_DAC_t *const dac, const uint8_t channel)
 905:C:/Workspaces/DAVE-4.4.2-64Bit/_PKDS_TSTS06_811_X47_V1_0/Libraries/XMCLib/inc\xmc_dac.h **** {
 906:C:/Workspaces/DAVE-4.4.2-64Bit/_PKDS_TSTS06_811_X47_V1_0/Libraries/XMCLib/inc\xmc_dac.h ****   XMC_ASSERT("XMC_DAC_CH_GetRampStop: dac parameter not valid\n", XMC_DAC_IS_DAC_VALID(dac));
 907:C:/Workspaces/DAVE-4.4.2-64Bit/_PKDS_TSTS06_811_X47_V1_0/Libraries/XMCLib/inc\xmc_dac.h ****   XMC_ASSERT("XMC_DAC_CH_GetRampStop: channel parameter not valid\n", XMC_DAC_IS_CHANNEL_VALID(chan
 908:C:/Workspaces/DAVE-4.4.2-64Bit/_PKDS_TSTS06_811_X47_V1_0/Libraries/XMCLib/inc\xmc_dac.h **** 
 909:C:/Workspaces/DAVE-4.4.2-64Bit/_PKDS_TSTS06_811_X47_V1_0/Libraries/XMCLib/inc\xmc_dac.h ****   return ((dac->DAC01DATA >> (channel * DAC_DAC01DATA_DATA1_Pos)) & DAC_DAC01DATA_DATA0_Msk);
 910:C:/Workspaces/DAVE-4.4.2-64Bit/_PKDS_TSTS06_811_X47_V1_0/Libraries/XMCLib/inc\xmc_dac.h **** }
 911:C:/Workspaces/DAVE-4.4.2-64Bit/_PKDS_TSTS06_811_X47_V1_0/Libraries/XMCLib/inc\xmc_dac.h **** 
 912:C:/Workspaces/DAVE-4.4.2-64Bit/_PKDS_TSTS06_811_X47_V1_0/Libraries/XMCLib/inc\xmc_dac.h **** /**
 913:C:/Workspaces/DAVE-4.4.2-64Bit/_PKDS_TSTS06_811_X47_V1_0/Libraries/XMCLib/inc\xmc_dac.h ****  * @param dac Pointer to an instance of DAC module
 914:C:/Workspaces/DAVE-4.4.2-64Bit/_PKDS_TSTS06_811_X47_V1_0/Libraries/XMCLib/inc\xmc_dac.h ****  * @param channel DAC channel number
 915:C:/Workspaces/DAVE-4.4.2-64Bit/_PKDS_TSTS06_811_X47_V1_0/Libraries/XMCLib/inc\xmc_dac.h ****  * @param trigger Trigger source
 916:C:/Workspaces/DAVE-4.4.2-64Bit/_PKDS_TSTS06_811_X47_V1_0/Libraries/XMCLib/inc\xmc_dac.h ****  *
 917:C:/Workspaces/DAVE-4.4.2-64Bit/_PKDS_TSTS06_811_X47_V1_0/Libraries/XMCLib/inc\xmc_dac.h ****  * @return None
 918:C:/Workspaces/DAVE-4.4.2-64Bit/_PKDS_TSTS06_811_X47_V1_0/Libraries/XMCLib/inc\xmc_dac.h ****  *
 919:C:/Workspaces/DAVE-4.4.2-64Bit/_PKDS_TSTS06_811_X47_V1_0/Libraries/XMCLib/inc\xmc_dac.h ****  * \par<b>Description:</b><br>
 920:C:/Workspaces/DAVE-4.4.2-64Bit/_PKDS_TSTS06_811_X47_V1_0/Libraries/XMCLib/inc\xmc_dac.h ****  * Selects the \e trigger source for the \e channel by configuring the bits TRIGSEL & TRIGMOD of CF
 921:C:/Workspaces/DAVE-4.4.2-64Bit/_PKDS_TSTS06_811_X47_V1_0/Libraries/XMCLib/inc\xmc_dac.h ****  *
 922:C:/Workspaces/DAVE-4.4.2-64Bit/_PKDS_TSTS06_811_X47_V1_0/Libraries/XMCLib/inc\xmc_dac.h ****  * \par
 923:C:/Workspaces/DAVE-4.4.2-64Bit/_PKDS_TSTS06_811_X47_V1_0/Libraries/XMCLib/inc\xmc_dac.h ****  * Channel \a channel trigger source is selected by \a TRIGSEL bit-field of \a DAC0CFG1 register (f
 924:C:/Workspaces/DAVE-4.4.2-64Bit/_PKDS_TSTS06_811_X47_V1_0/Libraries/XMCLib/inc\xmc_dac.h ****  *
 925:C:/Workspaces/DAVE-4.4.2-64Bit/_PKDS_TSTS06_811_X47_V1_0/Libraries/XMCLib/inc\xmc_dac.h ****  */
 926:C:/Workspaces/DAVE-4.4.2-64Bit/_PKDS_TSTS06_811_X47_V1_0/Libraries/XMCLib/inc\xmc_dac.h **** __STATIC_INLINE void XMC_DAC_CH_SetTrigger(XMC_DAC_t *const dac, const uint8_t channel, const XMC_D
 927:C:/Workspaces/DAVE-4.4.2-64Bit/_PKDS_TSTS06_811_X47_V1_0/Libraries/XMCLib/inc\xmc_dac.h **** {
 321              	 .loc 1 927 1
 322              	 .cfi_startproc
 323              	 
 324              	 
 325              	 
 326 0000 80B4     	 push {r7}
 327              	.LCFI30:
 328              	 .cfi_def_cfa_offset 4
 329              	 .cfi_offset 7,-4
 330 0002 85B0     	 sub sp,sp,#20
 331              	.LCFI31:
 332              	 .cfi_def_cfa_offset 24
 333 0004 00AF     	 add r7,sp,#0
 334              	.LCFI32:
 335              	 .cfi_def_cfa_register 7
 336 0006 F860     	 str r0,[r7,#12]
 337 0008 0B46     	 mov r3,r1
 338 000a 7A60     	 str r2,[r7,#4]
 339 000c FB72     	 strb r3,[r7,#11]
 928:C:/Workspaces/DAVE-4.4.2-64Bit/_PKDS_TSTS06_811_X47_V1_0/Libraries/XMCLib/inc\xmc_dac.h ****   XMC_ASSERT("XMC_DAC_CH_SetTrigger: dac parameter not valid\n", XMC_DAC_IS_DAC_VALID(dac));
 929:C:/Workspaces/DAVE-4.4.2-64Bit/_PKDS_TSTS06_811_X47_V1_0/Libraries/XMCLib/inc\xmc_dac.h ****   XMC_ASSERT("XMC_DAC_CH_SetTrigger: channel parameter not valid\n", XMC_DAC_IS_CHANNEL_VALID(chann
 930:C:/Workspaces/DAVE-4.4.2-64Bit/_PKDS_TSTS06_811_X47_V1_0/Libraries/XMCLib/inc\xmc_dac.h ****   XMC_ASSERT("XMC_DAC_CH_SetTrigger: trigger parameter not valid\n", XMC_DAC_IS_TRIGGER_VALID(trigg
 931:C:/Workspaces/DAVE-4.4.2-64Bit/_PKDS_TSTS06_811_X47_V1_0/Libraries/XMCLib/inc\xmc_dac.h **** 
 932:C:/Workspaces/DAVE-4.4.2-64Bit/_PKDS_TSTS06_811_X47_V1_0/Libraries/XMCLib/inc\xmc_dac.h ****   dac->DACCFG[channel].high = (dac->DACCFG[channel].high & ~(DAC_DAC0CFG1_TRIGSEL_Msk | DAC_DAC0CFG
 340              	 .loc 1 932 52
 341 000e FB7A     	 ldrb r3,[r7,#11]
 342 0010 FA68     	 ldr r2,[r7,#12]
 343 0012 DB00     	 lsls r3,r3,#3
 344 0014 1344     	 add r3,r3,r2
 345 0016 9B68     	 ldr r3,[r3,#8]
 346              	 .loc 1 932 58
 347 0018 23F4CE21 	 bic r1,r3,#421888
 348              	 .loc 1 932 23
 349 001c FB7A     	 ldrb r3,[r7,#11]
 350              	 .loc 1 932 116
 351 001e 7A68     	 ldr r2,[r7,#4]
 352 0020 0A43     	 orrs r2,r2,r1
 353              	 .loc 1 932 29
 354 0022 F968     	 ldr r1,[r7,#12]
 355 0024 DB00     	 lsls r3,r3,#3
 356 0026 0B44     	 add r3,r3,r1
 357 0028 9A60     	 str r2,[r3,#8]
 933:C:/Workspaces/DAVE-4.4.2-64Bit/_PKDS_TSTS06_811_X47_V1_0/Libraries/XMCLib/inc\xmc_dac.h ****                               trigger;
 934:C:/Workspaces/DAVE-4.4.2-64Bit/_PKDS_TSTS06_811_X47_V1_0/Libraries/XMCLib/inc\xmc_dac.h **** }
 358              	 .loc 1 934 1
 359 002a 00BF     	 nop
 360 002c 1437     	 adds r7,r7,#20
 361              	.LCFI33:
 362              	 .cfi_def_cfa_offset 4
 363 002e BD46     	 mov sp,r7
 364              	.LCFI34:
 365              	 .cfi_def_cfa_register 13
 366              	 
 367 0030 5DF8047B 	 ldr r7,[sp],#4
 368              	.LCFI35:
 369              	 .cfi_restore 7
 370              	 .cfi_def_cfa_offset 0
 371 0034 7047     	 bx lr
 372              	 .cfi_endproc
 373              	.LFE146:
 375              	 .section .text.XMC_DAC_CH_SetMode,"ax",%progbits
 376              	 .align 1
 377              	 .syntax unified
 378              	 .thumb
 379              	 .thumb_func
 380              	 .fpu fpv4-sp-d16
 382              	XMC_DAC_CH_SetMode:
 383              	.LFB148:
 935:C:/Workspaces/DAVE-4.4.2-64Bit/_PKDS_TSTS06_811_X47_V1_0/Libraries/XMCLib/inc\xmc_dac.h **** 
 936:C:/Workspaces/DAVE-4.4.2-64Bit/_PKDS_TSTS06_811_X47_V1_0/Libraries/XMCLib/inc\xmc_dac.h **** /**
 937:C:/Workspaces/DAVE-4.4.2-64Bit/_PKDS_TSTS06_811_X47_V1_0/Libraries/XMCLib/inc\xmc_dac.h ****  * @param dac Pointer to an instance of DAC module
 938:C:/Workspaces/DAVE-4.4.2-64Bit/_PKDS_TSTS06_811_X47_V1_0/Libraries/XMCLib/inc\xmc_dac.h ****  * @param channel DAC channel number
 939:C:/Workspaces/DAVE-4.4.2-64Bit/_PKDS_TSTS06_811_X47_V1_0/Libraries/XMCLib/inc\xmc_dac.h ****  * @param frequency Waveform frequency in [Hz]
 940:C:/Workspaces/DAVE-4.4.2-64Bit/_PKDS_TSTS06_811_X47_V1_0/Libraries/XMCLib/inc\xmc_dac.h ****  *
 941:C:/Workspaces/DAVE-4.4.2-64Bit/_PKDS_TSTS06_811_X47_V1_0/Libraries/XMCLib/inc\xmc_dac.h ****  * @return XMC_DAC_CH_STATUS_t
 942:C:/Workspaces/DAVE-4.4.2-64Bit/_PKDS_TSTS06_811_X47_V1_0/Libraries/XMCLib/inc\xmc_dac.h ****  *
 943:C:/Workspaces/DAVE-4.4.2-64Bit/_PKDS_TSTS06_811_X47_V1_0/Libraries/XMCLib/inc\xmc_dac.h ****  * \par<b>Description:</b><br>
 944:C:/Workspaces/DAVE-4.4.2-64Bit/_PKDS_TSTS06_811_X47_V1_0/Libraries/XMCLib/inc\xmc_dac.h ****  * Sets the \e frequency of DAC channel.
 945:C:/Workspaces/DAVE-4.4.2-64Bit/_PKDS_TSTS06_811_X47_V1_0/Libraries/XMCLib/inc\xmc_dac.h ****  *
 946:C:/Workspaces/DAVE-4.4.2-64Bit/_PKDS_TSTS06_811_X47_V1_0/Libraries/XMCLib/inc\xmc_dac.h ****  * \par
 947:C:/Workspaces/DAVE-4.4.2-64Bit/_PKDS_TSTS06_811_X47_V1_0/Libraries/XMCLib/inc\xmc_dac.h ****  * The value \e frequency acts as clock divider. The smallest \e frequency divider value is 16.
 948:C:/Workspaces/DAVE-4.4.2-64Bit/_PKDS_TSTS06_811_X47_V1_0/Libraries/XMCLib/inc\xmc_dac.h ****  * A valid \e frequency value should be within the range XMC_DAC_MIN_FREQ_DIVIDER to XMC_DAC_MAX_FR
 949:C:/Workspaces/DAVE-4.4.2-64Bit/_PKDS_TSTS06_811_X47_V1_0/Libraries/XMCLib/inc\xmc_dac.h ****  * Frequency \a frequency is configured by setting \a FREQ bit-field of \a DAC0CFG0 register (for c
 950:C:/Workspaces/DAVE-4.4.2-64Bit/_PKDS_TSTS06_811_X47_V1_0/Libraries/XMCLib/inc\xmc_dac.h ****  *
 951:C:/Workspaces/DAVE-4.4.2-64Bit/_PKDS_TSTS06_811_X47_V1_0/Libraries/XMCLib/inc\xmc_dac.h ****  * \par<b>Note:</b><br>
 952:C:/Workspaces/DAVE-4.4.2-64Bit/_PKDS_TSTS06_811_X47_V1_0/Libraries/XMCLib/inc\xmc_dac.h ****  * Call this API only for Single value mode, Data mode and Noise mode.
 953:C:/Workspaces/DAVE-4.4.2-64Bit/_PKDS_TSTS06_811_X47_V1_0/Libraries/XMCLib/inc\xmc_dac.h ****  * Call XMC_DAC_CH_SetRampFrequency() in case of Ramp mode and XMC_DAC_CH_SetPatternFrequency() in 
 954:C:/Workspaces/DAVE-4.4.2-64Bit/_PKDS_TSTS06_811_X47_V1_0/Libraries/XMCLib/inc\xmc_dac.h ****  *
 955:C:/Workspaces/DAVE-4.4.2-64Bit/_PKDS_TSTS06_811_X47_V1_0/Libraries/XMCLib/inc\xmc_dac.h ****  * \par<b>Related APIs:</b><BR>
 956:C:/Workspaces/DAVE-4.4.2-64Bit/_PKDS_TSTS06_811_X47_V1_0/Libraries/XMCLib/inc\xmc_dac.h ****  * XMC_DAC_CH_SetRampFrequency(), XMC_DAC_CH_SetPatternFrequency()\n\n\n
 957:C:/Workspaces/DAVE-4.4.2-64Bit/_PKDS_TSTS06_811_X47_V1_0/Libraries/XMCLib/inc\xmc_dac.h ****  *
 958:C:/Workspaces/DAVE-4.4.2-64Bit/_PKDS_TSTS06_811_X47_V1_0/Libraries/XMCLib/inc\xmc_dac.h ****  */
 959:C:/Workspaces/DAVE-4.4.2-64Bit/_PKDS_TSTS06_811_X47_V1_0/Libraries/XMCLib/inc\xmc_dac.h **** XMC_DAC_CH_STATUS_t XMC_DAC_CH_SetFrequency(XMC_DAC_t *const dac, const uint8_t channel, const uint
 960:C:/Workspaces/DAVE-4.4.2-64Bit/_PKDS_TSTS06_811_X47_V1_0/Libraries/XMCLib/inc\xmc_dac.h **** 
 961:C:/Workspaces/DAVE-4.4.2-64Bit/_PKDS_TSTS06_811_X47_V1_0/Libraries/XMCLib/inc\xmc_dac.h **** /**
 962:C:/Workspaces/DAVE-4.4.2-64Bit/_PKDS_TSTS06_811_X47_V1_0/Libraries/XMCLib/inc\xmc_dac.h ****  * @param dac Pointer to an instance of DAC module
 963:C:/Workspaces/DAVE-4.4.2-64Bit/_PKDS_TSTS06_811_X47_V1_0/Libraries/XMCLib/inc\xmc_dac.h ****  * @param channel DAC channel number
 964:C:/Workspaces/DAVE-4.4.2-64Bit/_PKDS_TSTS06_811_X47_V1_0/Libraries/XMCLib/inc\xmc_dac.h ****  * @param frequency [Hz]
 965:C:/Workspaces/DAVE-4.4.2-64Bit/_PKDS_TSTS06_811_X47_V1_0/Libraries/XMCLib/inc\xmc_dac.h ****  *
 966:C:/Workspaces/DAVE-4.4.2-64Bit/_PKDS_TSTS06_811_X47_V1_0/Libraries/XMCLib/inc\xmc_dac.h ****  * @return XMC_DAC_CH_STATUS_t
 967:C:/Workspaces/DAVE-4.4.2-64Bit/_PKDS_TSTS06_811_X47_V1_0/Libraries/XMCLib/inc\xmc_dac.h ****  *
 968:C:/Workspaces/DAVE-4.4.2-64Bit/_PKDS_TSTS06_811_X47_V1_0/Libraries/XMCLib/inc\xmc_dac.h ****  * \par<b>Description:</b><br>
 969:C:/Workspaces/DAVE-4.4.2-64Bit/_PKDS_TSTS06_811_X47_V1_0/Libraries/XMCLib/inc\xmc_dac.h ****  * Sets the \e frequency of DAC channel by calling XMC_DAC_CH_SetFrequency().
 970:C:/Workspaces/DAVE-4.4.2-64Bit/_PKDS_TSTS06_811_X47_V1_0/Libraries/XMCLib/inc\xmc_dac.h ****  *
 971:C:/Workspaces/DAVE-4.4.2-64Bit/_PKDS_TSTS06_811_X47_V1_0/Libraries/XMCLib/inc\xmc_dac.h ****  * \par
 972:C:/Workspaces/DAVE-4.4.2-64Bit/_PKDS_TSTS06_811_X47_V1_0/Libraries/XMCLib/inc\xmc_dac.h ****  * For the Ramp mode, the \a frequency of operation depends on the total number of sample points (\
 973:C:/Workspaces/DAVE-4.4.2-64Bit/_PKDS_TSTS06_811_X47_V1_0/Libraries/XMCLib/inc\xmc_dac.h ****  * Frequency \e frequency is multiplied by the total number of sample points, so that each trigger 
 974:C:/Workspaces/DAVE-4.4.2-64Bit/_PKDS_TSTS06_811_X47_V1_0/Libraries/XMCLib/inc\xmc_dac.h ****  *
 975:C:/Workspaces/DAVE-4.4.2-64Bit/_PKDS_TSTS06_811_X47_V1_0/Libraries/XMCLib/inc\xmc_dac.h ****  * \par<b>Note:</b><br>
 976:C:/Workspaces/DAVE-4.4.2-64Bit/_PKDS_TSTS06_811_X47_V1_0/Libraries/XMCLib/inc\xmc_dac.h ****  * Call this API only if the \a channel is set to Ramp mode.
 977:C:/Workspaces/DAVE-4.4.2-64Bit/_PKDS_TSTS06_811_X47_V1_0/Libraries/XMCLib/inc\xmc_dac.h ****  *
 978:C:/Workspaces/DAVE-4.4.2-64Bit/_PKDS_TSTS06_811_X47_V1_0/Libraries/XMCLib/inc\xmc_dac.h ****  * \par<b>Related APIs:</b><BR>
 979:C:/Workspaces/DAVE-4.4.2-64Bit/_PKDS_TSTS06_811_X47_V1_0/Libraries/XMCLib/inc\xmc_dac.h ****  * XMC_DAC_CH_StartRampMode()\n\n\n
 980:C:/Workspaces/DAVE-4.4.2-64Bit/_PKDS_TSTS06_811_X47_V1_0/Libraries/XMCLib/inc\xmc_dac.h ****  *
 981:C:/Workspaces/DAVE-4.4.2-64Bit/_PKDS_TSTS06_811_X47_V1_0/Libraries/XMCLib/inc\xmc_dac.h ****  */
 982:C:/Workspaces/DAVE-4.4.2-64Bit/_PKDS_TSTS06_811_X47_V1_0/Libraries/XMCLib/inc\xmc_dac.h **** XMC_DAC_CH_STATUS_t XMC_DAC_CH_SetRampFrequency(XMC_DAC_t *const dac, const uint8_t channel, const 
 983:C:/Workspaces/DAVE-4.4.2-64Bit/_PKDS_TSTS06_811_X47_V1_0/Libraries/XMCLib/inc\xmc_dac.h **** 
 984:C:/Workspaces/DAVE-4.4.2-64Bit/_PKDS_TSTS06_811_X47_V1_0/Libraries/XMCLib/inc\xmc_dac.h **** /**
 985:C:/Workspaces/DAVE-4.4.2-64Bit/_PKDS_TSTS06_811_X47_V1_0/Libraries/XMCLib/inc\xmc_dac.h ****  * @param dac Pointer to an instance of DAC module
 986:C:/Workspaces/DAVE-4.4.2-64Bit/_PKDS_TSTS06_811_X47_V1_0/Libraries/XMCLib/inc\xmc_dac.h ****  * @param channel DAC channel number
 987:C:/Workspaces/DAVE-4.4.2-64Bit/_PKDS_TSTS06_811_X47_V1_0/Libraries/XMCLib/inc\xmc_dac.h ****  * @param frequency in [Hz]
 988:C:/Workspaces/DAVE-4.4.2-64Bit/_PKDS_TSTS06_811_X47_V1_0/Libraries/XMCLib/inc\xmc_dac.h ****  *
 989:C:/Workspaces/DAVE-4.4.2-64Bit/_PKDS_TSTS06_811_X47_V1_0/Libraries/XMCLib/inc\xmc_dac.h ****  * @return XMC_DAC_CH_STATUS_t
 990:C:/Workspaces/DAVE-4.4.2-64Bit/_PKDS_TSTS06_811_X47_V1_0/Libraries/XMCLib/inc\xmc_dac.h ****  *
 991:C:/Workspaces/DAVE-4.4.2-64Bit/_PKDS_TSTS06_811_X47_V1_0/Libraries/XMCLib/inc\xmc_dac.h ****  * \par<b>Description:</b><br>
 992:C:/Workspaces/DAVE-4.4.2-64Bit/_PKDS_TSTS06_811_X47_V1_0/Libraries/XMCLib/inc\xmc_dac.h ****  * Sets the \e frequency of DAC channel by calling XMC_DAC_CH_SetFrequency().
 993:C:/Workspaces/DAVE-4.4.2-64Bit/_PKDS_TSTS06_811_X47_V1_0/Libraries/XMCLib/inc\xmc_dac.h ****  *
 994:C:/Workspaces/DAVE-4.4.2-64Bit/_PKDS_TSTS06_811_X47_V1_0/Libraries/XMCLib/inc\xmc_dac.h ****  * \par
 995:C:/Workspaces/DAVE-4.4.2-64Bit/_PKDS_TSTS06_811_X47_V1_0/Libraries/XMCLib/inc\xmc_dac.h ****  * For the Pattern mode, the \a frequency of operation depends on the total number of sample points
 996:C:/Workspaces/DAVE-4.4.2-64Bit/_PKDS_TSTS06_811_X47_V1_0/Libraries/XMCLib/inc\xmc_dac.h ****  * Frequency \e frequency is multiplied by the total number of sample points, so that each trigger 
 997:C:/Workspaces/DAVE-4.4.2-64Bit/_PKDS_TSTS06_811_X47_V1_0/Libraries/XMCLib/inc\xmc_dac.h ****  *
 998:C:/Workspaces/DAVE-4.4.2-64Bit/_PKDS_TSTS06_811_X47_V1_0/Libraries/XMCLib/inc\xmc_dac.h ****  * \par<b>Note:</b><br>
 999:C:/Workspaces/DAVE-4.4.2-64Bit/_PKDS_TSTS06_811_X47_V1_0/Libraries/XMCLib/inc\xmc_dac.h ****  * Call this API only if the \a channel is set to Pattern mode.
1000:C:/Workspaces/DAVE-4.4.2-64Bit/_PKDS_TSTS06_811_X47_V1_0/Libraries/XMCLib/inc\xmc_dac.h ****  *
1001:C:/Workspaces/DAVE-4.4.2-64Bit/_PKDS_TSTS06_811_X47_V1_0/Libraries/XMCLib/inc\xmc_dac.h ****  * \par<b>Related APIs:</b><BR>
1002:C:/Workspaces/DAVE-4.4.2-64Bit/_PKDS_TSTS06_811_X47_V1_0/Libraries/XMCLib/inc\xmc_dac.h ****  * XMC_DAC_CH_StartPatternMode()\n\n\n
1003:C:/Workspaces/DAVE-4.4.2-64Bit/_PKDS_TSTS06_811_X47_V1_0/Libraries/XMCLib/inc\xmc_dac.h ****  *
1004:C:/Workspaces/DAVE-4.4.2-64Bit/_PKDS_TSTS06_811_X47_V1_0/Libraries/XMCLib/inc\xmc_dac.h ****  */
1005:C:/Workspaces/DAVE-4.4.2-64Bit/_PKDS_TSTS06_811_X47_V1_0/Libraries/XMCLib/inc\xmc_dac.h **** __STATIC_INLINE XMC_DAC_CH_STATUS_t XMC_DAC_CH_SetPatternFrequency(XMC_DAC_t *const dac,
1006:C:/Workspaces/DAVE-4.4.2-64Bit/_PKDS_TSTS06_811_X47_V1_0/Libraries/XMCLib/inc\xmc_dac.h ****     const uint8_t channel,
1007:C:/Workspaces/DAVE-4.4.2-64Bit/_PKDS_TSTS06_811_X47_V1_0/Libraries/XMCLib/inc\xmc_dac.h ****     const uint32_t frequency)
1008:C:/Workspaces/DAVE-4.4.2-64Bit/_PKDS_TSTS06_811_X47_V1_0/Libraries/XMCLib/inc\xmc_dac.h **** {
1009:C:/Workspaces/DAVE-4.4.2-64Bit/_PKDS_TSTS06_811_X47_V1_0/Libraries/XMCLib/inc\xmc_dac.h ****   XMC_ASSERT("XMC_DAC_CH_SetPatternFrequency: dac parameter not valid\n", XMC_DAC_IS_DAC_VALID(dac)
1010:C:/Workspaces/DAVE-4.4.2-64Bit/_PKDS_TSTS06_811_X47_V1_0/Libraries/XMCLib/inc\xmc_dac.h ****   XMC_ASSERT("XMC_DAC_CH_SetPatternFrequency: channel parameter not valid\n", XMC_DAC_IS_CHANNEL_VA
1011:C:/Workspaces/DAVE-4.4.2-64Bit/_PKDS_TSTS06_811_X47_V1_0/Libraries/XMCLib/inc\xmc_dac.h **** 
1012:C:/Workspaces/DAVE-4.4.2-64Bit/_PKDS_TSTS06_811_X47_V1_0/Libraries/XMCLib/inc\xmc_dac.h ****   return XMC_DAC_CH_SetFrequency(dac, channel, frequency * XMC_DAC_SAMPLES_PER_PERIOD);
1013:C:/Workspaces/DAVE-4.4.2-64Bit/_PKDS_TSTS06_811_X47_V1_0/Libraries/XMCLib/inc\xmc_dac.h **** }
1014:C:/Workspaces/DAVE-4.4.2-64Bit/_PKDS_TSTS06_811_X47_V1_0/Libraries/XMCLib/inc\xmc_dac.h **** 
1015:C:/Workspaces/DAVE-4.4.2-64Bit/_PKDS_TSTS06_811_X47_V1_0/Libraries/XMCLib/inc\xmc_dac.h **** /**
1016:C:/Workspaces/DAVE-4.4.2-64Bit/_PKDS_TSTS06_811_X47_V1_0/Libraries/XMCLib/inc\xmc_dac.h ****  * @param dac Pointer to an instance of DAC module
1017:C:/Workspaces/DAVE-4.4.2-64Bit/_PKDS_TSTS06_811_X47_V1_0/Libraries/XMCLib/inc\xmc_dac.h ****  * @param channel DAC channel number
1018:C:/Workspaces/DAVE-4.4.2-64Bit/_PKDS_TSTS06_811_X47_V1_0/Libraries/XMCLib/inc\xmc_dac.h ****  * @param mode DAC operation mode
1019:C:/Workspaces/DAVE-4.4.2-64Bit/_PKDS_TSTS06_811_X47_V1_0/Libraries/XMCLib/inc\xmc_dac.h ****  *
1020:C:/Workspaces/DAVE-4.4.2-64Bit/_PKDS_TSTS06_811_X47_V1_0/Libraries/XMCLib/inc\xmc_dac.h ****  * @return None
1021:C:/Workspaces/DAVE-4.4.2-64Bit/_PKDS_TSTS06_811_X47_V1_0/Libraries/XMCLib/inc\xmc_dac.h ****  *
1022:C:/Workspaces/DAVE-4.4.2-64Bit/_PKDS_TSTS06_811_X47_V1_0/Libraries/XMCLib/inc\xmc_dac.h ****  * \par<b>Description:</b><br>
1023:C:/Workspaces/DAVE-4.4.2-64Bit/_PKDS_TSTS06_811_X47_V1_0/Libraries/XMCLib/inc\xmc_dac.h ****  * Sets the operating \e mode for the \e channel by setting the \a MODE bit-field of \a DAC0CFG0 re
1024:C:/Workspaces/DAVE-4.4.2-64Bit/_PKDS_TSTS06_811_X47_V1_0/Libraries/XMCLib/inc\xmc_dac.h ****  * Different modes of DAC operation are defined by enum XMC_DAC_CH_MODE_t.
1025:C:/Workspaces/DAVE-4.4.2-64Bit/_PKDS_TSTS06_811_X47_V1_0/Libraries/XMCLib/inc\xmc_dac.h ****  *
1026:C:/Workspaces/DAVE-4.4.2-64Bit/_PKDS_TSTS06_811_X47_V1_0/Libraries/XMCLib/inc\xmc_dac.h ****  */
1027:C:/Workspaces/DAVE-4.4.2-64Bit/_PKDS_TSTS06_811_X47_V1_0/Libraries/XMCLib/inc\xmc_dac.h **** __STATIC_INLINE void XMC_DAC_CH_SetMode(XMC_DAC_t *const dac, const uint8_t channel, const XMC_DAC_
1028:C:/Workspaces/DAVE-4.4.2-64Bit/_PKDS_TSTS06_811_X47_V1_0/Libraries/XMCLib/inc\xmc_dac.h **** {
 384              	 .loc 1 1028 1
 385              	 .cfi_startproc
 386              	 
 387              	 
 388              	 
 389 0000 80B4     	 push {r7}
 390              	.LCFI36:
 391              	 .cfi_def_cfa_offset 4
 392              	 .cfi_offset 7,-4
 393 0002 85B0     	 sub sp,sp,#20
 394              	.LCFI37:
 395              	 .cfi_def_cfa_offset 24
 396 0004 00AF     	 add r7,sp,#0
 397              	.LCFI38:
 398              	 .cfi_def_cfa_register 7
 399 0006 F860     	 str r0,[r7,#12]
 400 0008 0B46     	 mov r3,r1
 401 000a 7A60     	 str r2,[r7,#4]
 402 000c FB72     	 strb r3,[r7,#11]
1029:C:/Workspaces/DAVE-4.4.2-64Bit/_PKDS_TSTS06_811_X47_V1_0/Libraries/XMCLib/inc\xmc_dac.h ****   XMC_ASSERT("XMC_DAC_CH_SetMode: dac parameter not valid\n", XMC_DAC_IS_DAC_VALID(dac));
1030:C:/Workspaces/DAVE-4.4.2-64Bit/_PKDS_TSTS06_811_X47_V1_0/Libraries/XMCLib/inc\xmc_dac.h ****   XMC_ASSERT("XMC_DAC_CH_SetMode: channel parameter not valid\n", XMC_DAC_IS_CHANNEL_VALID(channel)
1031:C:/Workspaces/DAVE-4.4.2-64Bit/_PKDS_TSTS06_811_X47_V1_0/Libraries/XMCLib/inc\xmc_dac.h ****   XMC_ASSERT("XMC_DAC_CH_SetMode: trigger parameter not valid\n", XMC_DAC_IS_MODE_VALID(mode));
1032:C:/Workspaces/DAVE-4.4.2-64Bit/_PKDS_TSTS06_811_X47_V1_0/Libraries/XMCLib/inc\xmc_dac.h **** 
1033:C:/Workspaces/DAVE-4.4.2-64Bit/_PKDS_TSTS06_811_X47_V1_0/Libraries/XMCLib/inc\xmc_dac.h ****   dac->DACCFG[channel].low = (dac->DACCFG[channel].low & ~DAC_DAC0CFG0_MODE_Msk) |
 403              	 .loc 1 1033 51
 404 000e FB7A     	 ldrb r3,[r7,#11]
 405 0010 FA68     	 ldr r2,[r7,#12]
 406 0012 DB00     	 lsls r3,r3,#3
 407 0014 1344     	 add r3,r3,r2
 408 0016 5B68     	 ldr r3,[r3,#4]
 409              	 .loc 1 1033 56
 410 0018 23F4E001 	 bic r1,r3,#7340032
 411              	 .loc 1 1033 23
 412 001c FB7A     	 ldrb r3,[r7,#11]
 413              	 .loc 1 1033 82
 414 001e 7A68     	 ldr r2,[r7,#4]
 415 0020 0A43     	 orrs r2,r2,r1
 416              	 .loc 1 1033 28
 417 0022 F968     	 ldr r1,[r7,#12]
 418 0024 DB00     	 lsls r3,r3,#3
 419 0026 0B44     	 add r3,r3,r1
 420 0028 5A60     	 str r2,[r3,#4]
1034:C:/Workspaces/DAVE-4.4.2-64Bit/_PKDS_TSTS06_811_X47_V1_0/Libraries/XMCLib/inc\xmc_dac.h ****                              mode;
1035:C:/Workspaces/DAVE-4.4.2-64Bit/_PKDS_TSTS06_811_X47_V1_0/Libraries/XMCLib/inc\xmc_dac.h **** }
 421              	 .loc 1 1035 1
 422 002a 00BF     	 nop
 423 002c 1437     	 adds r7,r7,#20
 424              	.LCFI39:
 425              	 .cfi_def_cfa_offset 4
 426 002e BD46     	 mov sp,r7
 427              	.LCFI40:
 428              	 .cfi_def_cfa_register 13
 429              	 
 430 0030 5DF8047B 	 ldr r7,[sp],#4
 431              	.LCFI41:
 432              	 .cfi_restore 7
 433              	 .cfi_def_cfa_offset 0
 434 0034 7047     	 bx lr
 435              	 .cfi_endproc
 436              	.LFE148:
 438              	 .section .text.XMC_DAC_Enable,"ax",%progbits
 439              	 .align 1
 440              	 .global XMC_DAC_Enable
 441              	 .syntax unified
 442              	 .thumb
 443              	 .thumb_func
 444              	 .fpu fpv4-sp-d16
 446              	XMC_DAC_Enable:
 447              	.LFB199:
 448              	 .file 2 "../Libraries/XMCLib/src/xmc_dac.c"
   1:../Libraries/XMCLib/src/xmc_dac.c **** /**
   2:../Libraries/XMCLib/src/xmc_dac.c ****  * @file xmc_dac.c
   3:../Libraries/XMCLib/src/xmc_dac.c ****  * @date 2019-12-16
   4:../Libraries/XMCLib/src/xmc_dac.c ****  *
   5:../Libraries/XMCLib/src/xmc_dac.c ****  * @cond
   6:../Libraries/XMCLib/src/xmc_dac.c ****  *****************************************************************************
   7:../Libraries/XMCLib/src/xmc_dac.c ****  * XMClib v2.2.0 - XMC Peripheral Driver Library
   8:../Libraries/XMCLib/src/xmc_dac.c ****  *
   9:../Libraries/XMCLib/src/xmc_dac.c ****  * Copyright (c) 2015-2020, Infineon Technologies AG
  10:../Libraries/XMCLib/src/xmc_dac.c ****  * All rights reserved.
  11:../Libraries/XMCLib/src/xmc_dac.c ****  *
  12:../Libraries/XMCLib/src/xmc_dac.c ****  * Boost Software License - Version 1.0 - August 17th, 2003
  13:../Libraries/XMCLib/src/xmc_dac.c ****  *
  14:../Libraries/XMCLib/src/xmc_dac.c ****  * Permission is hereby granted, free of charge, to any person or organization
  15:../Libraries/XMCLib/src/xmc_dac.c ****  * obtaining a copy of the software and accompanying documentation covered by
  16:../Libraries/XMCLib/src/xmc_dac.c ****  * this license (the "Software") to use, reproduce, display, distribute,
  17:../Libraries/XMCLib/src/xmc_dac.c ****  * execute, and transmit the Software, and to prepare derivative works of the
  18:../Libraries/XMCLib/src/xmc_dac.c ****  * Software, and to permit third-parties to whom the Software is furnished to
  19:../Libraries/XMCLib/src/xmc_dac.c ****  * do so, all subject to the following:
  20:../Libraries/XMCLib/src/xmc_dac.c ****  *
  21:../Libraries/XMCLib/src/xmc_dac.c ****  * The copyright notices in the Software and this entire statement, including
  22:../Libraries/XMCLib/src/xmc_dac.c ****  * the above license grant, this restriction and the following disclaimer,
  23:../Libraries/XMCLib/src/xmc_dac.c ****  * must be included in all copies of the Software, in whole or in part, and
  24:../Libraries/XMCLib/src/xmc_dac.c ****  * all derivative works of the Software, unless such copies or derivative
  25:../Libraries/XMCLib/src/xmc_dac.c ****  * works are solely in the form of machine-executable object code generated by
  26:../Libraries/XMCLib/src/xmc_dac.c ****  * a source language processor.
  27:../Libraries/XMCLib/src/xmc_dac.c ****  *
  28:../Libraries/XMCLib/src/xmc_dac.c ****  * THE SOFTWARE IS PROVIDED "AS IS", WITHOUT WARRANTY OF ANY KIND, EXPRESS OR
  29:../Libraries/XMCLib/src/xmc_dac.c ****  * IMPLIED, INCLUDING BUT NOT LIMITED TO THE WARRANTIES OF MERCHANTABILITY,
  30:../Libraries/XMCLib/src/xmc_dac.c ****  * FITNESS FOR A PARTICULAR PURPOSE, TITLE AND NON-INFRINGEMENT. IN NO EVENT
  31:../Libraries/XMCLib/src/xmc_dac.c ****  * SHALL THE COPYRIGHT HOLDERS OR ANYONE DISTRIBUTING THE SOFTWARE BE LIABLE
  32:../Libraries/XMCLib/src/xmc_dac.c ****  * FOR ANY DAMAGES OR OTHER LIABILITY, WHETHER IN CONTRACT, TORT OR OTHERWISE,
  33:../Libraries/XMCLib/src/xmc_dac.c ****  * ARISING FROM, OUT OF OR IN CONNECTION WITH THE SOFTWARE OR THE USE OR OTHER
  34:../Libraries/XMCLib/src/xmc_dac.c ****  * DEALINGS IN THE SOFTWARE.
  35:../Libraries/XMCLib/src/xmc_dac.c ****  *
  36:../Libraries/XMCLib/src/xmc_dac.c ****  * To improve the quality of the software, users are encouraged to share
  37:../Libraries/XMCLib/src/xmc_dac.c ****  * modifications, enhancements or bug fixes with Infineon Technologies AG
  38:../Libraries/XMCLib/src/xmc_dac.c ****  * at XMCSupport@infineon.com.
  39:../Libraries/XMCLib/src/xmc_dac.c ****  *****************************************************************************
  40:../Libraries/XMCLib/src/xmc_dac.c ****  *
  41:../Libraries/XMCLib/src/xmc_dac.c ****  * Change History
  42:../Libraries/XMCLib/src/xmc_dac.c ****  * --------------
  43:../Libraries/XMCLib/src/xmc_dac.c ****  *
  44:../Libraries/XMCLib/src/xmc_dac.c ****  * 2015-02-18:
  45:../Libraries/XMCLib/src/xmc_dac.c ****  *     - Initial version
  46:../Libraries/XMCLib/src/xmc_dac.c ****  *
  47:../Libraries/XMCLib/src/xmc_dac.c ****  * 2015-06-19:
  48:../Libraries/XMCLib/src/xmc_dac.c ****  *     - Removed GetDriverVersion API
  49:../Libraries/XMCLib/src/xmc_dac.c ****  *
  50:../Libraries/XMCLib/src/xmc_dac.c ****  * 2019-12-16:
  51:../Libraries/XMCLib/src/xmc_dac.c ****  *     - Fix including files following the convention: angle brackets are used for standard include
  52:../Libraries/XMCLib/src/xmc_dac.c ****  *
  53:../Libraries/XMCLib/src/xmc_dac.c ****  * @endcond
  54:../Libraries/XMCLib/src/xmc_dac.c ****  *
  55:../Libraries/XMCLib/src/xmc_dac.c ****  */
  56:../Libraries/XMCLib/src/xmc_dac.c **** 
  57:../Libraries/XMCLib/src/xmc_dac.c **** /*******************************************************************************
  58:../Libraries/XMCLib/src/xmc_dac.c ****  * HEADER FILES
  59:../Libraries/XMCLib/src/xmc_dac.c ****  *******************************************************************************/
  60:../Libraries/XMCLib/src/xmc_dac.c **** 
  61:../Libraries/XMCLib/src/xmc_dac.c **** #include "xmc_dac.h"
  62:../Libraries/XMCLib/src/xmc_dac.c **** #include "xmc_scu.h"
  63:../Libraries/XMCLib/src/xmc_dac.c **** 
  64:../Libraries/XMCLib/src/xmc_dac.c **** /* DAC peripheral is not available on XMC1X devices. */
  65:../Libraries/XMCLib/src/xmc_dac.c **** #if defined(DAC)
  66:../Libraries/XMCLib/src/xmc_dac.c **** 
  67:../Libraries/XMCLib/src/xmc_dac.c **** /*******************************************************************************
  68:../Libraries/XMCLib/src/xmc_dac.c ****  * MACROS
  69:../Libraries/XMCLib/src/xmc_dac.c ****  *******************************************************************************/
  70:../Libraries/XMCLib/src/xmc_dac.c **** 
  71:../Libraries/XMCLib/src/xmc_dac.c **** #define XMC_DAC_MIN_FREQ_DIVIDER (16U)
  72:../Libraries/XMCLib/src/xmc_dac.c **** #define XMC_DAC_MAX_FREQ_DIVIDER (1048576U)
  73:../Libraries/XMCLib/src/xmc_dac.c **** #define XMC_DAC_DAC0PATL_PAT_BITSIZE (5U)
  74:../Libraries/XMCLib/src/xmc_dac.c **** 
  75:../Libraries/XMCLib/src/xmc_dac.c **** /*******************************************************************************
  76:../Libraries/XMCLib/src/xmc_dac.c ****  * API IMPLEMENTATION
  77:../Libraries/XMCLib/src/xmc_dac.c ****  *******************************************************************************/
  78:../Libraries/XMCLib/src/xmc_dac.c **** 
  79:../Libraries/XMCLib/src/xmc_dac.c **** /* API to enable the DAC module */
  80:../Libraries/XMCLib/src/xmc_dac.c **** void XMC_DAC_Enable(XMC_DAC_t *const dac)
  81:../Libraries/XMCLib/src/xmc_dac.c **** {
 449              	 .loc 2 81 1
 450              	 .cfi_startproc
 451              	 
 452              	 
 453 0000 80B5     	 push {r7,lr}
 454              	.LCFI42:
 455              	 .cfi_def_cfa_offset 8
 456              	 .cfi_offset 7,-8
 457              	 .cfi_offset 14,-4
 458 0002 82B0     	 sub sp,sp,#8
 459              	.LCFI43:
 460              	 .cfi_def_cfa_offset 16
 461 0004 00AF     	 add r7,sp,#0
 462              	.LCFI44:
 463              	 .cfi_def_cfa_register 7
 464 0006 7860     	 str r0,[r7,#4]
  82:../Libraries/XMCLib/src/xmc_dac.c ****   XMC_UNUSED_ARG(dac);
  83:../Libraries/XMCLib/src/xmc_dac.c **** 
  84:../Libraries/XMCLib/src/xmc_dac.c **** #if defined(CLOCK_GATING_SUPPORTED)
  85:../Libraries/XMCLib/src/xmc_dac.c ****   XMC_SCU_CLOCK_UngatePeripheralClock(XMC_SCU_PERIPHERAL_CLOCK_DAC);
 465              	 .loc 2 85 3
 466 0008 0448     	 ldr r0,.L9
 467 000a FFF7FEFF 	 bl XMC_SCU_CLOCK_UngatePeripheralClock
  86:../Libraries/XMCLib/src/xmc_dac.c **** #endif
  87:../Libraries/XMCLib/src/xmc_dac.c ****   XMC_SCU_RESET_DeassertPeripheralReset(XMC_SCU_PERIPHERAL_RESET_DAC);
 468              	 .loc 2 87 3
 469 000e 0348     	 ldr r0,.L9
 470 0010 FFF7FEFF 	 bl XMC_SCU_RESET_DeassertPeripheralReset
  88:../Libraries/XMCLib/src/xmc_dac.c **** }
 471              	 .loc 2 88 1
 472 0014 00BF     	 nop
 473 0016 0837     	 adds r7,r7,#8
 474              	.LCFI45:
 475              	 .cfi_def_cfa_offset 8
 476 0018 BD46     	 mov sp,r7
 477              	.LCFI46:
 478              	 .cfi_def_cfa_register 13
 479              	 
 480 001a 80BD     	 pop {r7,pc}
 481              	.L10:
 482              	 .align 2
 483              	.L9:
 484 001c 20000010 	 .word 268435488
 485              	 .cfi_endproc
 486              	.LFE199:
 488              	 .section .text.XMC_DAC_Disable,"ax",%progbits
 489              	 .align 1
 490              	 .global XMC_DAC_Disable
 491              	 .syntax unified
 492              	 .thumb
 493              	 .thumb_func
 494              	 .fpu fpv4-sp-d16
 496              	XMC_DAC_Disable:
 497              	.LFB200:
  89:../Libraries/XMCLib/src/xmc_dac.c **** 
  90:../Libraries/XMCLib/src/xmc_dac.c **** /* API to disable the DAC module */
  91:../Libraries/XMCLib/src/xmc_dac.c **** void XMC_DAC_Disable(XMC_DAC_t *const dac)
  92:../Libraries/XMCLib/src/xmc_dac.c **** {
 498              	 .loc 2 92 1
 499              	 .cfi_startproc
 500              	 
 501              	 
 502 0000 80B5     	 push {r7,lr}
 503              	.LCFI47:
 504              	 .cfi_def_cfa_offset 8
 505              	 .cfi_offset 7,-8
 506              	 .cfi_offset 14,-4
 507 0002 82B0     	 sub sp,sp,#8
 508              	.LCFI48:
 509              	 .cfi_def_cfa_offset 16
 510 0004 00AF     	 add r7,sp,#0
 511              	.LCFI49:
 512              	 .cfi_def_cfa_register 7
 513 0006 7860     	 str r0,[r7,#4]
  93:../Libraries/XMCLib/src/xmc_dac.c ****   XMC_UNUSED_ARG(dac);
  94:../Libraries/XMCLib/src/xmc_dac.c **** 
  95:../Libraries/XMCLib/src/xmc_dac.c ****   XMC_SCU_RESET_AssertPeripheralReset(XMC_SCU_PERIPHERAL_RESET_DAC);
 514              	 .loc 2 95 3
 515 0008 0448     	 ldr r0,.L12
 516 000a FFF7FEFF 	 bl XMC_SCU_RESET_AssertPeripheralReset
  96:../Libraries/XMCLib/src/xmc_dac.c **** #if defined(CLOCK_GATING_SUPPORTED)
  97:../Libraries/XMCLib/src/xmc_dac.c ****   XMC_SCU_CLOCK_GatePeripheralClock(XMC_SCU_PERIPHERAL_CLOCK_DAC);
 517              	 .loc 2 97 3
 518 000e 0348     	 ldr r0,.L12
 519 0010 FFF7FEFF 	 bl XMC_SCU_CLOCK_GatePeripheralClock
  98:../Libraries/XMCLib/src/xmc_dac.c **** #endif
  99:../Libraries/XMCLib/src/xmc_dac.c **** }
 520              	 .loc 2 99 1
 521 0014 00BF     	 nop
 522 0016 0837     	 adds r7,r7,#8
 523              	.LCFI50:
 524              	 .cfi_def_cfa_offset 8
 525 0018 BD46     	 mov sp,r7
 526              	.LCFI51:
 527              	 .cfi_def_cfa_register 13
 528              	 
 529 001a 80BD     	 pop {r7,pc}
 530              	.L13:
 531              	 .align 2
 532              	.L12:
 533 001c 20000010 	 .word 268435488
 534              	 .cfi_endproc
 535              	.LFE200:
 537              	 .section .text.XMC_DAC_IsEnabled,"ax",%progbits
 538              	 .align 1
 539              	 .global XMC_DAC_IsEnabled
 540              	 .syntax unified
 541              	 .thumb
 542              	 .thumb_func
 543              	 .fpu fpv4-sp-d16
 545              	XMC_DAC_IsEnabled:
 546              	.LFB201:
 100:../Libraries/XMCLib/src/xmc_dac.c **** 
 101:../Libraries/XMCLib/src/xmc_dac.c **** /* API to check whether DAC is enabled */
 102:../Libraries/XMCLib/src/xmc_dac.c **** bool XMC_DAC_IsEnabled(const XMC_DAC_t *const dac)
 103:../Libraries/XMCLib/src/xmc_dac.c **** {
 547              	 .loc 2 103 1
 548              	 .cfi_startproc
 549              	 
 550              	 
 551 0000 80B5     	 push {r7,lr}
 552              	.LCFI52:
 553              	 .cfi_def_cfa_offset 8
 554              	 .cfi_offset 7,-8
 555              	 .cfi_offset 14,-4
 556 0002 84B0     	 sub sp,sp,#16
 557              	.LCFI53:
 558              	 .cfi_def_cfa_offset 24
 559 0004 00AF     	 add r7,sp,#0
 560              	.LCFI54:
 561              	 .cfi_def_cfa_register 7
 562 0006 7860     	 str r0,[r7,#4]
 104:../Libraries/XMCLib/src/xmc_dac.c ****   bool status;
 105:../Libraries/XMCLib/src/xmc_dac.c **** 
 106:../Libraries/XMCLib/src/xmc_dac.c ****   XMC_UNUSED_ARG(dac);
 107:../Libraries/XMCLib/src/xmc_dac.c **** 
 108:../Libraries/XMCLib/src/xmc_dac.c ****   status = XMC_SCU_RESET_IsPeripheralResetAsserted(XMC_SCU_PERIPHERAL_RESET_DAC);
 563              	 .loc 2 108 12
 564 0008 0848     	 ldr r0,.L18
 565 000a FFF7FEFF 	 bl XMC_SCU_RESET_IsPeripheralResetAsserted
 566 000e 0346     	 mov r3,r0
 567 0010 FB73     	 strb r3,[r7,#15]
 109:../Libraries/XMCLib/src/xmc_dac.c ****   if (status == true)
 568              	 .loc 2 109 6
 569 0012 FB7B     	 ldrb r3,[r7,#15]
 570 0014 002B     	 cmp r3,#0
 571 0016 02D0     	 beq .L15
 110:../Libraries/XMCLib/src/xmc_dac.c ****   {
 111:../Libraries/XMCLib/src/xmc_dac.c ****     status = false;
 572              	 .loc 2 111 12
 573 0018 0023     	 movs r3,#0
 574 001a FB73     	 strb r3,[r7,#15]
 575 001c 01E0     	 b .L16
 576              	.L15:
 112:../Libraries/XMCLib/src/xmc_dac.c ****   }
 113:../Libraries/XMCLib/src/xmc_dac.c ****   else
 114:../Libraries/XMCLib/src/xmc_dac.c ****   {
 115:../Libraries/XMCLib/src/xmc_dac.c ****     status = true;
 577              	 .loc 2 115 12
 578 001e 0123     	 movs r3,#1
 579 0020 FB73     	 strb r3,[r7,#15]
 580              	.L16:
 116:../Libraries/XMCLib/src/xmc_dac.c ****   }
 117:../Libraries/XMCLib/src/xmc_dac.c ****   return (status);
 581              	 .loc 2 117 10
 582 0022 FB7B     	 ldrb r3,[r7,#15]
 118:../Libraries/XMCLib/src/xmc_dac.c **** }
 583              	 .loc 2 118 1
 584 0024 1846     	 mov r0,r3
 585 0026 1037     	 adds r7,r7,#16
 586              	.LCFI55:
 587              	 .cfi_def_cfa_offset 8
 588 0028 BD46     	 mov sp,r7
 589              	.LCFI56:
 590              	 .cfi_def_cfa_register 13
 591              	 
 592 002a 80BD     	 pop {r7,pc}
 593              	.L19:
 594              	 .align 2
 595              	.L18:
 596 002c 20000010 	 .word 268435488
 597              	 .cfi_endproc
 598              	.LFE201:
 600              	 .section .text.XMC_DAC_CH_Init,"ax",%progbits
 601              	 .align 1
 602              	 .global XMC_DAC_CH_Init
 603              	 .syntax unified
 604              	 .thumb
 605              	 .thumb_func
 606              	 .fpu fpv4-sp-d16
 608              	XMC_DAC_CH_Init:
 609              	.LFB202:
 119:../Libraries/XMCLib/src/xmc_dac.c **** 
 120:../Libraries/XMCLib/src/xmc_dac.c **** /* API to initialize DAC channel configuration */
 121:../Libraries/XMCLib/src/xmc_dac.c **** void XMC_DAC_CH_Init(XMC_DAC_t *const dac, const uint8_t channel, const XMC_DAC_CH_CONFIG_t *const 
 122:../Libraries/XMCLib/src/xmc_dac.c **** {
 610              	 .loc 2 122 1
 611              	 .cfi_startproc
 612              	 
 613              	 
 614 0000 80B5     	 push {r7,lr}
 615              	.LCFI57:
 616              	 .cfi_def_cfa_offset 8
 617              	 .cfi_offset 7,-8
 618              	 .cfi_offset 14,-4
 619 0002 84B0     	 sub sp,sp,#16
 620              	.LCFI58:
 621              	 .cfi_def_cfa_offset 24
 622 0004 00AF     	 add r7,sp,#0
 623              	.LCFI59:
 624              	 .cfi_def_cfa_register 7
 625 0006 F860     	 str r0,[r7,#12]
 626 0008 0B46     	 mov r3,r1
 627 000a 7A60     	 str r2,[r7,#4]
 628 000c FB72     	 strb r3,[r7,#11]
 123:../Libraries/XMCLib/src/xmc_dac.c ****   XMC_DAC_Enable(dac);
 629              	 .loc 2 123 3
 630 000e F868     	 ldr r0,[r7,#12]
 631 0010 FFF7FEFF 	 bl XMC_DAC_Enable
 124:../Libraries/XMCLib/src/xmc_dac.c **** 
 125:../Libraries/XMCLib/src/xmc_dac.c ****   dac->DACCFG[channel].low = config->cfg0;
 632              	 .loc 2 125 23
 633 0014 FB7A     	 ldrb r3,[r7,#11]
 634              	 .loc 2 125 36
 635 0016 7A68     	 ldr r2,[r7,#4]
 636 0018 1268     	 ldr r2,[r2]
 637              	 .loc 2 125 28
 638 001a F968     	 ldr r1,[r7,#12]
 639 001c DB00     	 lsls r3,r3,#3
 640 001e 0B44     	 add r3,r3,r1
 641 0020 5A60     	 str r2,[r3,#4]
 126:../Libraries/XMCLib/src/xmc_dac.c ****   dac->DACCFG[channel].high = config->cfg1;
 642              	 .loc 2 126 23
 643 0022 FB7A     	 ldrb r3,[r7,#11]
 644              	 .loc 2 126 37
 645 0024 7A68     	 ldr r2,[r7,#4]
 646 0026 5268     	 ldr r2,[r2,#4]
 647              	 .loc 2 126 29
 648 0028 F968     	 ldr r1,[r7,#12]
 649 002a DB00     	 lsls r3,r3,#3
 650 002c 0B44     	 add r3,r3,r1
 651 002e 9A60     	 str r2,[r3,#8]
 127:../Libraries/XMCLib/src/xmc_dac.c ****   if (channel < XMC_DAC_NO_CHANNELS)
 652              	 .loc 2 127 6
 653 0030 FB7A     	 ldrb r3,[r7,#11]
 654 0032 012B     	 cmp r3,#1
 655 0034 04D8     	 bhi .L22
 128:../Libraries/XMCLib/src/xmc_dac.c ****   {
 129:../Libraries/XMCLib/src/xmc_dac.c ****     XMC_DAC_CH_EnableOutput(dac, channel);
 656              	 .loc 2 129 5
 657 0036 FB7A     	 ldrb r3,[r7,#11]
 658 0038 1946     	 mov r1,r3
 659 003a F868     	 ldr r0,[r7,#12]
 660 003c FFF7FEFF 	 bl XMC_DAC_CH_EnableOutput
 661              	.L22:
 130:../Libraries/XMCLib/src/xmc_dac.c ****   }
 131:../Libraries/XMCLib/src/xmc_dac.c **** }
 662              	 .loc 2 131 1
 663 0040 00BF     	 nop
 664 0042 1037     	 adds r7,r7,#16
 665              	.LCFI60:
 666              	 .cfi_def_cfa_offset 8
 667 0044 BD46     	 mov sp,r7
 668              	.LCFI61:
 669              	 .cfi_def_cfa_register 13
 670              	 
 671 0046 80BD     	 pop {r7,pc}
 672              	 .cfi_endproc
 673              	.LFE202:
 675              	 .section .text.XMC_DAC_CH_SetFrequency,"ax",%progbits
 676              	 .align 1
 677              	 .global XMC_DAC_CH_SetFrequency
 678              	 .syntax unified
 679              	 .thumb
 680              	 .thumb_func
 681              	 .fpu fpv4-sp-d16
 683              	XMC_DAC_CH_SetFrequency:
 684              	.LFB203:
 132:../Libraries/XMCLib/src/xmc_dac.c **** 
 133:../Libraries/XMCLib/src/xmc_dac.c **** /* API to set the waveform frequency except in Ramp and Pattern generation mode. */
 134:../Libraries/XMCLib/src/xmc_dac.c **** XMC_DAC_CH_STATUS_t XMC_DAC_CH_SetFrequency(XMC_DAC_t *const dac,
 135:../Libraries/XMCLib/src/xmc_dac.c ****     const uint8_t channel,
 136:../Libraries/XMCLib/src/xmc_dac.c ****     const uint32_t frequency)
 137:../Libraries/XMCLib/src/xmc_dac.c **** {
 685              	 .loc 2 137 1
 686              	 .cfi_startproc
 687              	 
 688              	 
 689 0000 80B5     	 push {r7,lr}
 690              	.LCFI62:
 691              	 .cfi_def_cfa_offset 8
 692              	 .cfi_offset 7,-8
 693              	 .cfi_offset 14,-4
 694 0002 86B0     	 sub sp,sp,#24
 695              	.LCFI63:
 696              	 .cfi_def_cfa_offset 32
 697 0004 00AF     	 add r7,sp,#0
 698              	.LCFI64:
 699              	 .cfi_def_cfa_register 7
 700 0006 F860     	 str r0,[r7,#12]
 701 0008 0B46     	 mov r3,r1
 702 000a 7A60     	 str r2,[r7,#4]
 703 000c FB72     	 strb r3,[r7,#11]
 138:../Libraries/XMCLib/src/xmc_dac.c ****   uint32_t divider;
 139:../Libraries/XMCLib/src/xmc_dac.c ****   XMC_DAC_CH_STATUS_t status;
 140:../Libraries/XMCLib/src/xmc_dac.c **** 
 141:../Libraries/XMCLib/src/xmc_dac.c ****   XMC_ASSERT("XMC_DAC_CH_SetFrequency: frequency must be greater than zero", frequency > 0U);
 142:../Libraries/XMCLib/src/xmc_dac.c **** 
 143:../Libraries/XMCLib/src/xmc_dac.c ****   divider = XMC_SCU_CLOCK_GetPeripheralClockFrequency() / frequency;
 704              	 .loc 2 143 13
 705 000e FFF7FEFF 	 bl XMC_SCU_CLOCK_GetPeripheralClockFrequency
 706 0012 0246     	 mov r2,r0
 707              	 .loc 2 143 11
 708 0014 7B68     	 ldr r3,[r7,#4]
 709 0016 B2FBF3F3 	 udiv r3,r2,r3
 710 001a 3B61     	 str r3,[r7,#16]
 144:../Libraries/XMCLib/src/xmc_dac.c **** 
 145:../Libraries/XMCLib/src/xmc_dac.c ****   if (divider < XMC_DAC_MIN_FREQ_DIVIDER)
 711              	 .loc 2 145 6
 712 001c 3B69     	 ldr r3,[r7,#16]
 713 001e 0F2B     	 cmp r3,#15
 714 0020 02D8     	 bhi .L24
 146:../Libraries/XMCLib/src/xmc_dac.c ****   {
 147:../Libraries/XMCLib/src/xmc_dac.c ****     status = XMC_DAC_CH_STATUS_ERROR_FREQ2HIGH;
 715              	 .loc 2 147 12
 716 0022 0423     	 movs r3,#4
 717 0024 FB75     	 strb r3,[r7,#23]
 718 0026 16E0     	 b .L25
 719              	.L24:
 148:../Libraries/XMCLib/src/xmc_dac.c ****   }
 149:../Libraries/XMCLib/src/xmc_dac.c ****   else if (divider >= XMC_DAC_MAX_FREQ_DIVIDER)
 720              	 .loc 2 149 11
 721 0028 3B69     	 ldr r3,[r7,#16]
 722 002a B3F5801F 	 cmp r3,#1048576
 723 002e 02D3     	 bcc .L26
 150:../Libraries/XMCLib/src/xmc_dac.c ****   {
 151:../Libraries/XMCLib/src/xmc_dac.c ****     status = XMC_DAC_CH_STATUS_ERROR_FREQ2LOW;
 724              	 .loc 2 151 12
 725 0030 0323     	 movs r3,#3
 726 0032 FB75     	 strb r3,[r7,#23]
 727 0034 0FE0     	 b .L25
 728              	.L26:
 152:../Libraries/XMCLib/src/xmc_dac.c ****   }
 153:../Libraries/XMCLib/src/xmc_dac.c ****   else
 154:../Libraries/XMCLib/src/xmc_dac.c ****   {
 155:../Libraries/XMCLib/src/xmc_dac.c ****     dac->DACCFG[channel].low = (dac->DACCFG[channel].low & (uint32_t)(~DAC_DAC0CFG0_FREQ_Msk)) |
 729              	 .loc 2 155 53
 730 0036 FB7A     	 ldrb r3,[r7,#11]
 731 0038 FA68     	 ldr r2,[r7,#12]
 732 003a DB00     	 lsls r3,r3,#3
 733 003c 1344     	 add r3,r3,r2
 734 003e 5B68     	 ldr r3,[r3,#4]
 735              	 .loc 2 155 58
 736 0040 1B0D     	 lsrs r3,r3,#20
 737 0042 1B05     	 lsls r3,r3,#20
 738              	 .loc 2 155 25
 739 0044 F87A     	 ldrb r0,[r7,#11]
 740              	 .loc 2 155 96
 741 0046 3A69     	 ldr r2,[r7,#16]
 742 0048 1A43     	 orrs r2,r2,r3
 743              	 .loc 2 155 30
 744 004a F968     	 ldr r1,[r7,#12]
 745 004c C300     	 lsls r3,r0,#3
 746 004e 0B44     	 add r3,r3,r1
 747 0050 5A60     	 str r2,[r3,#4]
 156:../Libraries/XMCLib/src/xmc_dac.c ****                                (divider << DAC_DAC0CFG0_FREQ_Pos);
 157:../Libraries/XMCLib/src/xmc_dac.c ****     status = XMC_DAC_CH_STATUS_OK;
 748              	 .loc 2 157 12
 749 0052 0023     	 movs r3,#0
 750 0054 FB75     	 strb r3,[r7,#23]
 751              	.L25:
 158:../Libraries/XMCLib/src/xmc_dac.c ****   }
 159:../Libraries/XMCLib/src/xmc_dac.c **** 
 160:../Libraries/XMCLib/src/xmc_dac.c ****   return status;
 752              	 .loc 2 160 10
 753 0056 FB7D     	 ldrb r3,[r7,#23]
 161:../Libraries/XMCLib/src/xmc_dac.c **** }
 754              	 .loc 2 161 1
 755 0058 1846     	 mov r0,r3
 756 005a 1837     	 adds r7,r7,#24
 757              	.LCFI65:
 758              	 .cfi_def_cfa_offset 8
 759 005c BD46     	 mov sp,r7
 760              	.LCFI66:
 761              	 .cfi_def_cfa_register 13
 762              	 
 763 005e 80BD     	 pop {r7,pc}
 764              	 .cfi_endproc
 765              	.LFE203:
 767              	 .section .text.XMC_DAC_CH_SetRampFrequency,"ax",%progbits
 768              	 .align 1
 769              	 .global XMC_DAC_CH_SetRampFrequency
 770              	 .syntax unified
 771              	 .thumb
 772              	 .thumb_func
 773              	 .fpu fpv4-sp-d16
 775              	XMC_DAC_CH_SetRampFrequency:
 776              	.LFB204:
 162:../Libraries/XMCLib/src/xmc_dac.c **** 
 163:../Libraries/XMCLib/src/xmc_dac.c **** /* API to set the waveform frequency in Ramp Mode. */
 164:../Libraries/XMCLib/src/xmc_dac.c **** XMC_DAC_CH_STATUS_t XMC_DAC_CH_SetRampFrequency(XMC_DAC_t *const dac,
 165:../Libraries/XMCLib/src/xmc_dac.c ****     const uint8_t channel,
 166:../Libraries/XMCLib/src/xmc_dac.c ****     const uint32_t frequency)
 167:../Libraries/XMCLib/src/xmc_dac.c **** {
 777              	 .loc 2 167 1
 778              	 .cfi_startproc
 779              	 
 780              	 
 781 0000 80B5     	 push {r7,lr}
 782              	.LCFI67:
 783              	 .cfi_def_cfa_offset 8
 784              	 .cfi_offset 7,-8
 785              	 .cfi_offset 14,-4
 786 0002 86B0     	 sub sp,sp,#24
 787              	.LCFI68:
 788              	 .cfi_def_cfa_offset 32
 789 0004 00AF     	 add r7,sp,#0
 790              	.LCFI69:
 791              	 .cfi_def_cfa_register 7
 792 0006 F860     	 str r0,[r7,#12]
 793 0008 0B46     	 mov r3,r1
 794 000a 7A60     	 str r2,[r7,#4]
 795 000c FB72     	 strb r3,[r7,#11]
 168:../Libraries/XMCLib/src/xmc_dac.c ****   uint32_t stop;
 169:../Libraries/XMCLib/src/xmc_dac.c ****   uint32_t start;
 170:../Libraries/XMCLib/src/xmc_dac.c **** 
 171:../Libraries/XMCLib/src/xmc_dac.c ****   start = dac->DACDATA[channel];
 796              	 .loc 2 171 23
 797 000e FB7A     	 ldrb r3,[r7,#11]
 798              	 .loc 2 171 9
 799 0010 FA68     	 ldr r2,[r7,#12]
 800 0012 0433     	 adds r3,r3,#4
 801 0014 9B00     	 lsls r3,r3,#2
 802 0016 1344     	 add r3,r3,r2
 803 0018 5B68     	 ldr r3,[r3,#4]
 804 001a 7B61     	 str r3,[r7,#20]
 172:../Libraries/XMCLib/src/xmc_dac.c ****   stop = (dac->DAC01DATA >> (channel * DAC_DAC01DATA_DATA1_Pos)) & (uint32_t)DAC_DAC01DATA_DATA0_Ms
 805              	 .loc 2 172 14
 806 001c FB68     	 ldr r3,[r7,#12]
 807 001e DA69     	 ldr r2,[r3,#28]
 808              	 .loc 2 172 38
 809 0020 FB7A     	 ldrb r3,[r7,#11]
 810 0022 1B01     	 lsls r3,r3,#4
 811              	 .loc 2 172 26
 812 0024 22FA03F3 	 lsr r3,r2,r3
 813              	 .loc 2 172 8
 814 0028 C3F30B03 	 ubfx r3,r3,#0,#12
 815 002c 3B61     	 str r3,[r7,#16]
 173:../Libraries/XMCLib/src/xmc_dac.c **** 
 174:../Libraries/XMCLib/src/xmc_dac.c ****   return XMC_DAC_CH_SetFrequency(dac, channel, frequency * ((stop - start) + 1U));
 816              	 .loc 2 174 67
 817 002e 3A69     	 ldr r2,[r7,#16]
 818 0030 7B69     	 ldr r3,[r7,#20]
 819 0032 D31A     	 subs r3,r2,r3
 820              	 .loc 2 174 76
 821 0034 0133     	 adds r3,r3,#1
 822              	 .loc 2 174 10
 823 0036 7A68     	 ldr r2,[r7,#4]
 824 0038 03FB02F2 	 mul r2,r3,r2
 825 003c FB7A     	 ldrb r3,[r7,#11]
 826 003e 1946     	 mov r1,r3
 827 0040 F868     	 ldr r0,[r7,#12]
 828 0042 FFF7FEFF 	 bl XMC_DAC_CH_SetFrequency
 829 0046 0346     	 mov r3,r0
 175:../Libraries/XMCLib/src/xmc_dac.c **** }
 830              	 .loc 2 175 1
 831 0048 1846     	 mov r0,r3
 832 004a 1837     	 adds r7,r7,#24
 833              	.LCFI70:
 834              	 .cfi_def_cfa_offset 8
 835 004c BD46     	 mov sp,r7
 836              	.LCFI71:
 837              	 .cfi_def_cfa_register 13
 838              	 
 839 004e 80BD     	 pop {r7,pc}
 840              	 .cfi_endproc
 841              	.LFE204:
 843              	 .section .text.XMC_DAC_CH_StartSingleValueMode,"ax",%progbits
 844              	 .align 1
 845              	 .global XMC_DAC_CH_StartSingleValueMode
 846              	 .syntax unified
 847              	 .thumb
 848              	 .thumb_func
 849              	 .fpu fpv4-sp-d16
 851              	XMC_DAC_CH_StartSingleValueMode:
 852              	.LFB205:
 176:../Libraries/XMCLib/src/xmc_dac.c **** 
 177:../Libraries/XMCLib/src/xmc_dac.c **** /* API to start the operation in Single Value Mode. */
 178:../Libraries/XMCLib/src/xmc_dac.c **** XMC_DAC_CH_STATUS_t XMC_DAC_CH_StartSingleValueMode(XMC_DAC_t *const dac, const uint8_t channel)
 179:../Libraries/XMCLib/src/xmc_dac.c **** {
 853              	 .loc 2 179 1
 854              	 .cfi_startproc
 855              	 
 856              	 
 857 0000 80B5     	 push {r7,lr}
 858              	.LCFI72:
 859              	 .cfi_def_cfa_offset 8
 860              	 .cfi_offset 7,-8
 861              	 .cfi_offset 14,-4
 862 0002 82B0     	 sub sp,sp,#8
 863              	.LCFI73:
 864              	 .cfi_def_cfa_offset 16
 865 0004 00AF     	 add r7,sp,#0
 866              	.LCFI74:
 867              	 .cfi_def_cfa_register 7
 868 0006 7860     	 str r0,[r7,#4]
 869 0008 0B46     	 mov r3,r1
 870 000a FB70     	 strb r3,[r7,#3]
 180:../Libraries/XMCLib/src/xmc_dac.c ****   XMC_ASSERT("XMC_DAC_CH_StartSingleValueMode: dac parameter not valid\n", XMC_DAC_IS_DAC_VALID(dac
 181:../Libraries/XMCLib/src/xmc_dac.c ****   XMC_ASSERT("XMC_DAC_CH_StartSingleValueMode: channel parameter not valid\n", XMC_DAC_IS_CHANNEL_V
 182:../Libraries/XMCLib/src/xmc_dac.c ****   XMC_ASSERT("XMC_DAC_CH_StartSingleValueMode: dac module not enabled\n", XMC_DAC_IsEnabled(dac));
 183:../Libraries/XMCLib/src/xmc_dac.c **** 
 184:../Libraries/XMCLib/src/xmc_dac.c ****   XMC_DAC_CH_SetMode(dac, channel, XMC_DAC_CH_MODE_SINGLE);
 871              	 .loc 2 184 3
 872 000c FB78     	 ldrb r3,[r7,#3]
 873 000e 4FF48012 	 mov r2,#1048576
 874 0012 1946     	 mov r1,r3
 875 0014 7868     	 ldr r0,[r7,#4]
 876 0016 FFF7FEFF 	 bl XMC_DAC_CH_SetMode
 185:../Libraries/XMCLib/src/xmc_dac.c **** 
 186:../Libraries/XMCLib/src/xmc_dac.c ****   return XMC_DAC_CH_STATUS_OK;
 877              	 .loc 2 186 10
 878 001a 0023     	 movs r3,#0
 187:../Libraries/XMCLib/src/xmc_dac.c **** }
 879              	 .loc 2 187 1
 880 001c 1846     	 mov r0,r3
 881 001e 0837     	 adds r7,r7,#8
 882              	.LCFI75:
 883              	 .cfi_def_cfa_offset 8
 884 0020 BD46     	 mov sp,r7
 885              	.LCFI76:
 886              	 .cfi_def_cfa_register 13
 887              	 
 888 0022 80BD     	 pop {r7,pc}
 889              	 .cfi_endproc
 890              	.LFE205:
 892              	 .section .text.XMC_DAC_CH_StartDataMode,"ax",%progbits
 893              	 .align 1
 894              	 .global XMC_DAC_CH_StartDataMode
 895              	 .syntax unified
 896              	 .thumb
 897              	 .thumb_func
 898              	 .fpu fpv4-sp-d16
 900              	XMC_DAC_CH_StartDataMode:
 901              	.LFB206:
 188:../Libraries/XMCLib/src/xmc_dac.c **** 
 189:../Libraries/XMCLib/src/xmc_dac.c **** /* API to start the operation in Data Mode. */
 190:../Libraries/XMCLib/src/xmc_dac.c **** XMC_DAC_CH_STATUS_t XMC_DAC_CH_StartDataMode(XMC_DAC_t *const dac,
 191:../Libraries/XMCLib/src/xmc_dac.c ****     const uint8_t channel,
 192:../Libraries/XMCLib/src/xmc_dac.c ****     const XMC_DAC_CH_TRIGGER_t trigger,
 193:../Libraries/XMCLib/src/xmc_dac.c ****     const uint32_t frequency)
 194:../Libraries/XMCLib/src/xmc_dac.c **** {
 902              	 .loc 2 194 1
 903              	 .cfi_startproc
 904              	 
 905              	 
 906 0000 80B5     	 push {r7,lr}
 907              	.LCFI77:
 908              	 .cfi_def_cfa_offset 8
 909              	 .cfi_offset 7,-8
 910              	 .cfi_offset 14,-4
 911 0002 86B0     	 sub sp,sp,#24
 912              	.LCFI78:
 913              	 .cfi_def_cfa_offset 32
 914 0004 00AF     	 add r7,sp,#0
 915              	.LCFI79:
 916              	 .cfi_def_cfa_register 7
 917 0006 F860     	 str r0,[r7,#12]
 918 0008 7A60     	 str r2,[r7,#4]
 919 000a 3B60     	 str r3,[r7]
 920 000c 0B46     	 mov r3,r1
 921 000e FB72     	 strb r3,[r7,#11]
 195:../Libraries/XMCLib/src/xmc_dac.c ****   XMC_DAC_CH_STATUS_t status = XMC_DAC_CH_STATUS_OK;
 922              	 .loc 2 195 23
 923 0010 0023     	 movs r3,#0
 924 0012 FB75     	 strb r3,[r7,#23]
 196:../Libraries/XMCLib/src/xmc_dac.c **** 
 197:../Libraries/XMCLib/src/xmc_dac.c ****   XMC_ASSERT("XMC_DAC_CH_StartDataMode: dac parameter not valid\n", XMC_DAC_IS_DAC_VALID(dac));
 198:../Libraries/XMCLib/src/xmc_dac.c ****   XMC_ASSERT("XMC_DAC_CH_StartDataMode: channel parameter not valid\n", XMC_DAC_IS_CHANNEL_VALID(ch
 199:../Libraries/XMCLib/src/xmc_dac.c ****   XMC_ASSERT("XMC_DAC_CH_StartDataMode: dac module not enabled\n", XMC_DAC_IsEnabled(dac));
 200:../Libraries/XMCLib/src/xmc_dac.c **** 
 201:../Libraries/XMCLib/src/xmc_dac.c ****   XMC_DAC_CH_SetMode(dac, channel, XMC_DAC_CH_MODE_IDLE);
 925              	 .loc 2 201 3
 926 0014 FB7A     	 ldrb r3,[r7,#11]
 927 0016 0022     	 movs r2,#0
 928 0018 1946     	 mov r1,r3
 929 001a F868     	 ldr r0,[r7,#12]
 930 001c FFF7FEFF 	 bl XMC_DAC_CH_SetMode
 202:../Libraries/XMCLib/src/xmc_dac.c **** 
 203:../Libraries/XMCLib/src/xmc_dac.c ****   if (trigger == XMC_DAC_CH_TRIGGER_INTERNAL)
 931              	 .loc 2 203 6
 932 0020 7B68     	 ldr r3,[r7,#4]
 933 0022 002B     	 cmp r3,#0
 934 0024 07D1     	 bne .L33
 204:../Libraries/XMCLib/src/xmc_dac.c ****   {
 205:../Libraries/XMCLib/src/xmc_dac.c ****     status = XMC_DAC_CH_SetFrequency(dac, channel, frequency);
 935              	 .loc 2 205 14
 936 0026 FB7A     	 ldrb r3,[r7,#11]
 937 0028 3A68     	 ldr r2,[r7]
 938 002a 1946     	 mov r1,r3
 939 002c F868     	 ldr r0,[r7,#12]
 940 002e FFF7FEFF 	 bl XMC_DAC_CH_SetFrequency
 941 0032 0346     	 mov r3,r0
 942 0034 FB75     	 strb r3,[r7,#23]
 943              	.L33:
 206:../Libraries/XMCLib/src/xmc_dac.c ****   }
 207:../Libraries/XMCLib/src/xmc_dac.c **** 
 208:../Libraries/XMCLib/src/xmc_dac.c ****   if (status == XMC_DAC_CH_STATUS_OK)
 944              	 .loc 2 208 6
 945 0036 FB7D     	 ldrb r3,[r7,#23]
 946 0038 002B     	 cmp r3,#0
 947 003a 0CD1     	 bne .L34
 209:../Libraries/XMCLib/src/xmc_dac.c ****   {
 210:../Libraries/XMCLib/src/xmc_dac.c ****     XMC_DAC_CH_SetTrigger(dac, channel, trigger);
 948              	 .loc 2 210 5
 949 003c FB7A     	 ldrb r3,[r7,#11]
 950 003e 7A68     	 ldr r2,[r7,#4]
 951 0040 1946     	 mov r1,r3
 952 0042 F868     	 ldr r0,[r7,#12]
 953 0044 FFF7FEFF 	 bl XMC_DAC_CH_SetTrigger
 211:../Libraries/XMCLib/src/xmc_dac.c ****     XMC_DAC_CH_SetMode(dac, channel, XMC_DAC_CH_MODE_DATA);
 954              	 .loc 2 211 5
 955 0048 FB7A     	 ldrb r3,[r7,#11]
 956 004a 4FF40012 	 mov r2,#2097152
 957 004e 1946     	 mov r1,r3
 958 0050 F868     	 ldr r0,[r7,#12]
 959 0052 FFF7FEFF 	 bl XMC_DAC_CH_SetMode
 960              	.L34:
 212:../Libraries/XMCLib/src/xmc_dac.c ****   }
 213:../Libraries/XMCLib/src/xmc_dac.c **** 
 214:../Libraries/XMCLib/src/xmc_dac.c ****   return status;
 961              	 .loc 2 214 10
 962 0056 FB7D     	 ldrb r3,[r7,#23]
 215:../Libraries/XMCLib/src/xmc_dac.c **** }
 963              	 .loc 2 215 1
 964 0058 1846     	 mov r0,r3
 965 005a 1837     	 adds r7,r7,#24
 966              	.LCFI80:
 967              	 .cfi_def_cfa_offset 8
 968 005c BD46     	 mov sp,r7
 969              	.LCFI81:
 970              	 .cfi_def_cfa_register 13
 971              	 
 972 005e 80BD     	 pop {r7,pc}
 973              	 .cfi_endproc
 974              	.LFE206:
 976              	 .section .text.XMC_DAC_CH_StartRampMode,"ax",%progbits
 977              	 .align 1
 978              	 .global XMC_DAC_CH_StartRampMode
 979              	 .syntax unified
 980              	 .thumb
 981              	 .thumb_func
 982              	 .fpu fpv4-sp-d16
 984              	XMC_DAC_CH_StartRampMode:
 985              	.LFB207:
 216:../Libraries/XMCLib/src/xmc_dac.c **** 
 217:../Libraries/XMCLib/src/xmc_dac.c **** /* API to start the operation in Ramp Mode. */
 218:../Libraries/XMCLib/src/xmc_dac.c **** XMC_DAC_CH_STATUS_t XMC_DAC_CH_StartRampMode(XMC_DAC_t *const dac,
 219:../Libraries/XMCLib/src/xmc_dac.c ****     const uint8_t channel,
 220:../Libraries/XMCLib/src/xmc_dac.c ****     const uint16_t start,
 221:../Libraries/XMCLib/src/xmc_dac.c ****     const uint16_t stop,
 222:../Libraries/XMCLib/src/xmc_dac.c ****     const XMC_DAC_CH_TRIGGER_t trigger,
 223:../Libraries/XMCLib/src/xmc_dac.c ****     const uint32_t frequency)
 224:../Libraries/XMCLib/src/xmc_dac.c **** {
 986              	 .loc 2 224 1
 987              	 .cfi_startproc
 988              	 
 989              	 
 990 0000 80B5     	 push {r7,lr}
 991              	.LCFI82:
 992              	 .cfi_def_cfa_offset 8
 993              	 .cfi_offset 7,-8
 994              	 .cfi_offset 14,-4
 995 0002 86B0     	 sub sp,sp,#24
 996              	.LCFI83:
 997              	 .cfi_def_cfa_offset 32
 998 0004 00AF     	 add r7,sp,#0
 999              	.LCFI84:
 1000              	 .cfi_def_cfa_register 7
 1001 0006 F860     	 str r0,[r7,#12]
 1002 0008 0846     	 mov r0,r1
 1003 000a 1146     	 mov r1,r2
 1004 000c 1A46     	 mov r2,r3
 1005 000e 0346     	 mov r3,r0
 1006 0010 FB72     	 strb r3,[r7,#11]
 1007 0012 0B46     	 mov r3,r1
 1008 0014 3B81     	 strh r3,[r7,#8]
 1009 0016 1346     	 mov r3,r2
 1010 0018 FB80     	 strh r3,[r7,#6]
 225:../Libraries/XMCLib/src/xmc_dac.c ****   XMC_DAC_CH_STATUS_t status = XMC_DAC_CH_STATUS_OK;
 1011              	 .loc 2 225 23
 1012 001a 0023     	 movs r3,#0
 1013 001c FB75     	 strb r3,[r7,#23]
 226:../Libraries/XMCLib/src/xmc_dac.c **** 
 227:../Libraries/XMCLib/src/xmc_dac.c ****   XMC_ASSERT("XMC_DAC_CH_StartRampMode: dac parameter not valid\n", XMC_DAC_IS_DAC_VALID(dac));
 228:../Libraries/XMCLib/src/xmc_dac.c ****   XMC_ASSERT("XMC_DAC_CH_StartRampMode: channel parameter not valid\n", XMC_DAC_IS_CHANNEL_VALID(ch
 229:../Libraries/XMCLib/src/xmc_dac.c ****   XMC_ASSERT("XMC_DAC_CH_StartRampMode: dac module not enabled\n", XMC_DAC_IsEnabled(dac));
 230:../Libraries/XMCLib/src/xmc_dac.c **** 
 231:../Libraries/XMCLib/src/xmc_dac.c ****   XMC_DAC_CH_SetMode(dac, channel, XMC_DAC_CH_MODE_IDLE);
 1014              	 .loc 2 231 3
 1015 001e FB7A     	 ldrb r3,[r7,#11]
 1016 0020 0022     	 movs r2,#0
 1017 0022 1946     	 mov r1,r3
 1018 0024 F868     	 ldr r0,[r7,#12]
 1019 0026 FFF7FEFF 	 bl XMC_DAC_CH_SetMode
 232:../Libraries/XMCLib/src/xmc_dac.c **** 
 233:../Libraries/XMCLib/src/xmc_dac.c ****   XMC_DAC_CH_SetRampStart(dac, channel, start);
 1020              	 .loc 2 233 3
 1021 002a 3A89     	 ldrh r2,[r7,#8]
 1022 002c FB7A     	 ldrb r3,[r7,#11]
 1023 002e 1946     	 mov r1,r3
 1024 0030 F868     	 ldr r0,[r7,#12]
 1025 0032 FFF7FEFF 	 bl XMC_DAC_CH_SetRampStart
 234:../Libraries/XMCLib/src/xmc_dac.c ****   XMC_DAC_CH_SetRampStop(dac, channel, stop);
 1026              	 .loc 2 234 3
 1027 0036 FA88     	 ldrh r2,[r7,#6]
 1028 0038 FB7A     	 ldrb r3,[r7,#11]
 1029 003a 1946     	 mov r1,r3
 1030 003c F868     	 ldr r0,[r7,#12]
 1031 003e FFF7FEFF 	 bl XMC_DAC_CH_SetRampStop
 235:../Libraries/XMCLib/src/xmc_dac.c ****   XMC_DAC_CH_SetTrigger(dac, channel, trigger);
 1032              	 .loc 2 235 3
 1033 0042 FB7A     	 ldrb r3,[r7,#11]
 1034 0044 3A6A     	 ldr r2,[r7,#32]
 1035 0046 1946     	 mov r1,r3
 1036 0048 F868     	 ldr r0,[r7,#12]
 1037 004a FFF7FEFF 	 bl XMC_DAC_CH_SetTrigger
 236:../Libraries/XMCLib/src/xmc_dac.c **** 
 237:../Libraries/XMCLib/src/xmc_dac.c ****   if (trigger == XMC_DAC_CH_TRIGGER_INTERNAL)
 1038              	 .loc 2 237 6
 1039 004e 3B6A     	 ldr r3,[r7,#32]
 1040 0050 002B     	 cmp r3,#0
 1041 0052 07D1     	 bne .L37
 238:../Libraries/XMCLib/src/xmc_dac.c ****   {
 239:../Libraries/XMCLib/src/xmc_dac.c ****     status = XMC_DAC_CH_SetRampFrequency(dac, channel, frequency);
 1042              	 .loc 2 239 14
 1043 0054 FB7A     	 ldrb r3,[r7,#11]
 1044 0056 7A6A     	 ldr r2,[r7,#36]
 1045 0058 1946     	 mov r1,r3
 1046 005a F868     	 ldr r0,[r7,#12]
 1047 005c FFF7FEFF 	 bl XMC_DAC_CH_SetRampFrequency
 1048 0060 0346     	 mov r3,r0
 1049 0062 FB75     	 strb r3,[r7,#23]
 1050              	.L37:
 240:../Libraries/XMCLib/src/xmc_dac.c ****   }
 241:../Libraries/XMCLib/src/xmc_dac.c **** 
 242:../Libraries/XMCLib/src/xmc_dac.c ****   if (status == XMC_DAC_CH_STATUS_OK)
 1051              	 .loc 2 242 6
 1052 0064 FB7D     	 ldrb r3,[r7,#23]
 1053 0066 002B     	 cmp r3,#0
 1054 0068 06D1     	 bne .L38
 243:../Libraries/XMCLib/src/xmc_dac.c ****   {
 244:../Libraries/XMCLib/src/xmc_dac.c ****     XMC_DAC_CH_SetMode(dac, channel, XMC_DAC_CH_MODE_RAMP);
 1055              	 .loc 2 244 5
 1056 006a FB7A     	 ldrb r3,[r7,#11]
 1057 006c 4FF4A002 	 mov r2,#5242880
 1058 0070 1946     	 mov r1,r3
 1059 0072 F868     	 ldr r0,[r7,#12]
 1060 0074 FFF7FEFF 	 bl XMC_DAC_CH_SetMode
 1061              	.L38:
 245:../Libraries/XMCLib/src/xmc_dac.c ****   }
 246:../Libraries/XMCLib/src/xmc_dac.c **** 
 247:../Libraries/XMCLib/src/xmc_dac.c ****   return status;
 1062              	 .loc 2 247 10
 1063 0078 FB7D     	 ldrb r3,[r7,#23]
 248:../Libraries/XMCLib/src/xmc_dac.c **** }
 1064              	 .loc 2 248 1
 1065 007a 1846     	 mov r0,r3
 1066 007c 1837     	 adds r7,r7,#24
 1067              	.LCFI85:
 1068              	 .cfi_def_cfa_offset 8
 1069 007e BD46     	 mov sp,r7
 1070              	.LCFI86:
 1071              	 .cfi_def_cfa_register 13
 1072              	 
 1073 0080 80BD     	 pop {r7,pc}
 1074              	 .cfi_endproc
 1075              	.LFE207:
 1077              	 .section .text.XMC_DAC_CH_StartPatternMode,"ax",%progbits
 1078              	 .align 1
 1079              	 .global XMC_DAC_CH_StartPatternMode
 1080              	 .syntax unified
 1081              	 .thumb
 1082              	 .thumb_func
 1083              	 .fpu fpv4-sp-d16
 1085              	XMC_DAC_CH_StartPatternMode:
 1086              	.LFB208:
 249:../Libraries/XMCLib/src/xmc_dac.c **** 
 250:../Libraries/XMCLib/src/xmc_dac.c **** /* API to start the operation in Pattern Mode. */
 251:../Libraries/XMCLib/src/xmc_dac.c **** XMC_DAC_CH_STATUS_t XMC_DAC_CH_StartPatternMode(XMC_DAC_t *const dac,
 252:../Libraries/XMCLib/src/xmc_dac.c ****     const uint8_t channel,
 253:../Libraries/XMCLib/src/xmc_dac.c ****     const uint8_t *const pattern,
 254:../Libraries/XMCLib/src/xmc_dac.c ****     const XMC_DAC_CH_PATTERN_SIGN_OUTPUT_t sign_output,
 255:../Libraries/XMCLib/src/xmc_dac.c ****     const XMC_DAC_CH_TRIGGER_t trigger,
 256:../Libraries/XMCLib/src/xmc_dac.c ****     const uint32_t frequency)
 257:../Libraries/XMCLib/src/xmc_dac.c **** {
 1087              	 .loc 2 257 1
 1088              	 .cfi_startproc
 1089              	 
 1090              	 
 1091 0000 80B5     	 push {r7,lr}
 1092              	.LCFI87:
 1093              	 .cfi_def_cfa_offset 8
 1094              	 .cfi_offset 7,-8
 1095              	 .cfi_offset 14,-4
 1096 0002 86B0     	 sub sp,sp,#24
 1097              	.LCFI88:
 1098              	 .cfi_def_cfa_offset 32
 1099 0004 00AF     	 add r7,sp,#0
 1100              	.LCFI89:
 1101              	 .cfi_def_cfa_register 7
 1102 0006 F860     	 str r0,[r7,#12]
 1103 0008 7A60     	 str r2,[r7,#4]
 1104 000a 1A46     	 mov r2,r3
 1105 000c 0B46     	 mov r3,r1
 1106 000e FB72     	 strb r3,[r7,#11]
 1107 0010 1346     	 mov r3,r2
 1108 0012 BB72     	 strb r3,[r7,#10]
 258:../Libraries/XMCLib/src/xmc_dac.c ****   XMC_DAC_CH_STATUS_t status = XMC_DAC_CH_STATUS_OK;
 1109              	 .loc 2 258 23
 1110 0014 0023     	 movs r3,#0
 1111 0016 FB75     	 strb r3,[r7,#23]
 259:../Libraries/XMCLib/src/xmc_dac.c **** 
 260:../Libraries/XMCLib/src/xmc_dac.c ****   XMC_ASSERT("XMC_DAC_CH_StartPatternMode: dac parameter not valid\n", XMC_DAC_IS_DAC_VALID(dac));
 261:../Libraries/XMCLib/src/xmc_dac.c ****   XMC_ASSERT("XMC_DAC_CH_StartPatternMode: channel parameter not valid\n", XMC_DAC_IS_CHANNEL_VALID
 262:../Libraries/XMCLib/src/xmc_dac.c ****   XMC_ASSERT("XMC_DAC_CH_StartPatternMode: dac module not enabled\n", XMC_DAC_IsEnabled(dac));
 263:../Libraries/XMCLib/src/xmc_dac.c **** 
 264:../Libraries/XMCLib/src/xmc_dac.c ****   XMC_DAC_CH_SetMode(dac, channel, XMC_DAC_CH_MODE_IDLE);
 1112              	 .loc 2 264 3
 1113 0018 FB7A     	 ldrb r3,[r7,#11]
 1114 001a 0022     	 movs r2,#0
 1115 001c 1946     	 mov r1,r3
 1116 001e F868     	 ldr r0,[r7,#12]
 1117 0020 FFF7FEFF 	 bl XMC_DAC_CH_SetMode
 265:../Libraries/XMCLib/src/xmc_dac.c **** 
 266:../Libraries/XMCLib/src/xmc_dac.c ****   if (trigger == XMC_DAC_CH_TRIGGER_INTERNAL)
 1118              	 .loc 2 266 6
 1119 0024 3B6A     	 ldr r3,[r7,#32]
 1120 0026 002B     	 cmp r3,#0
 1121 0028 08D1     	 bne .L41
 267:../Libraries/XMCLib/src/xmc_dac.c ****   {
 268:../Libraries/XMCLib/src/xmc_dac.c ****     status = XMC_DAC_CH_SetFrequency(dac, channel, frequency * XMC_DAC_SAMPLES_PER_PERIOD);
 1122              	 .loc 2 268 14
 1123 002a 7B6A     	 ldr r3,[r7,#36]
 1124 002c 5A01     	 lsls r2,r3,#5
 1125 002e FB7A     	 ldrb r3,[r7,#11]
 1126 0030 1946     	 mov r1,r3
 1127 0032 F868     	 ldr r0,[r7,#12]
 1128 0034 FFF7FEFF 	 bl XMC_DAC_CH_SetFrequency
 1129 0038 0346     	 mov r3,r0
 1130 003a FB75     	 strb r3,[r7,#23]
 1131              	.L41:
 269:../Libraries/XMCLib/src/xmc_dac.c ****   }
 270:../Libraries/XMCLib/src/xmc_dac.c **** 
 271:../Libraries/XMCLib/src/xmc_dac.c ****   if (status == XMC_DAC_CH_STATUS_OK)
 1132              	 .loc 2 271 6
 1133 003c FB7D     	 ldrb r3,[r7,#23]
 1134 003e 002B     	 cmp r3,#0
 1135 0040 20D1     	 bne .L42
 272:../Libraries/XMCLib/src/xmc_dac.c ****   {
 273:../Libraries/XMCLib/src/xmc_dac.c ****     XMC_DAC_CH_SetPattern(dac, channel, pattern);
 1136              	 .loc 2 273 5
 1137 0042 FB7A     	 ldrb r3,[r7,#11]
 1138 0044 7A68     	 ldr r2,[r7,#4]
 1139 0046 1946     	 mov r1,r3
 1140 0048 F868     	 ldr r0,[r7,#12]
 1141 004a FFF7FEFF 	 bl XMC_DAC_CH_SetPattern
 274:../Libraries/XMCLib/src/xmc_dac.c ****     if (XMC_DAC_CH_PATTERN_SIGN_OUTPUT_ENABLED == sign_output)
 1142              	 .loc 2 274 8
 1143 004e BB7A     	 ldrb r3,[r7,#10]
 1144 0050 012B     	 cmp r3,#1
 1145 0052 05D1     	 bne .L43
 275:../Libraries/XMCLib/src/xmc_dac.c ****     {
 276:../Libraries/XMCLib/src/xmc_dac.c ****       XMC_DAC_CH_EnablePatternSignOutput(dac, channel);
 1146              	 .loc 2 276 7
 1147 0054 FB7A     	 ldrb r3,[r7,#11]
 1148 0056 1946     	 mov r1,r3
 1149 0058 F868     	 ldr r0,[r7,#12]
 1150 005a FFF7FEFF 	 bl XMC_DAC_CH_EnablePatternSignOutput
 1151 005e 04E0     	 b .L44
 1152              	.L43:
 277:../Libraries/XMCLib/src/xmc_dac.c ****     }
 278:../Libraries/XMCLib/src/xmc_dac.c ****     else
 279:../Libraries/XMCLib/src/xmc_dac.c ****     {
 280:../Libraries/XMCLib/src/xmc_dac.c ****       XMC_DAC_CH_DisablePatternSignOutput(dac, channel);
 1153              	 .loc 2 280 7
 1154 0060 FB7A     	 ldrb r3,[r7,#11]
 1155 0062 1946     	 mov r1,r3
 1156 0064 F868     	 ldr r0,[r7,#12]
 1157 0066 FFF7FEFF 	 bl XMC_DAC_CH_DisablePatternSignOutput
 1158              	.L44:
 281:../Libraries/XMCLib/src/xmc_dac.c ****     }
 282:../Libraries/XMCLib/src/xmc_dac.c ****     XMC_DAC_CH_SetTrigger(dac, channel, trigger);
 1159              	 .loc 2 282 5
 1160 006a FB7A     	 ldrb r3,[r7,#11]
 1161 006c 3A6A     	 ldr r2,[r7,#32]
 1162 006e 1946     	 mov r1,r3
 1163 0070 F868     	 ldr r0,[r7,#12]
 1164 0072 FFF7FEFF 	 bl XMC_DAC_CH_SetTrigger
 283:../Libraries/XMCLib/src/xmc_dac.c ****     XMC_DAC_CH_SetMode(dac, channel, XMC_DAC_CH_MODE_PATTERN);
 1165              	 .loc 2 283 5
 1166 0076 FB7A     	 ldrb r3,[r7,#11]
 1167 0078 4FF44012 	 mov r2,#3145728
 1168 007c 1946     	 mov r1,r3
 1169 007e F868     	 ldr r0,[r7,#12]
 1170 0080 FFF7FEFF 	 bl XMC_DAC_CH_SetMode
 1171              	.L42:
 284:../Libraries/XMCLib/src/xmc_dac.c ****   }
 285:../Libraries/XMCLib/src/xmc_dac.c **** 
 286:../Libraries/XMCLib/src/xmc_dac.c ****   return status;
 1172              	 .loc 2 286 10
 1173 0084 FB7D     	 ldrb r3,[r7,#23]
 287:../Libraries/XMCLib/src/xmc_dac.c **** }
 1174              	 .loc 2 287 1
 1175 0086 1846     	 mov r0,r3
 1176 0088 1837     	 adds r7,r7,#24
 1177              	.LCFI90:
 1178              	 .cfi_def_cfa_offset 8
 1179 008a BD46     	 mov sp,r7
 1180              	.LCFI91:
 1181              	 .cfi_def_cfa_register 13
 1182              	 
 1183 008c 80BD     	 pop {r7,pc}
 1184              	 .cfi_endproc
 1185              	.LFE208:
 1187              	 .section .text.XMC_DAC_CH_StartNoiseMode,"ax",%progbits
 1188              	 .align 1
 1189              	 .global XMC_DAC_CH_StartNoiseMode
 1190              	 .syntax unified
 1191              	 .thumb
 1192              	 .thumb_func
 1193              	 .fpu fpv4-sp-d16
 1195              	XMC_DAC_CH_StartNoiseMode:
 1196              	.LFB209:
 288:../Libraries/XMCLib/src/xmc_dac.c **** 
 289:../Libraries/XMCLib/src/xmc_dac.c **** /* API to start the operation in Noise Mode. */
 290:../Libraries/XMCLib/src/xmc_dac.c **** XMC_DAC_CH_STATUS_t XMC_DAC_CH_StartNoiseMode(XMC_DAC_t *const dac,
 291:../Libraries/XMCLib/src/xmc_dac.c ****     const uint8_t channel,
 292:../Libraries/XMCLib/src/xmc_dac.c ****     const XMC_DAC_CH_TRIGGER_t trigger,
 293:../Libraries/XMCLib/src/xmc_dac.c ****     const uint32_t frequency)
 294:../Libraries/XMCLib/src/xmc_dac.c **** {
 1197              	 .loc 2 294 1
 1198              	 .cfi_startproc
 1199              	 
 1200              	 
 1201 0000 80B5     	 push {r7,lr}
 1202              	.LCFI92:
 1203              	 .cfi_def_cfa_offset 8
 1204              	 .cfi_offset 7,-8
 1205              	 .cfi_offset 14,-4
 1206 0002 86B0     	 sub sp,sp,#24
 1207              	.LCFI93:
 1208              	 .cfi_def_cfa_offset 32
 1209 0004 00AF     	 add r7,sp,#0
 1210              	.LCFI94:
 1211              	 .cfi_def_cfa_register 7
 1212 0006 F860     	 str r0,[r7,#12]
 1213 0008 7A60     	 str r2,[r7,#4]
 1214 000a 3B60     	 str r3,[r7]
 1215 000c 0B46     	 mov r3,r1
 1216 000e FB72     	 strb r3,[r7,#11]
 295:../Libraries/XMCLib/src/xmc_dac.c ****   XMC_DAC_CH_STATUS_t status = XMC_DAC_CH_STATUS_OK;
 1217              	 .loc 2 295 23
 1218 0010 0023     	 movs r3,#0
 1219 0012 FB75     	 strb r3,[r7,#23]
 296:../Libraries/XMCLib/src/xmc_dac.c **** 
 297:../Libraries/XMCLib/src/xmc_dac.c ****   XMC_ASSERT("XMC_DAC_CH_StartNoiseMode: dac parameter not valid\n", XMC_DAC_IS_DAC_VALID(dac));
 298:../Libraries/XMCLib/src/xmc_dac.c ****   XMC_ASSERT("XMC_DAC_CH_StartNoiseMode: channel parameter not valid\n", XMC_DAC_IS_CHANNEL_VALID(c
 299:../Libraries/XMCLib/src/xmc_dac.c ****   XMC_ASSERT("XMC_DAC_CH_StartNoiseMode: dac module not enabled\n", XMC_DAC_IsEnabled(dac));
 300:../Libraries/XMCLib/src/xmc_dac.c **** 
 301:../Libraries/XMCLib/src/xmc_dac.c ****   XMC_DAC_CH_SetMode(dac, channel, XMC_DAC_CH_MODE_IDLE);
 1220              	 .loc 2 301 3
 1221 0014 FB7A     	 ldrb r3,[r7,#11]
 1222 0016 0022     	 movs r2,#0
 1223 0018 1946     	 mov r1,r3
 1224 001a F868     	 ldr r0,[r7,#12]
 1225 001c FFF7FEFF 	 bl XMC_DAC_CH_SetMode
 302:../Libraries/XMCLib/src/xmc_dac.c **** 
 303:../Libraries/XMCLib/src/xmc_dac.c ****   if (trigger == XMC_DAC_CH_TRIGGER_INTERNAL)
 1226              	 .loc 2 303 6
 1227 0020 7B68     	 ldr r3,[r7,#4]
 1228 0022 002B     	 cmp r3,#0
 1229 0024 07D1     	 bne .L47
 304:../Libraries/XMCLib/src/xmc_dac.c ****   {
 305:../Libraries/XMCLib/src/xmc_dac.c ****     status = XMC_DAC_CH_SetFrequency(dac, channel, frequency);
 1230              	 .loc 2 305 14
 1231 0026 FB7A     	 ldrb r3,[r7,#11]
 1232 0028 3A68     	 ldr r2,[r7]
 1233 002a 1946     	 mov r1,r3
 1234 002c F868     	 ldr r0,[r7,#12]
 1235 002e FFF7FEFF 	 bl XMC_DAC_CH_SetFrequency
 1236 0032 0346     	 mov r3,r0
 1237 0034 FB75     	 strb r3,[r7,#23]
 1238              	.L47:
 306:../Libraries/XMCLib/src/xmc_dac.c ****   }
 307:../Libraries/XMCLib/src/xmc_dac.c **** 
 308:../Libraries/XMCLib/src/xmc_dac.c ****   if (status == XMC_DAC_CH_STATUS_OK)
 1239              	 .loc 2 308 6
 1240 0036 FB7D     	 ldrb r3,[r7,#23]
 1241 0038 002B     	 cmp r3,#0
 1242 003a 0CD1     	 bne .L48
 309:../Libraries/XMCLib/src/xmc_dac.c ****   {
 310:../Libraries/XMCLib/src/xmc_dac.c ****     XMC_DAC_CH_SetTrigger(dac, channel, trigger);
 1243              	 .loc 2 310 5
 1244 003c FB7A     	 ldrb r3,[r7,#11]
 1245 003e 7A68     	 ldr r2,[r7,#4]
 1246 0040 1946     	 mov r1,r3
 1247 0042 F868     	 ldr r0,[r7,#12]
 1248 0044 FFF7FEFF 	 bl XMC_DAC_CH_SetTrigger
 311:../Libraries/XMCLib/src/xmc_dac.c ****     XMC_DAC_CH_SetMode(dac, channel, XMC_DAC_CH_MODE_NOISE);
 1249              	 .loc 2 311 5
 1250 0048 FB7A     	 ldrb r3,[r7,#11]
 1251 004a 4FF48002 	 mov r2,#4194304
 1252 004e 1946     	 mov r1,r3
 1253 0050 F868     	 ldr r0,[r7,#12]
 1254 0052 FFF7FEFF 	 bl XMC_DAC_CH_SetMode
 1255              	.L48:
 312:../Libraries/XMCLib/src/xmc_dac.c ****   }
 313:../Libraries/XMCLib/src/xmc_dac.c **** 
 314:../Libraries/XMCLib/src/xmc_dac.c ****   return status;
 1256              	 .loc 2 314 10
 1257 0056 FB7D     	 ldrb r3,[r7,#23]
 315:../Libraries/XMCLib/src/xmc_dac.c **** }
 1258              	 .loc 2 315 1
 1259 0058 1846     	 mov r0,r3
 1260 005a 1837     	 adds r7,r7,#24
 1261              	.LCFI95:
 1262              	 .cfi_def_cfa_offset 8
 1263 005c BD46     	 mov sp,r7
 1264              	.LCFI96:
 1265              	 .cfi_def_cfa_register 13
 1266              	 
 1267 005e 80BD     	 pop {r7,pc}
 1268              	 .cfi_endproc
 1269              	.LFE209:
 1271              	 .section .text.XMC_DAC_CH_SetPattern,"ax",%progbits
 1272              	 .align 1
 1273              	 .global XMC_DAC_CH_SetPattern
 1274              	 .syntax unified
 1275              	 .thumb
 1276              	 .thumb_func
 1277              	 .fpu fpv4-sp-d16
 1279              	XMC_DAC_CH_SetPattern:
 1280              	.LFB210:
 316:../Libraries/XMCLib/src/xmc_dac.c **** 
 317:../Libraries/XMCLib/src/xmc_dac.c **** /* API to write the pattern data table. */
 318:../Libraries/XMCLib/src/xmc_dac.c **** void XMC_DAC_CH_SetPattern(XMC_DAC_t *const dac, uint8_t channel, const uint8_t *const data)
 319:../Libraries/XMCLib/src/xmc_dac.c **** {
 1281              	 .loc 2 319 1
 1282              	 .cfi_startproc
 1283              	 
 1284              	 
 1285              	 
 1286 0000 80B4     	 push {r7}
 1287              	.LCFI97:
 1288              	 .cfi_def_cfa_offset 4
 1289              	 .cfi_offset 7,-4
 1290 0002 87B0     	 sub sp,sp,#28
 1291              	.LCFI98:
 1292              	 .cfi_def_cfa_offset 32
 1293 0004 00AF     	 add r7,sp,#0
 1294              	.LCFI99:
 1295              	 .cfi_def_cfa_register 7
 1296 0006 F860     	 str r0,[r7,#12]
 1297 0008 0B46     	 mov r3,r1
 1298 000a 7A60     	 str r2,[r7,#4]
 1299 000c FB72     	 strb r3,[r7,#11]
 320:../Libraries/XMCLib/src/xmc_dac.c ****   uint32_t index;
 321:../Libraries/XMCLib/src/xmc_dac.c ****   uint32_t temp;
 322:../Libraries/XMCLib/src/xmc_dac.c **** 
 323:../Libraries/XMCLib/src/xmc_dac.c ****   XMC_ASSERT("XMC_DAC_CH_SetPattern: dac parameter not valid\n", XMC_DAC_IS_DAC_VALID(dac));
 324:../Libraries/XMCLib/src/xmc_dac.c ****   XMC_ASSERT("XMC_DAC_CH_SetPattern: channel parameter not valid\n", XMC_DAC_IS_CHANNEL_VALID(chann
 325:../Libraries/XMCLib/src/xmc_dac.c ****   XMC_ASSERT("XMC_DAC_CH_SetPattern: dac module not enabled\n", XMC_DAC_IsEnabled(dac));
 326:../Libraries/XMCLib/src/xmc_dac.c **** 
 327:../Libraries/XMCLib/src/xmc_dac.c ****   temp = data[0U];
 1300              	 .loc 2 327 14
 1301 000e 7B68     	 ldr r3,[r7,#4]
 1302 0010 1B78     	 ldrb r3,[r3]
 1303              	 .loc 2 327 8
 1304 0012 3B61     	 str r3,[r7,#16]
 328:../Libraries/XMCLib/src/xmc_dac.c ****   for (index = 1U; index < 6U; ++index)
 1305              	 .loc 2 328 14
 1306 0014 0123     	 movs r3,#1
 1307 0016 7B61     	 str r3,[r7,#20]
 1308              	 .loc 2 328 3
 1309 0018 10E0     	 b .L51
 1310              	.L52:
 329:../Libraries/XMCLib/src/xmc_dac.c ****   {
 330:../Libraries/XMCLib/src/xmc_dac.c ****     temp |= (uint32_t)data[index] << (index * XMC_DAC_DAC0PATL_PAT_BITSIZE);
 1311              	 .loc 2 330 27 discriminator 3
 1312 001a 7A68     	 ldr r2,[r7,#4]
 1313 001c 7B69     	 ldr r3,[r7,#20]
 1314 001e 1344     	 add r3,r3,r2
 1315 0020 1B78     	 ldrb r3,[r3]
 1316              	 .loc 2 330 13 discriminator 3
 1317 0022 1946     	 mov r1,r3
 1318              	 .loc 2 330 45 discriminator 3
 1319 0024 7A69     	 ldr r2,[r7,#20]
 1320 0026 1346     	 mov r3,r2
 1321 0028 9B00     	 lsls r3,r3,#2
 1322 002a 1344     	 add r3,r3,r2
 1323              	 .loc 2 330 35 discriminator 3
 1324 002c 01FA03F3 	 lsl r3,r1,r3
 1325              	 .loc 2 330 10 discriminator 3
 1326 0030 3A69     	 ldr r2,[r7,#16]
 1327 0032 1343     	 orrs r3,r3,r2
 1328 0034 3B61     	 str r3,[r7,#16]
 328:../Libraries/XMCLib/src/xmc_dac.c ****   for (index = 1U; index < 6U; ++index)
 1329              	 .loc 2 328 32 discriminator 3
 1330 0036 7B69     	 ldr r3,[r7,#20]
 1331 0038 0133     	 adds r3,r3,#1
 1332 003a 7B61     	 str r3,[r7,#20]
 1333              	.L51:
 328:../Libraries/XMCLib/src/xmc_dac.c ****   for (index = 1U; index < 6U; ++index)
 1334              	 .loc 2 328 3 discriminator 1
 1335 003c 7B69     	 ldr r3,[r7,#20]
 1336 003e 052B     	 cmp r3,#5
 1337 0040 EBD9     	 bls .L52
 331:../Libraries/XMCLib/src/xmc_dac.c ****   }
 332:../Libraries/XMCLib/src/xmc_dac.c ****   dac->DACPAT[channel].low = temp;
 1338              	 .loc 2 332 23
 1339 0042 FA7A     	 ldrb r2,[r7,#11]
 1340              	 .loc 2 332 28
 1341 0044 FB68     	 ldr r3,[r7,#12]
 1342 0046 0432     	 adds r2,r2,#4
 1343 0048 3969     	 ldr r1,[r7,#16]
 1344 004a 43F83210 	 str r1,[r3,r2,lsl#3]
 333:../Libraries/XMCLib/src/xmc_dac.c **** 
 334:../Libraries/XMCLib/src/xmc_dac.c ****   temp = data[6U];
 1345              	 .loc 2 334 14
 1346 004e 7B68     	 ldr r3,[r7,#4]
 1347 0050 0633     	 adds r3,r3,#6
 1348 0052 1B78     	 ldrb r3,[r3]
 1349              	 .loc 2 334 8
 1350 0054 3B61     	 str r3,[r7,#16]
 335:../Libraries/XMCLib/src/xmc_dac.c ****   for (index = 1U; index < 6U; ++index)
 1351              	 .loc 2 335 14
 1352 0056 0123     	 movs r3,#1
 1353 0058 7B61     	 str r3,[r7,#20]
 1354              	 .loc 2 335 3
 1355 005a 11E0     	 b .L53
 1356              	.L54:
 336:../Libraries/XMCLib/src/xmc_dac.c ****   {
 337:../Libraries/XMCLib/src/xmc_dac.c ****     temp |= (uint32_t)data[index + 6U] << (index * XMC_DAC_DAC0PATL_PAT_BITSIZE);
 1357              	 .loc 2 337 27 discriminator 3
 1358 005c 7B69     	 ldr r3,[r7,#20]
 1359 005e 0633     	 adds r3,r3,#6
 1360 0060 7A68     	 ldr r2,[r7,#4]
 1361 0062 1344     	 add r3,r3,r2
 1362 0064 1B78     	 ldrb r3,[r3]
 1363              	 .loc 2 337 13 discriminator 3
 1364 0066 1946     	 mov r1,r3
 1365              	 .loc 2 337 50 discriminator 3
 1366 0068 7A69     	 ldr r2,[r7,#20]
 1367 006a 1346     	 mov r3,r2
 1368 006c 9B00     	 lsls r3,r3,#2
 1369 006e 1344     	 add r3,r3,r2
 1370              	 .loc 2 337 40 discriminator 3
 1371 0070 01FA03F3 	 lsl r3,r1,r3
 1372              	 .loc 2 337 10 discriminator 3
 1373 0074 3A69     	 ldr r2,[r7,#16]
 1374 0076 1343     	 orrs r3,r3,r2
 1375 0078 3B61     	 str r3,[r7,#16]
 335:../Libraries/XMCLib/src/xmc_dac.c ****   for (index = 1U; index < 6U; ++index)
 1376              	 .loc 2 335 32 discriminator 3
 1377 007a 7B69     	 ldr r3,[r7,#20]
 1378 007c 0133     	 adds r3,r3,#1
 1379 007e 7B61     	 str r3,[r7,#20]
 1380              	.L53:
 335:../Libraries/XMCLib/src/xmc_dac.c ****   for (index = 1U; index < 6U; ++index)
 1381              	 .loc 2 335 3 discriminator 1
 1382 0080 7B69     	 ldr r3,[r7,#20]
 1383 0082 052B     	 cmp r3,#5
 1384 0084 EAD9     	 bls .L54
 338:../Libraries/XMCLib/src/xmc_dac.c ****   }
 339:../Libraries/XMCLib/src/xmc_dac.c ****   dac->DACPAT[channel].high = temp;
 1385              	 .loc 2 339 23
 1386 0086 FB7A     	 ldrb r3,[r7,#11]
 1387              	 .loc 2 339 29
 1388 0088 FA68     	 ldr r2,[r7,#12]
 1389 008a 0433     	 adds r3,r3,#4
 1390 008c DB00     	 lsls r3,r3,#3
 1391 008e 1344     	 add r3,r3,r2
 1392 0090 3A69     	 ldr r2,[r7,#16]
 1393 0092 5A60     	 str r2,[r3,#4]
 340:../Libraries/XMCLib/src/xmc_dac.c **** }
 1394              	 .loc 2 340 1
 1395 0094 00BF     	 nop
 1396 0096 1C37     	 adds r7,r7,#28
 1397              	.LCFI100:
 1398              	 .cfi_def_cfa_offset 4
 1399 0098 BD46     	 mov sp,r7
 1400              	.LCFI101:
 1401              	 .cfi_def_cfa_register 13
 1402              	 
 1403 009a 5DF8047B 	 ldr r7,[sp],#4
 1404              	.LCFI102:
 1405              	 .cfi_restore 7
 1406              	 .cfi_def_cfa_offset 0
 1407 009e 7047     	 bx lr
 1408              	 .cfi_endproc
 1409              	.LFE210:
 1411              	 .text
 1412              	.Letext0:
 1413              	 .file 3 "c:\\program files (x86)\\gnu arm embedded toolchain\\10 2020-q4-major\\arm-none-eabi\\include\\machine\\_default_types.h"
 1414              	 .file 4 "c:\\program files (x86)\\gnu arm embedded toolchain\\10 2020-q4-major\\arm-none-eabi\\include\\sys\\_stdint.h"
 1415              	 .file 5 "C:/Workspaces/DAVE-4.4.2-64Bit/_PKDS_TSTS06_811_X47_V1_0/Libraries/XMCLib/inc/xmc4_scu.h"